(lp0
(S'10:32:56'
p1
(lp2
(cnumpy.core.multiarray
scalar
p3
(cnumpy
dtype
p4
(S'f8'
p5
I0
I1
tp6
Rp7
(I3
S'<'
p8
NNNI-1
I-1
I0
tp9
bS'\xf2P8$\xb1/4\xc0'
p10
tp11
Rp12
g3
(g7
S'\x1dK\x1e\x1ft\x9e,@'
p13
tp14
Rp15
tp16
a(g3
(g7
S'\xf1]\x14\x8a@25\xc0'
p17
tp18
Rp19
g3
(g7
S'|\x08\xd7\x01\xb7\x94>@'
p20
tp21
Rp22
tp23
a(g3
(g7
S'\xd9\x87Y\xc6O\x01"@'
p24
tp25
Rp26
g3
(g7
S'\x18(lvW\xb1H@'
p27
tp28
Rp29
tp30
a(g3
(g7
S'\xe0A\xa2\x8b\x9f\xa91@'
p31
tp32
Rp33
g3
(g7
S'/D\xcb\xaa7\xbdL@'
p34
tp35
Rp36
tp37
a(g3
(g7
S'\x19o,?&\x08@@'
p38
tp39
Rp40
g3
(g7
S'\x06y\x84<\xddY<@'
p41
tp42
Rp43
tp44
a(g3
(g7
S'\x80\x01E@M\x8a-@'
p45
tp46
Rp47
g3
(g7
S'f)\xbe\x99\x00-&@'
p48
tp49
Rp50
tp51
a(lp52
S'a'
p53
aS'b'
p54
aS'c'
p55
aS'd'
p56
aS'e'
p57
aS'f'
p58
atp59
a(S'12:07:42'
p60
(lp61
(g3
(g7
S'\xf2P8$\xb1/4\xc0'
p62
tp63
Rp64
g3
(g7
S'\x1dK\x1e\x1ft\x9e,@'
p65
tp66
Rp67
tp68
a(g3
(g7
S'\xf1]\x14\x8a@25\xc0'
p69
tp70
Rp71
g3
(g7
S'|\x08\xd7\x01\xb7\x94>@'
p72
tp73
Rp74
tp75
a(g3
(g7
S'\xd9\x87Y\xc6O\x01"@'
p76
tp77
Rp78
g3
(g7
S'\x18(lvW\xb1H@'
p79
tp80
Rp81
tp82
a(g3
(g7
S'\x9aM\xc5\xb45j:@'
p83
tp84
Rp85
g3
(g7
S'=+#\xa5iP[@'
p86
tp87
Rp88
tp89
a(g3
(g7
S'\x19o,?&\x08@@'
p90
tp91
Rp92
g3
(g7
S'\x06y\x84<\xddY<@'
p93
tp94
Rp95
tp96
a(g3
(g7
S'\x80\x01E@M\x8a-@'
p97
tp98
Rp99
g3
(g7
S'f)\xbe\x99\x00-&@'
p100
tp101
Rp102
tp103
a(lp104
g53
ag54
ag55
ag56
ag57
ag58
atp105
a(S'12:12:40'
p106
(lp107
(g3
(g7
S'\xf2P8$\xb1/4\xc0'
p108
tp109
Rp110
g3
(g7
S'\x1dK\x1e\x1ft\x9e,@'
p111
tp112
Rp113
tp114
a(g3
(g7
S'\xf1]\x14\x8a@25\xc0'
p115
tp116
Rp117
g3
(g7
S'|\x08\xd7\x01\xb7\x94>@'
p118
tp119
Rp120
tp121
a(g3
(g7
S'\xdbzpoXc;@'
p122
tp123
Rp124
g3
(g7
S'lNT\xfa\xc9IT@'
p125
tp126
Rp127
tp128
a(g3
(g7
S'\x9aM\xc5\xb45j:@'
p129
tp130
Rp131
g3
(g7
S'=+#\xa5iP[@'
p132
tp133
Rp134
tp135
a(g3
(g7
S'\x19o,?&\x08@@'
p136
tp137
Rp138
g3
(g7
S'\x06y\x84<\xddY<@'
p139
tp140
Rp141
tp142
a(g3
(g7
S'\x80\x01E@M\x8a-@'
p143
tp144
Rp145
g3
(g7
S'f)\xbe\x99\x00-&@'
p146
tp147
Rp148
tp149
a(lp150
g53
ag54
ag55
ag56
ag57
ag58
atp151
a(S'12:18:36'
p152
(lp153
(g3
(g7
S'\xf2P8$\xb1/4\xc0'
p154
tp155
Rp156
g3
(g7
S'\x1dK\x1e\x1ft\x9e,@'
p157
tp158
Rp159
tp160
a(g3
(g7
S'\xf1]\x14\x8a@25\xc0'
p161
tp162
Rp163
g3
(g7
S'|\x08\xd7\x01\xb7\x94>@'
p164
tp165
Rp166
tp167
a(g3
(g7
S'\xdbzpoXc;@'
p168
tp169
Rp170
g3
(g7
S'lNT\xfa\xc9IT@'
p171
tp172
Rp173
tp174
a(g3
(g7
S'\x9aM\xc5\xb45j:@'
p175
tp176
Rp177
g3
(g7
S'=+#\xa5iP[@'
p178
tp179
Rp180
tp181
a(g3
(g7
S'A\x9c\n\xe3\t\x14I@'
p182
tp183
Rp184
g3
(g7
S'\xa7\xf9\xc5\xe9P\rI@'
p185
tp186
Rp187
tp188
a(g3
(g7
S'(l\xf2\xa7 \xc3?@'
p189
tp190
Rp191
g3
(g7
S'Xa]R\xab\xae^@'
p192
tp193
Rp194
tp195
a(lp196
g53
ag54
ag55
ag56
ag57
ag58
atp197
a(S'12:19:14'
p198
(lp199
(g3
(g7
S'\xf2P8$\xb1/4\xc0'
p200
tp201
Rp202
g3
(g7
S'\x1dK\x1e\x1ft\x9e,@'
p203
tp204
Rp205
tp206
a(g3
(g7
S'\xf1]\x14\x8a@25\xc0'
p207
tp208
Rp209
g3
(g7
S'|\x08\xd7\x01\xb7\x94>@'
p210
tp211
Rp212
tp213
a(g3
(g7
S'\xdbzpoXc;@'
p214
tp215
Rp216
g3
(g7
S'lNT\xfa\xc9IT@'
p217
tp218
Rp219
tp220
a(g3
(g7
S'\x9aM\xc5\xb45j:@'
p221
tp222
Rp223
g3
(g7
S'=+#\xa5iP[@'
p224
tp225
Rp226
tp227
a(g3
(g7
S'A\x9c\n\xe3\t\x14I@'
p228
tp229
Rp230
g3
(g7
S'\xa7\xf9\xc5\xe9P\rI@'
p231
tp232
Rp233
tp234
a(lp235
g53
ag54
ag55
ag56
ag57
atp236
a(S'12:30:14'
p237
(lp238
(g3
(g7
S'p\xbd\x9f_\n9G@'
p239
tp240
Rp241
g3
(g7
S'x\xb3\xf7\xed\xcb\xb4Z@'
p242
tp243
Rp244
tp245
a(g3
(g7
S'\xf1]\x14\x8a@25\xc0'
p246
tp247
Rp248
g3
(g7
S'|\x08\xd7\x01\xb7\x94>@'
p249
tp250
Rp251
tp252
a(g3
(g7
S'\xdbzpoXc;@'
p253
tp254
Rp255
g3
(g7
S'lNT\xfa\xc9IT@'
p256
tp257
Rp258
tp259
a(g3
(g7
S'\x9aM\xc5\xb45j:@'
p260
tp261
Rp262
g3
(g7
S'=+#\xa5iP[@'
p263
tp264
Rp265
tp266
a(g3
(g7
S'A\x9c\n\xe3\t\x14I@'
p267
tp268
Rp269
g3
(g7
S'\xa7\xf9\xc5\xe9P\rI@'
p270
tp271
Rp272
tp273
a(lp274
g53
ag54
ag55
ag56
ag57
atp275
a(S'12:48:20'
p276
(lp277
(g3
(g7
S'p\xbd\x9f_\n9G@'
p278
tp279
Rp280
g3
(g7
S'x\xb3\xf7\xed\xcb\xb4Z@'
p281
tp282
Rp283
tp284
a(g3
(g7
S'0\x15\xca\xa6\xe9\xad4\xc0'
p285
tp286
Rp287
g3
(g7
S'\xf6\xe2\x0f\x9e\x83\x0b/@'
p288
tp289
Rp290
tp291
a(g3
(g7
S'\xdbzpoXc;@'
p292
tp293
Rp294
g3
(g7
S'lNT\xfa\xc9IT@'
p295
tp296
Rp297
tp298
a(g3
(g7
S'\x9aM\xc5\xb45j:@'
p299
tp300
Rp301
g3
(g7
S'=+#\xa5iP[@'
p302
tp303
Rp304
tp305
a(g3
(g7
S'A\x9c\n\xe3\t\x14I@'
p306
tp307
Rp308
g3
(g7
S'\xa7\xf9\xc5\xe9P\rI@'
p309
tp310
Rp311
tp312
a(lp313
g53
ag54
ag55
ag56
ag57
atp314
a(S'12:48:48'
p315
(lp316
(g3
(g7
S'p\xbd\x9f_\n9G@'
p317
tp318
Rp319
g3
(g7
S'x\xb3\xf7\xed\xcb\xb4Z@'
p320
tp321
Rp322
tp323
a(g3
(g7
S'0\x15\xca\xa6\xe9\xad4\xc0'
p324
tp325
Rp326
g3
(g7
S'\xf6\xe2\x0f\x9e\x83\x0b/@'
p327
tp328
Rp329
tp330
a(g3
(g7
S'\xdbzpoXc;@'
p331
tp332
Rp333
g3
(g7
S'lNT\xfa\xc9IT@'
p334
tp335
Rp336
tp337
a(g3
(g7
S'"\x99\x1f\xcbii@\xc0'
p338
tp339
Rp340
g3
(g7
S'\x1d\xc4\xfd\xbbBr4@'
p341
tp342
Rp343
tp344
a(g3
(g7
S'A\x9c\n\xe3\t\x14I@'
p345
tp346
Rp347
g3
(g7
S'\xa7\xf9\xc5\xe9P\rI@'
p348
tp349
Rp350
tp351
a(lp352
g53
ag54
ag55
ag56
ag57
atp353
a(S'14:05:50'
p354
(lp355
(g3
(g7
S'p\xbd\x9f_\n9G@'
p356
tp357
Rp358
g3
(g7
S'x\xb3\xf7\xed\xcb\xb4Z@'
p359
tp360
Rp361
tp362
a(g3
(g7
S'w\xed5\xf6g\xee@\xc0'
p363
tp364
Rp365
g3
(g7
S'\xc96\x10\x82\xd3z7@'
p366
tp367
Rp368
tp369
a(g3
(g7
S'\xdbzpoXc;@'
p370
tp371
Rp372
g3
(g7
S'lNT\xfa\xc9IT@'
p373
tp374
Rp375
tp376
a(g3
(g7
S'"\x99\x1f\xcbii@\xc0'
p377
tp378
Rp379
g3
(g7
S'\x1d\xc4\xfd\xbbBr4@'
p380
tp381
Rp382
tp383
a(g3
(g7
S'A\x9c\n\xe3\t\x14I@'
p384
tp385
Rp386
g3
(g7
S'\xa7\xf9\xc5\xe9P\rI@'
p387
tp388
Rp389
tp390
a(lp391
g53
ag54
ag55
ag56
ag57
atp392
a(S'14:28:26'
p393
(lp394
(g3
(g7
S'p\xbd\x9f_\n9G@'
p395
tp396
Rp397
g3
(g7
S'x\xb3\xf7\xed\xcb\xb4Z@'
p398
tp399
Rp400
tp401
a(g3
(g7
S'#\xa4\x1c\xa1\x03\xcdF\xc0'
p402
tp403
Rp404
g3
(g7
S'fX}\x04\xee\xad:@'
p405
tp406
Rp407
tp408
a(g3
(g7
S'\xdbzpoXc;@'
p409
tp410
Rp411
g3
(g7
S'lNT\xfa\xc9IT@'
p412
tp413
Rp414
tp415
a(g3
(g7
S'o=\x9d\x9bc\x84E\xc0'
p416
tp417
Rp418
g3
(g7
S'\xa0m\rvT\x856@'
p419
tp420
Rp421
tp422
a(g3
(g7
S'A\x9c\n\xe3\t\x14I@'
p423
tp424
Rp425
g3
(g7
S'\xa7\xf9\xc5\xe9P\rI@'
p426
tp427
Rp428
tp429
a(lp430
g53
ag54
ag55
ag56
ag57
atp431
a(S'14:38:50'
p432
(lp433
(g3
(g7
S'p\xbd\x9f_\n9G@'
p434
tp435
Rp436
g3
(g7
S'x\xb3\xf7\xed\xcb\xb4Z@'
p437
tp438
Rp439
tp440
a(g3
(g7
S'\xb7\xff\xaaA\xf8\x183\xc0'
p441
tp442
Rp443
g3
(g7
S'\xcd\xef\xf9\xe4\x0f\xcb,@'
p444
tp445
Rp446
tp447
a(g3
(g7
S'\xdbzpoXc;@'
p448
tp449
Rp450
g3
(g7
S'lNT\xfa\xc9IT@'
p451
tp452
Rp453
tp454
a(g3
(g7
S'\x9d\xe5\x1e\xc6\xc4\xa91\xc0'
p455
tp456
Rp457
g3
(g7
S'\xf6\xc5\x02\xf7\xd0\x14!@'
p458
tp459
Rp460
tp461
a(g3
(g7
S'A\x9c\n\xe3\t\x14I@'
p462
tp463
Rp464
g3
(g7
S'\xa7\xf9\xc5\xe9P\rI@'
p465
tp466
Rp467
tp468
a(lp469
g53
ag54
ag55
ag56
ag57
atp470
a(S'14:58:08'
p471
(lp472
(g3
(g7
S'p\xbd\x9f_\n9G@'
p473
tp474
Rp475
g3
(g7
S'x\xb3\xf7\xed\xcb\xb4Z@'
p476
tp477
Rp478
tp479
a(g3
(g7
S'\xc9\xaf&\r\xd3\xe87\xc0'
p480
tp481
Rp482
g3
(g7
S'b\xf3"uM\x1d2@'
p483
tp484
Rp485
tp486
a(g3
(g7
S'\xdbzpoXc;@'
p487
tp488
Rp489
g3
(g7
S'lNT\xfa\xc9IT@'
p490
tp491
Rp492
tp493
a(g3
(g7
S'\x10\x88\xa2\x03\xbdd6\xc0'
p494
tp495
Rp496
g3
(g7
S'3\xa1\xf0\x13@7,@'
p497
tp498
Rp499
tp500
a(g3
(g7
S'A\x9c\n\xe3\t\x14I@'
p501
tp502
Rp503
g3
(g7
S'\xa7\xf9\xc5\xe9P\rI@'
p504
tp505
Rp506
tp507
a(lp508
g53
ag54
ag55
ag56
ag57
atp509
a(S'15:00:08'
p510
(lp511
(g3
(g7
S'p\xbd\x9f_\n9G@'
p512
tp513
Rp514
g3
(g7
S'x\xb3\xf7\xed\xcb\xb4Z@'
p515
tp516
Rp517
tp518
a(g3
(g7
S'\xc9\xaf&\r\xd3\xe87\xc0'
p519
tp520
Rp521
g3
(g7
S'b\xf3"uM\x1d2@'
p522
tp523
Rp524
tp525
a(g3
(g7
S'\xdbzpoXc;@'
p526
tp527
Rp528
g3
(g7
S'lNT\xfa\xc9IT@'
p529
tp530
Rp531
tp532
a(g3
(g7
S'\x10\x88\xa2\x03\xbdd6\xc0'
p533
tp534
Rp535
g3
(g7
S'3\xa1\xf0\x13@7,@'
p536
tp537
Rp538
tp539
a(g3
(g7
S'\xef\xf3z\x8a\xc4\xb6C@'
p540
tp541
Rp542
g3
(g7
S'\xab\xb8\x8b^O\xd6S@'
p543
tp544
Rp545
tp546
a(g3
(g7
S'eQ\x9f\x90n\x18H@'
p547
tp548
Rp549
g3
(g7
S'5i\xdcq\x96eS@'
p550
tp551
Rp552
tp553
a(lp554
g53
ag54
ag55
ag56
ag57
ag58
atp555
a(S'17:04:47'
p556
(lp557
(g3
(g7
S'p\xbd\x9f_\n9G@'
p558
tp559
Rp560
g3
(g7
S'x\xb3\xf7\xed\xcb\xb4Z@'
p561
tp562
Rp563
tp564
a(g3
(g7
S'\xf6\x97i\x13$\xf73\xc0'
p565
tp566
Rp567
g3
(g7
S'n\xfa\x12\x0eF-*@'
p568
tp569
Rp570
tp571
a(g3
(g7
S'\xdbzpoXc;@'
p572
tp573
Rp574
g3
(g7
S'lNT\xfa\xc9IT@'
p575
tp576
Rp577
tp578
a(g3
(g7
S'\x10\x88\xa2\x03\xbdd6\xc0'
p579
tp580
Rp581
g3
(g7
S'3\xa1\xf0\x13@7,@'
p582
tp583
Rp584
tp585
a(g3
(g7
S'\xef\xf3z\x8a\xc4\xb6C@'
p586
tp587
Rp588
g3
(g7
S'\xab\xb8\x8b^O\xd6S@'
p589
tp590
Rp591
tp592
a(g3
(g7
S'eQ\x9f\x90n\x18H@'
p593
tp594
Rp595
g3
(g7
S'5i\xdcq\x96eS@'
p596
tp597
Rp598
tp599
a(lp600
g53
ag54
ag55
ag56
ag57
ag58
atp601
a(S'19:03:55'
p602
(lp603
(g3
(g7
S'p\xbd\x9f_\n9G@'
p604
tp605
Rp606
g3
(g7
S'x\xb3\xf7\xed\xcb\xb4Z@'
p607
tp608
Rp609
tp610
a(g3
(g7
S'\xf6\x97i\x13$\xf73\xc0'
p611
tp612
Rp613
g3
(g7
S'n\xfa\x12\x0eF-*@'
p614
tp615
Rp616
tp617
a(g3
(g7
S'\xdbzpoXc;@'
p618
tp619
Rp620
g3
(g7
S'lNT\xfa\xc9IT@'
p621
tp622
Rp623
tp624
a(g3
(g7
S'\x10\x88\xa2\x03\xbdd6\xc0'
p625
tp626
Rp627
g3
(g7
S'3\xa1\xf0\x13@7,@'
p628
tp629
Rp630
tp631
a(g3
(g7
S'\xef\xf3z\x8a\xc4\xb6C@'
p632
tp633
Rp634
g3
(g7
S'\xab\xb8\x8b^O\xd6S@'
p635
tp636
Rp637
tp638
a(g3
(g7
S'eQ\x9f\x90n\x18H@'
p639
tp640
Rp641
g3
(g7
S'5i\xdcq\x96eS@'
p642
tp643
Rp644
tp645
a(lp646
g53
ag54
ag55
ag56
ag57
ag58
atp647
a.