(lp0
V2017:08:06 13:40:36
p1
aV2017:08:06 13:40:50
p2
aV2017:08:06 13:41:38
p3
aV2017:08:06 13:41:42
p4
aV2017:08:06 13:41:52
p5
aV2017:08:06 14:25:42
p6
aV2017:08:06 14:31:34
p7
aV2017:08:06 14:31:48
p8
aV2017:08:06 14:31:58
p9
aV2017:08:06 14:32:44
p10
aV2017:08:06 15:04:06
p11
aV2017:08:06 15:05:26
p12
aV2017:08:06 15:37:32
p13
aV2017:08:06 15:37:40
p14
aV2017:08:06 15:37:56
p15
aV2017:08:06 15:42:20
p16
aV2017:08:06 15:50:14
p17
aV2017:08:06 15:50:20
p18
aV2017:08:06 15:50:30
p19
aV2017:08:06 17:05:14
p20
aV2017:08:06 17:05:16
p21
aV2017:08:06 17:33:18
p22
aV2017:08:06 17:33:28
p23
aV2017:08:06 18:11:56
p24
aV2017:08:06 18:12:00
p25
aV2017:08:06 18:12:08
p26
aV2017:08:06 18:25:16
p27
aV2017:08:06 18:27:46
p28
aV2017:08:06 18:28:08
p29
aV2017:08:06 18:41:06
p30
aV2017:08:06 18:54:38
p31
aV2017:08:06 19:40:32
p32
aV2017:08:06 20:21:48
p33
a.