(lp0
V2017:07:28 11:24:38
p1
aV2017:07:28 11:25:08
p2
aV2017:07:28 11:25:18
p3
aV2017:07:28 11:25:28
p4
aV2017:07:28 11:25:50
p5
aV2017:07:28 11:26:06
p6
aV2017:07:28 11:33:30
p7
aV2017:07:28 12:05:40
p8
aV2017:07:28 12:05:54
p9
aV2017:07:28 12:33:02
p10
ag10
aV2017:07:28 12:49:16
p11
aV2017:07:28 13:01:20
p12
aV2017:07:28 13:01:22
p13
aV2017:07:28 13:01:24
p14
aV2017:07:28 13:01:32
p15
aV2017:07:28 13:01:50
p16
aV2017:07:28 13:01:58
p17
aV2017:07:28 13:02:18
p18
aV2017:07:28 13:02:38
p19
aV2017:07:28 13:02:48
p20
aV2017:07:28 13:02:54
p21
aV2017:07:28 13:02:56
p22
aV2017:07:28 13:03:10
p23
aV2017:07:28 13:03:28
p24
aV2017:07:28 13:03:42
p25
ag25
aV2017:07:28 13:25:00
p26
aV2017:07:28 14:04:03
p27
aV2017:07:28 14:04:11
p28
aV2017:07:28 14:41:19
p29
aV2017:07:28 14:41:31
p30
aV2017:07:28 15:03:07
p31
aV2017:07:28 15:08:47
p32
aV2017:07:28 15:08:57
p33
aV2017:07:28 15:21:39
p34
aV2017:07:28 16:05:29
p35
aV2017:07:28 16:05:37
p36
aV2017:07:28 16:05:45
p37
aV2017:07:28 16:10:19
p38
aV2017:07:28 16:10:23
p39
aV2017:07:28 16:10:25
p40
a.