(lp0
V2017:07:26 12:31:44
p1
aV2017:07:26 12:31:52
p2
aV2017:07:26 12:32:08
p3
aV2017:07:26 12:32:16
p4
aV2017:07:26 12:32:26
p5
aV2017:07:26 12:32:36
p6
aV2017:07:26 12:52:50
p7
aV2017:07:26 12:58:42
p8
aV2017:07:26 13:22:02
p9
aV2017:07:26 13:22:06
p10
aV2017:07:26 14:29:34
p11
a.