(lp0
V2017:07:31 12:17:50
p1
aV2017:07:31 12:42:04
p2
aV2017:07:31 12:44:10
p3
aV2017:07:31 12:45:38
p4
aV2017:07:31 12:47:06
p5
aV2017:07:31 12:47:56
p6
aV2017:07:31 12:48:04
p7
aV2017:07:31 13:01:34
p8
aV2017:07:31 13:04:02
p9
aV2017:07:31 13:24:52
p10
aV2017:07:31 13:26:06
p11
aV2017:07:31 13:26:14
p12
aV2017:07:31 13:28:56
p13
aV2017:07:31 14:19:14
p14
aV2017:07:31 14:30:42
p15
aV2017:07:31 14:51:10
p16
aV2017:07:31 15:12:34
p17
aV2017:07:31 15:13:24
p18
aV2017:07:31 15:13:46
p19
ag19
aV2017:07:31 15:13:58
p20
ag20
aV2017:07:31 15:14:12
p21
aV2017:07:31 15:14:20
p22
aV2017:07:31 15:14:22
p23
aV2017:07:31 15:14:34
p24
aV2017:07:31 15:14:40
p25
aV2017:07:31 15:15:06
p26
aV2017:07:31 16:08:06
p27
aV2017:07:31 16:08:14
p28
aV2017:07:31 16:09:04
p29
aV2017:07:31 16:09:56
p30
aV2017:07:31 16:14:12
p31
aV2017:07:31 16:14:44
p32
aV2017:07:31 16:15:48
p33
aV2017:07:31 16:40:34
p34
aV2017:07:31 17:25:10
p35
aV2017:07:31 17:25:18
p36
aV2017:07:31 17:25:26
p37
aV2017:07:31 17:25:30
p38
aV2017:07:31 17:26:32
p39
aV2017:07:31 17:26:46
p40
aV2017:07:31 17:26:54
p41
aV2017:07:31 17:27:04
p42
aV2017:07:31 17:27:46
p43
aV2017:07:31 17:27:58
p44
a.