(lp0
V2017:08:01 11:07:43
p1
aV2017:08:01 11:52:22
p2
aV2017:08:01 11:53:10
p3
aV2017:08:01 11:53:28
p4
aV2017:08:01 11:54:54
p5
aV2017:08:01 11:55:14
p6
aV2017:08:01 11:55:38
p7
aV2017:08:01 11:56:06
p8
aV2017:08:01 12:27:24
p9
aV2017:08:01 12:37:44
p10
aV2017:08:01 13:04:06
p11
aV2017:08:01 14:15:46
p12
aV2017:08:01 14:38:52
p13
aV2017:08:01 15:17:14
p14
aV2017:08:01 15:17:20
p15
ag15
ag15
aV2017:08:01 15:17:30
p16
aV2017:08:01 15:49:18
p17
aV2017:08:01 17:15:42
p18
aV2017:08:01 17:20:00
p19
aV2017:08:01 17:20:08
p20
aV2017:08:01 17:20:24
p21
aV2017:08:01 18:17:54
p22
a.