(lp0
V2017:07:27 11:12:28
p1
aV2017:07:27 11:12:36
p2
aV2017:07:27 11:21:40
p3
aV2017:07:27 11:21:58
p4
aV2017:07:27 11:22:02
p5
aV2017:07:27 11:22:12
p6
aV2017:07:27 11:22:18
p7
aV2017:07:27 11:41:58
p8
aV2017:07:27 11:43:28
p9
aV2017:07:27 12:13:08
p10
aV2017:07:27 15:12:16
p11
aV2017:07:27 15:13:22
p12
aV2017:07:27 15:13:42
p13
aV2017:07:27 15:13:50
p14
aV2017:07:27 15:14:04
p15
aV2017:07:27 15:14:08
p16
aV2017:07:27 15:14:12
p17
aV2017:07:27 15:14:16
p18
a.