(lp0
V2017:09:24 12:06:35
p1
aV2017:09:24 12:06:47
p2
aV2017:09:24 12:07:05
p3
aV2017:09:24 12:07:27
p4
aV2017:09:24 12:21:07
p5
ag5
aV2017:09:24 12:21:21
p6
aV2017:09:24 12:24:21
p7
aV2017:09:24 12:24:31
p8
aV2017:09:24 12:24:33
p9
aV2017:09:24 12:24:51
p10
aV2017:09:24 12:24:53
p11
aV2017:09:24 12:24:55
p12
aV2017:09:24 12:25:01
p13
aV2017:09:24 12:25:03
p14
aV2017:09:24 12:25:21
p15
aV2017:09:24 12:25:27
p16
aV2017:09:24 12:25:31
p17
aV2017:09:24 12:25:35
p18
aV2017:09:24 12:25:53
p19
aV2017:09:24 12:26:03
p20
aV2017:09:24 12:26:21
p21
aV2017:09:24 12:26:39
p22
aV2017:09:24 12:26:49
p23
aV2017:09:24 12:27:05
p24
aV2017:09:24 12:27:11
p25
aV2017:09:24 12:27:35
p26
aV2017:09:24 12:27:49
p27
aV2017:09:24 12:28:57
p28
aV2017:09:24 12:29:19
p29
aV2017:09:24 12:29:25
p30
aV2017:09:24 12:29:27
p31
aV2017:09:24 12:36:49
p32
aV2017:09:24 12:41:47
p33
aV2017:09:24 12:41:51
p34
aV2017:09:24 12:41:57
p35
aV2017:09:24 12:42:05
p36
aV2017:09:24 12:42:19
p37
aV2017:09:24 12:42:31
p38
aV2017:09:24 12:43:13
p39
aV2017:09:24 12:43:27
p40
aV2017:09:24 12:43:39
p41
aV2017:09:24 12:43:59
p42
aV2017:09:24 12:46:33
p43
aV2017:09:24 12:49:11
p44
aV2017:09:24 12:49:13
p45
aV2017:09:24 12:57:51
p46
aV2017:09:24 12:57:59
p47
aV2017:09:24 12:58:19
p48
a.