(lp0
V2017:08:02 10:46:05
p1
aV2017:08:02 10:46:43
p2
aV2017:08:02 12:05:47
p3
aV2017:08:02 12:06:01
p4
aV2017:08:02 12:06:21
p5
aV2017:08:02 12:21:23
p6
aV2017:08:02 13:17:01
p7
aV2017:08:02 13:46:13
p8
aV2017:08:02 13:52:15
p9
aV2017:08:02 13:54:15
p10
aV2017:08:02 14:18:05
p11
aV2017:08:02 16:00:39
p12
aV2017:08:02 16:01:29
p13
aV2017:08:02 16:15:01
p14
a.