(lp0
V2017:07:25 11:31:50
p1
aV2017:07:25 12:06:44
p2
aV2017:07:25 12:08:56
p3
aV2017:07:25 12:09:00
p4
aV2017:07:25 12:09:12
p5
aV2017:07:25 12:09:28
p6
aV2017:07:25 12:09:38
p7
aV2017:07:25 12:09:40
p8
aV2017:07:25 12:09:46
p9
aV2017:07:25 12:09:48
p10
aV2017:07:25 12:10:13
p11
aV2017:07:25 12:10:42
p12
aV2017:07:25 12:12:40
p13
aV2017:07:25 12:12:46
p14
aV2017:07:25 13:02:14
p15
aV2017:07:25 13:02:24
p16
aV2017:07:25 13:02:31
p17
aV2017:07:25 13:02:54
p18
aV2017:07:25 13:48:02
p19
aV2017:07:25 13:48:08
p20
aV2017:07:25 13:48:20
p21
aV2017:07:25 13:55:54
p22
aV2017:07:25 13:55:58
p23
aV2017:07:25 13:56:08
p24
aV2017:07:25 14:11:53
p25
aV2017:07:25 14:12:20
p26
aV2017:07:25 14:12:29
p27
aV2017:07:25 14:14:56
p28
aV2017:07:25 14:15:04
p29
aV2017:07:25 14:15:36
p30
aV2017:07:25 14:15:50
p31
aV2017:07:25 14:17:17
p32
aV2017:07:25 14:17:30
p33
a.