(lp0
V2017:08:04 10:23:54
p1
aV2017:08:04 11:19:28
p2
aV2017:08:04 11:38:38
p3
aV2017:08:04 11:40:40
p4
aV2017:08:04 12:42:44
p5
aV2017:08:04 12:45:00
p6
aV2017:08:04 12:57:00
p7
aV2017:08:04 12:57:06
p8
aV2017:08:04 12:57:30
p9
aV2017:08:04 12:58:00
p10
aV2017:08:04 12:58:52
p11
aV2017:08:04 12:59:16
p12
aV2017:08:04 13:00:48
p13
aV2017:08:04 13:01:34
p14
aV2017:08:04 13:03:18
p15
aV2017:08:04 13:06:08
p16
ag16
aV2017:08:04 13:08:24
p17
aV2017:08:04 13:15:54
p18
aV2017:08:04 13:43:32
p19
aV2017:08:04 14:05:34
p20
aV2017:08:04 14:35:10
p21
aV2017:08:04 14:51:38
p22
aV2017:08:04 14:55:18
p23
aV2017:08:04 14:55:48
p24
aV2017:08:04 14:56:04
p25
aV2017:08:04 14:56:32
p26
aV2017:08:04 14:57:18
p27
aV2017:08:04 14:58:26
p28
aV2017:08:04 14:58:34
p29
aV2017:08:04 15:13:20
p30
aV2017:08:04 15:13:32
p31
aV2017:08:04 15:13:54
p32
aV2017:08:04 15:14:16
p33
aV2017:08:04 15:14:20
p34
aV2017:08:04 15:16:14
p35
aV2017:08:04 15:16:18
p36
aV2017:08:04 15:17:00
p37
aV2017:08:04 15:18:24
p38
aV2017:08:04 15:20:58
p39
aV2017:08:04 15:21:16
p40
aV2017:08:04 15:22:06
p41
aV2017:08:04 15:23:02
p42
aV2017:08:04 15:26:02
p43
aV2017:08:04 15:26:30
p44
aV2017:08:04 15:27:38
p45
aV2017:08:04 15:29:10
p46
aV2017:08:04 15:29:36
p47
aV2017:08:04 15:29:52
p48
aV2017:08:04 15:29:56
p49
ag49
aV2017:08:04 15:30:36
p50
aV2017:08:04 15:30:46
p51
aV2017:08:04 15:31:02
p52
aV2017:08:04 15:31:06
p53
aV2017:08:04 15:31:18
p54
aV2017:08:04 15:32:16
p55
aV2017:08:04 15:33:30
p56
aV2017:08:04 15:34:10
p57
aV2017:08:04 17:04:59
p58
aV2017:08:04 18:45:29
p59
a.