(lp0
V2017:08:03 11:55:28
p1
aV2017:08:03 12:08:04
p2
ag2
aV2017:08:03 12:08:12
p3
aV2017:08:03 12:08:18
p4
aV2017:08:03 12:08:22
p5
aV2017:08:03 12:08:24
p6
aV2017:08:03 12:08:32
p7
aV2017:08:03 12:08:50
p8
aV2017:08:03 12:08:58
p9
aV2017:08:03 12:36:20
p10
aV2017:08:03 12:37:06
p11
aV2017:08:03 12:37:08
p12
aV2017:08:03 12:37:20
p13
aV2017:08:03 13:17:52
p14
aV2017:08:03 13:34:54
p15
a.