(lp0
(I1
V2017:08:01 10:51:39
p1
(dp2
V1
p3
(dp4
Vcoords
p5
(lp6
I272
aI208
aI320
aI368
asVprob
p7
I94
sstp8
a(I1
V2017:08:01 10:52:57
p9
(dp10
V1
p11
(dp12
Vcoords
p13
(lp14
I144
aI208
aI192
aI384
asVprob
p15
I94
sstp16
a(I1
V2017:08:01 10:53:45
p17
(dp18
V1
p19
(dp20
Vcoords
p21
(lp22
I240
aI240
aI288
aI368
asVprob
p23
I95
sstp24
a(I1
V2017:08:01 10:58:15
p25
(dp26
V1
p27
(dp28
Vcoords
p29
(lp30
I256
aI208
aI304
aI352
asVprob
p31
I97
sstp32
a(I1
V2017:08:01 10:59:57
p33
(dp34
V1
p35
(dp36
Vcoords
p37
(lp38
I384
aI208
aI432
aI368
asVprob
p39
I97
sstp40
a(I1
V2017:08:01 11:00:49
p41
(dp42
V2
p43
(dp44
Vcoords
p45
(lp46
I288
aI240
aI336
aI336
asVprob
p47
I88
sstp48
a(I1
V2017:08:01 11:07:33
p49
(dp50
V1
p51
(dp52
Vcoords
p53
(lp54
I464
aI224
aI512
aI352
asVprob
p55
I97
sstp56
a(I1
V2017:08:01 11:07:39
p57
(dp58
V1
p59
(dp60
Vcoords
p61
(lp62
I592
aI256
aI656
aI384
asVprob
p63
I82
sstp64
a(I1
V2017:08:01 11:07:43
p65
(dp66
V1
p67
(dp68
Vcoords
p69
(lp70
I592
aI272
aI656
aI400
asVprob
p71
I85
sstp72
a(I1
V2017:08:01 11:08:31
p73
(dp74
V1
p75
(dp76
Vcoords
p77
(lp78
I320
aI240
aI368
aI368
asVprob
p79
I97
sstp80
a(I1
V2017:08:01 11:08:35
p81
(dp82
V1
p83
(dp84
Vcoords
p85
(lp86
I560
aI256
aI608
aI352
asVprob
p87
I93
sstp88
a(I1
V2017:08:01 11:10:59
p89
(dp90
V1
p91
(dp92
Vcoords
p93
(lp94
I288
aI224
aI336
aI352
asVprob
p95
I97
sstp96
a(I1
V2017:08:01 11:11:07
p97
(dp98
V4
p99
(dp100
Vcoords
p101
(lp102
I240
aI224
aI288
aI384
asVprob
p103
I91
sstp104
a(I1
V2017:08:01 11:14:01
p105
(dp106
V1
p107
(dp108
Vcoords
p109
(lp110
I336
aI208
aI384
aI368
asVprob
p111
I96
sstp112
a(I1
V2017:08:01 11:15:05
p113
(dp114
V1
p115
(dp116
Vcoords
p117
(lp118
I256
aI160
aI368
aI432
asVprob
p119
I99
sstp120
a(I1
V2017:08:01 11:15:37
p121
(dp122
V1
p123
(dp124
Vcoords
p125
(lp126
I304
aI224
aI352
aI368
asVprob
p127
I98
sstp128
a(I1
V2017:08:01 11:15:57
p129
(dp130
V1
p131
(dp132
Vcoords
p133
(lp134
I224
aI240
aI272
aI368
asVprob
p135
I96
sstp136
a(I1
V2017:08:01 11:16:07
p137
(dp138
V1
p139
(dp140
Vcoords
p141
(lp142
I240
aI224
aI288
aI368
asVprob
p143
I98
sstp144
a(I1
V2017:08:01 11:18:31
p145
(dp146
V1
p147
(dp148
Vcoords
p149
(lp150
I304
aI192
aI432
aI448
asVprob
p151
I99
sstp152
a(I1
V2017:08:01 11:23:09
p153
(dp154
V1
p155
(dp156
Vcoords
p157
(lp158
I208
aI224
aI256
aI352
asVprob
p159
I91
sstp160
a(I1
V2017:08:01 11:24:41
p161
(dp162
V1
p163
(dp164
Vcoords
p165
(lp166
I176
aI208
aI224
aI352
asVprob
p167
I94
sstp168
a(I1
V2017:08:01 11:27:07
p169
(dp170
V2
p171
(dp172
Vcoords
p173
(lp174
I96
aI208
aI144
aI336
asVprob
p175
I85
sstp176
a(I1
V2017:08:01 11:30:59
p177
(dp178
V1
p179
(dp180
Vcoords
p181
(lp182
I0
aI224
aI176
aI592
asVprob
p183
I88
sstp184
a(I1
V2017:08:01 11:33:58
p185
(dp186
V4
p187
(dp188
Vcoords
p189
(lp190
I80
aI208
aI128
aI320
asVprob
p191
I82
sstp192
a(I1
V2017:08:01 11:34:10
p193
(dp194
V1
p195
(dp196
Vcoords
p197
(lp198
I320
aI192
aI368
aI352
asVprob
p199
I88
sstp200
a(I1
V2017:08:01 11:34:20
p201
(dp202
V1
p203
(dp204
Vcoords
p205
(lp206
I96
aI208
aI144
aI336
asVprob
p207
I96
sstp208
a(I1
V2017:08:01 11:34:26
p209
(dp210
V3
p211
(dp212
Vcoords
p213
(lp214
I144
aI208
aI192
aI336
asVprob
p215
I83
sstp216
a(I1
V2017:08:01 11:34:48
p217
(dp218
V2
p219
(dp220
Vcoords
p221
(lp222
I144
aI192
aI192
aI336
asVprob
p223
I91
sstp224
a(I1
V2017:08:01 11:39:18
p225
(dp226
V1
p227
(dp228
Vcoords
p229
(lp230
I256
aI192
aI304
aI336
asVprob
p231
I92
sstp232
a(I1
V2017:08:01 11:43:36
p233
(dp234
V2
p235
(dp236
Vcoords
p237
(lp238
I688
aI96
aI800
aI512
asVprob
p239
I86
sstp240
a(I3
V2017:08:01 11:44:10
p241
(dp242
V1
p243
(dp244
Vcoords
p245
(lp246
I96
aI240
aI144
aI368
asVprob
p247
I93
ssV3
p248
(dp249
Vcoords
p250
(lp251
I32
aI240
aI80
aI384
asVprob
p252
I80
ssV2
p253
(dp254
Vcoords
p255
(lp256
I160
aI240
aI208
aI368
asVprob
p257
I84
sstp258
a(I1
V2017:08:01 11:44:34
p259
(dp260
V1
p261
(dp262
Vcoords
p263
(lp264
I240
aI96
aI384
aI544
asVprob
p265
I96
sstp266
a(I1
V2017:08:01 11:44:50
p267
(dp268
V1
p269
(dp270
Vcoords
p271
(lp272
I320
aI240
aI368
aI368
asVprob
p273
I93
sstp274
a(I1
V2017:08:01 11:48:22
p275
(dp276
V1
p277
(dp278
Vcoords
p279
(lp280
I288
aI208
aI336
aI352
asVprob
p281
I97
sstp282
a(I1
V2017:08:01 11:49:12
p283
(dp284
V1
p285
(dp286
Vcoords
p287
(lp288
I288
aI192
aI336
aI336
asVprob
p289
I96
sstp290
a(I1
V2017:08:01 11:49:52
p291
(dp292
V1
p293
(dp294
Vcoords
p295
(lp296
I176
aI192
aI224
aI352
asVprob
p297
I95
sstp298
a(I1
V2017:08:01 11:50:22
p299
(dp300
V1
p301
(dp302
Vcoords
p303
(lp304
I64
aI240
aI112
aI368
asVprob
p305
I89
sstp306
a(I2
V2017:08:01 11:50:34
p307
(dp308
V1
p309
(dp310
Vcoords
p311
(lp312
I48
aI192
aI96
aI352
asVprob
p313
I90
ssV2
p314
(dp315
Vcoords
p316
(lp317
I32
aI208
aI80
aI368
asVprob
p318
I88
sstp319
a(I5
V2017:08:01 11:52:10
p320
(dp321
V1
p322
(dp323
Vcoords
p324
(lp325
I560
aI160
aI656
aI416
asVprob
p326
I98
ssV3
p327
(dp328
Vcoords
p329
(lp330
I720
aI192
aI784
aI352
asVprob
p331
I90
ssV2
p332
(dp333
Vcoords
p334
(lp335
I336
aI208
aI384
aI336
asVprob
p336
I97
ssV4
p337
(dp338
Vcoords
p339
(lp340
I656
aI224
aI704
aI336
asVprob
p341
I85
ssV6
p342
(dp343
Vcoords
p344
(lp345
I672
aI224
aI720
aI336
asVprob
p346
I81
sstp347
a(I2
V2017:08:01 11:52:30
p348
(dp349
V3
p350
(dp351
Vcoords
p352
(lp353
I48
aI224
aI96
aI352
asVprob
p354
I94
ssV2
p355
(dp356
Vcoords
p357
(lp358
I400
aI224
aI464
aI352
asVprob
p359
I94
sstp360
a(I1
V2017:08:01 11:52:38
p361
(dp362
V3
p363
(dp364
Vcoords
p365
(lp366
I48
aI224
aI96
aI352
asVprob
p367
I83
sstp368
a(I1
V2017:08:01 11:54:52
p369
(dp370
V1
p371
(dp372
Vcoords
p373
(lp374
I80
aI192
aI128
aI352
asVprob
p375
I97
sstp376
a(I1
V2017:08:01 11:55:44
p377
(dp378
V1
p379
(dp380
Vcoords
p381
(lp382
I256
aI144
aI368
aI416
asVprob
p383
I98
sstp384
a(I1
V2017:08:01 11:56:42
p385
(dp386
V2
p387
(dp388
Vcoords
p389
(lp390
I128
aI208
aI176
aI336
asVprob
p391
I86
sstp392
a(I1
V2017:08:01 11:56:48
p393
(dp394
V1
p395
(dp396
Vcoords
p397
(lp398
I128
aI208
aI176
aI336
asVprob
p399
I92
sstp400
a(I1
V2017:08:01 11:57:18
p401
(dp402
V1
p403
(dp404
Vcoords
p405
(lp406
I256
aI208
aI304
aI336
asVprob
p407
I83
sstp408
a(I1
V2017:08:01 11:58:58
p409
(dp410
V1
p411
(dp412
Vcoords
p413
(lp414
I112
aI208
aI160
aI352
asVprob
p415
I97
sstp416
a(I1
V2017:08:01 11:59:02
p417
(dp418
V1
p419
(dp420
Vcoords
p421
(lp422
I288
aI224
aI336
aI320
asVprob
p423
I88
sstp424
a(I2
V2017:08:01 11:59:24
p425
(dp426
V1
p427
(dp428
Vcoords
p429
(lp430
I224
aI208
aI272
aI352
asVprob
p431
I92
ssV2
p432
(dp433
Vcoords
p434
(lp435
I240
aI208
aI288
aI368
asVprob
p436
I81
sstp437
a(I1
V2017:08:01 11:59:52
p438
(dp439
V1
p440
(dp441
Vcoords
p442
(lp443
I400
aI112
aI560
aI464
asVprob
p444
I98
sstp445
a(I1
V2017:08:01 11:59:58
p446
(dp447
V2
p448
(dp449
Vcoords
p450
(lp451
I560
aI208
aI640
aI368
asVprob
p452
I96
sstp453
a(I1
V2017:08:01 12:00:04
p454
(dp455
V1
p456
(dp457
Vcoords
p458
(lp459
I528
aI208
aI592
aI352
asVprob
p460
I97
sstp461
a(I1
V2017:08:01 12:00:28
p462
(dp463
V1
p464
(dp465
Vcoords
p466
(lp467
I560
aI160
aI656
aI384
asVprob
p468
I99
sstp469
a(I1
V2017:08:01 12:00:44
p470
(dp471
V1
p472
(dp473
Vcoords
p474
(lp475
I544
aI192
aI640
aI400
asVprob
p476
I95
sstp477
a(I1
V2017:08:01 12:04:46
p478
(dp479
V1
p480
(dp481
Vcoords
p482
(lp483
I608
aI208
aI672
aI384
asVprob
p484
I94
sstp485
a(I1
V2017:08:01 12:04:58
p486
(dp487
V1
p488
(dp489
Vcoords
p490
(lp491
I32
aI192
aI80
aI352
asVprob
p492
I93
sstp493
a(I1
V2017:08:01 12:05:08
p494
(dp495
V2
p496
(dp497
Vcoords
p498
(lp499
I144
aI208
aI192
aI336
asVprob
p500
I87
sstp501
a(I1
V2017:08:01 12:05:12
p502
(dp503
V1
p504
(dp505
Vcoords
p506
(lp507
I176
aI208
aI224
aI352
asVprob
p508
I96
sstp509
a(I1
V2017:08:01 12:05:16
p510
(dp511
V2
p512
(dp513
Vcoords
p514
(lp515
I128
aI192
aI176
aI352
asVprob
p516
I85
sstp517
a(I1
V2017:08:01 12:05:30
p518
(dp519
V2
p520
(dp521
Vcoords
p522
(lp523
I128
aI224
aI176
aI352
asVprob
p524
I92
sstp525
a(I1
V2017:08:01 12:05:38
p526
(dp527
V1
p528
(dp529
Vcoords
p530
(lp531
I48
aI240
aI96
aI368
asVprob
p532
I91
sstp533
a(I1
V2017:08:01 12:05:46
p534
(dp535
V2
p536
(dp537
Vcoords
p538
(lp539
I48
aI240
aI96
aI368
asVprob
p540
I86
sstp541
a(I1
V2017:08:01 12:05:58
p542
(dp543
V1
p544
(dp545
Vcoords
p546
(lp547
I48
aI240
aI96
aI368
asVprob
p548
I92
sstp549
a(I1
V2017:08:01 12:06:02
p550
(dp551
V1
p552
(dp553
Vcoords
p554
(lp555
I48
aI240
aI96
aI368
asVprob
p556
I92
sstp557
a(I1
V2017:08:01 12:06:06
p558
(dp559
V1
p560
(dp561
Vcoords
p562
(lp563
I48
aI240
aI96
aI368
asVprob
p564
I86
sstp565
a(I1
V2017:08:01 12:06:30
p566
(dp567
V1
p568
(dp569
Vcoords
p570
(lp571
I48
aI240
aI96
aI368
asVprob
p572
I88
sstp573
a(I1
V2017:08:01 12:06:36
p574
(dp575
V1
p576
(dp577
Vcoords
p578
(lp579
I48
aI224
aI96
aI352
asVprob
p580
I92
sstp581
a(I2
V2017:08:01 12:06:52
p582
(dp583
V1
p584
(dp585
Vcoords
p586
(lp587
I48
aI240
aI96
aI368
asVprob
p588
I89
ssV2
p589
(dp590
Vcoords
p591
(lp592
I128
aI224
aI176
aI352
asVprob
p593
I83
sstp594
a(I1
V2017:08:01 12:06:56
p595
(dp596
V1
p597
(dp598
Vcoords
p599
(lp600
I48
aI224
aI96
aI352
asVprob
p601
I91
sstp602
a(I1
V2017:08:01 12:07:02
p603
(dp604
V1
p605
(dp606
Vcoords
p607
(lp608
I48
aI240
aI96
aI368
asVprob
p609
I85
sstp610
a(I1
V2017:08:01 12:07:06
p611
(dp612
V1
p613
(dp614
Vcoords
p615
(lp616
I48
aI240
aI96
aI368
asVprob
p617
I92
sstp618
a(I1
V2017:08:01 12:07:20
p619
(dp620
V1
p621
(dp622
Vcoords
p623
(lp624
I48
aI240
aI96
aI368
asVprob
p625
I90
sstp626
a(I1
V2017:08:01 12:07:24
p627
(dp628
V1
p629
(dp630
Vcoords
p631
(lp632
I128
aI224
aI176
aI368
asVprob
p633
I87
sstp634
a(I1
V2017:08:01 12:07:28
p635
(dp636
V1
p637
(dp638
Vcoords
p639
(lp640
I48
aI240
aI96
aI368
asVprob
p641
I92
sstp642
a(I1
V2017:08:01 12:08:06
p643
(dp644
V1
p645
(dp646
Vcoords
p647
(lp648
I48
aI240
aI96
aI368
asVprob
p649
I92
sstp650
a(I1
V2017:08:01 12:08:20
p651
(dp652
V2
p653
(dp654
Vcoords
p655
(lp656
I320
aI208
aI368
aI336
asVprob
p657
I81
sstp658
a(I1
V2017:08:01 12:08:34
p659
(dp660
V1
p661
(dp662
Vcoords
p663
(lp664
I48
aI240
aI96
aI368
asVprob
p665
I92
sstp666
a(I1
V2017:08:01 12:08:38
p667
(dp668
V2
p669
(dp670
Vcoords
p671
(lp672
I128
aI240
aI176
aI368
asVprob
p673
I84
sstp674
a(I2
V2017:08:01 12:08:44
p675
(dp676
V1
p677
(dp678
Vcoords
p679
(lp680
I48
aI240
aI96
aI368
asVprob
p681
I97
ssV3
p682
(dp683
Vcoords
p684
(lp685
I32
aI240
aI80
aI368
asVprob
p686
I87
sstp687
a(I2
V2017:08:01 12:08:48
p688
(dp689
V1
p690
(dp691
Vcoords
p692
(lp693
I48
aI240
aI96
aI368
asVprob
p694
I94
ssV2
p695
(dp696
Vcoords
p697
(lp698
I128
aI240
aI176
aI368
asVprob
p699
I88
sstp700
a(I2
V2017:08:01 12:09:02
p701
(dp702
V1
p703
(dp704
Vcoords
p705
(lp706
I384
aI128
aI480
aI416
asVprob
p707
I97
ssV2
p708
(dp709
Vcoords
p710
(lp711
I48
aI240
aI96
aI368
asVprob
p712
I93
sstp713
a(I1
V2017:08:01 12:09:18
p714
(dp715
V1
p716
(dp717
Vcoords
p718
(lp719
I48
aI240
aI96
aI368
asVprob
p720
I95
sstp721
a(I1
V2017:08:01 12:09:26
p722
(dp723
V1
p724
(dp725
Vcoords
p726
(lp727
I48
aI240
aI96
aI368
asVprob
p728
I93
sstp729
a(I1
V2017:08:01 12:09:44
p730
(dp731
V1
p732
(dp733
Vcoords
p734
(lp735
I48
aI240
aI96
aI368
asVprob
p736
I90
sstp737
a(I1
V2017:08:01 12:09:48
p738
(dp739
V1
p740
(dp741
Vcoords
p742
(lp743
I48
aI224
aI96
aI352
asVprob
p744
I94
sstp745
a(I1
V2017:08:01 12:09:52
p746
(dp747
V1
p748
(dp749
Vcoords
p750
(lp751
I48
aI224
aI96
aI352
asVprob
p752
I97
sstp753
a(I1
V2017:08:01 12:09:58
p754
(dp755
V1
p756
(dp757
Vcoords
p758
(lp759
I48
aI240
aI96
aI368
asVprob
p760
I93
sstp761
a(I2
V2017:08:01 12:10:08
p762
(dp763
V1
p764
(dp765
Vcoords
p766
(lp767
I272
aI176
aI336
aI368
asVprob
p768
I97
ssV2
p769
(dp770
Vcoords
p771
(lp772
I48
aI240
aI96
aI368
asVprob
p773
I85
sstp774
a(I1
V2017:08:01 12:10:26
p775
(dp776
V2
p777
(dp778
Vcoords
p779
(lp780
I128
aI240
aI176
aI368
asVprob
p781
I90
sstp782
a(I2
V2017:08:01 12:10:46
p783
(dp784
V1
p785
(dp786
Vcoords
p787
(lp788
I208
aI208
aI256
aI352
asVprob
p789
I93
ssV2
p790
(dp791
Vcoords
p792
(lp793
I112
aI224
aI160
aI352
asVprob
p794
I87
sstp795
a(I1
V2017:08:01 12:11:14
p796
(dp797
V3
p798
(dp799
Vcoords
p800
(lp801
I112
aI224
aI160
aI352
asVprob
p802
I86
sstp803
a(I1
V2017:08:01 12:11:20
p804
(dp805
V1
p806
(dp807
Vcoords
p808
(lp809
I272
aI192
aI336
aI352
asVprob
p810
I96
sstp811
a(I2
V2017:08:01 12:11:26
p812
(dp813
V1
p814
(dp815
Vcoords
p816
(lp817
I128
aI224
aI176
aI352
asVprob
p818
I93
ssV3
p819
(dp820
Vcoords
p821
(lp822
I256
aI208
aI304
aI352
asVprob
p823
I82
sstp824
a(I1
V2017:08:01 12:11:48
p825
(dp826
V1
p827
(dp828
Vcoords
p829
(lp830
I320
aI128
aI560
aI496
asVprob
p831
I97
sstp832
a(I1
V2017:08:01 12:11:58
p833
(dp834
V1
p835
(dp836
Vcoords
p837
(lp838
I128
aI224
aI176
aI368
asVprob
p839
I94
sstp840
a(I1
V2017:08:01 12:12:08
p841
(dp842
V1
p843
(dp844
Vcoords
p845
(lp846
I48
aI240
aI96
aI368
asVprob
p847
I96
sstp848
a(I1
V2017:08:01 12:12:14
p849
(dp850
V2
p851
(dp852
Vcoords
p853
(lp854
I128
aI224
aI176
aI352
asVprob
p855
I85
sstp856
a(I2
V2017:08:01 12:12:24
p857
(dp858
V1
p859
(dp860
Vcoords
p861
(lp862
I48
aI224
aI96
aI352
asVprob
p863
I92
ssV2
p864
(dp865
Vcoords
p866
(lp867
I128
aI240
aI176
aI368
asVprob
p868
I87
sstp869
a(I1
V2017:08:01 12:12:30
p870
(dp871
V1
p872
(dp873
Vcoords
p874
(lp875
I128
aI224
aI176
aI352
asVprob
p876
I87
sstp877
a(I1
V2017:08:01 12:12:40
p878
(dp879
V2
p880
(dp881
Vcoords
p882
(lp883
I128
aI224
aI176
aI352
asVprob
p884
I89
sstp885
a(I1
V2017:08:01 12:12:46
p886
(dp887
V1
p888
(dp889
Vcoords
p890
(lp891
I128
aI240
aI176
aI368
asVprob
p892
I83
sstp893
a(I1
V2017:08:01 12:13:06
p894
(dp895
V1
p896
(dp897
Vcoords
p898
(lp899
I128
aI224
aI176
aI352
asVprob
p900
I86
sstp901
a(I1
V2017:08:01 12:13:44
p902
(dp903
V2
p904
(dp905
Vcoords
p906
(lp907
I128
aI224
aI176
aI352
asVprob
p908
I80
sstp909
a(I1
V2017:08:01 12:14:06
p910
(dp911
V2
p912
(dp913
Vcoords
p914
(lp915
I48
aI224
aI96
aI352
asVprob
p916
I89
sstp917
a(I2
V2017:08:01 12:14:10
p918
(dp919
V1
p920
(dp921
Vcoords
p922
(lp923
I48
aI224
aI96
aI352
asVprob
p924
I88
ssV3
p925
(dp926
Vcoords
p927
(lp928
I128
aI224
aI176
aI352
asVprob
p929
I83
sstp930
a(I1
V2017:08:01 12:14:38
p931
(dp932
V2
p933
(dp934
Vcoords
p935
(lp936
I48
aI240
aI96
aI368
asVprob
p937
I85
sstp938
a(I1
V2017:08:01 12:15:08
p939
(dp940
V1
p941
(dp942
Vcoords
p943
(lp944
I128
aI224
aI176
aI352
asVprob
p945
I92
sstp946
a(I1
V2017:08:01 12:15:38
p947
(dp948
V1
p949
(dp950
Vcoords
p951
(lp952
I128
aI224
aI176
aI352
asVprob
p953
I83
sstp954
a(I2
V2017:08:01 12:15:48
p955
(dp956
V1
p957
(dp958
Vcoords
p959
(lp960
I272
aI192
aI320
aI336
asVprob
p961
I97
ssV3
p962
(dp963
Vcoords
p964
(lp965
I352
aI160
aI400
aI368
asVprob
p966
I90
sstp967
a(I1
V2017:08:01 12:16:00
p968
(dp969
V1
p970
(dp971
Vcoords
p972
(lp973
I48
aI240
aI96
aI368
asVprob
p974
I89
sstp975
a(I1
V2017:08:01 12:16:06
p976
(dp977
V2
p978
(dp979
Vcoords
p980
(lp981
I128
aI240
aI176
aI368
asVprob
p982
I87
sstp983
a(I1
V2017:08:01 12:16:12
p984
(dp985
V1
p986
(dp987
Vcoords
p988
(lp989
I48
aI224
aI96
aI352
asVprob
p990
I88
sstp991
a(I1
V2017:08:01 12:16:38
p992
(dp993
V1
p994
(dp995
Vcoords
p996
(lp997
I48
aI224
aI96
aI352
asVprob
p998
I83
sstp999
a(I1
V2017:08:01 12:16:48
p1000
(dp1001
V1
p1002
(dp1003
Vcoords
p1004
(lp1005
I128
aI224
aI176
aI352
asVprob
p1006
I86
sstp1007
a(I1
V2017:08:01 12:17:08
p1008
(dp1009
V1
p1010
(dp1011
Vcoords
p1012
(lp1013
I128
aI224
aI176
aI352
asVprob
p1014
I92
sstp1015
a(I1
V2017:08:01 12:17:22
p1016
(dp1017
V2
p1018
(dp1019
Vcoords
p1020
(lp1021
I48
aI224
aI96
aI352
asVprob
p1022
I83
sstp1023
a(I2
V2017:08:01 12:17:30
p1024
(dp1025
V1
p1026
(dp1027
Vcoords
p1028
(lp1029
I48
aI224
aI96
aI352
asVprob
p1030
I93
ssV2
p1031
(dp1032
Vcoords
p1033
(lp1034
I128
aI224
aI176
aI352
asVprob
p1035
I93
sstp1036
a(I2
V2017:08:01 12:17:44
p1037
(dp1038
V1
p1039
(dp1040
Vcoords
p1041
(lp1042
I736
aI240
aI784
aI320
asVprob
p1043
I86
ssV2
p1044
(dp1045
Vcoords
p1046
(lp1047
I128
aI240
aI176
aI368
asVprob
p1048
I84
sstp1049
a(I1
V2017:08:01 12:18:12
p1050
(dp1051
V2
p1052
(dp1053
Vcoords
p1054
(lp1055
I128
aI224
aI176
aI352
asVprob
p1056
I85
sstp1057
a(I1
V2017:08:01 12:18:16
p1058
(dp1059
V2
p1060
(dp1061
Vcoords
p1062
(lp1063
I128
aI224
aI176
aI368
asVprob
p1064
I93
sstp1065
a(I1
V2017:08:01 12:18:20
p1066
(dp1067
V2
p1068
(dp1069
Vcoords
p1070
(lp1071
I128
aI224
aI176
aI352
asVprob
p1072
I83
sstp1073
a(I1
V2017:08:01 12:18:34
p1074
(dp1075
V2
p1076
(dp1077
Vcoords
p1078
(lp1079
I128
aI224
aI176
aI352
asVprob
p1080
I81
sstp1081
a(I1
V2017:08:01 12:18:42
p1082
(dp1083
V1
p1084
(dp1085
Vcoords
p1086
(lp1087
I128
aI224
aI176
aI352
asVprob
p1088
I87
sstp1089
a(I1
V2017:08:01 12:19:10
p1090
(dp1091
V3
p1092
(dp1093
Vcoords
p1094
(lp1095
I752
aI224
aI800
aI336
asVprob
p1096
I86
sstp1097
a(I1
V2017:08:01 12:19:20
p1098
(dp1099
V2
p1100
(dp1101
Vcoords
p1102
(lp1103
I128
aI224
aI176
aI352
asVprob
p1104
I89
sstp1105
a(I1
V2017:08:01 12:19:28
p1106
(dp1107
V1
p1108
(dp1109
Vcoords
p1110
(lp1111
I48
aI224
aI96
aI352
asVprob
p1112
I93
sstp1113
a(I1
V2017:08:01 12:19:40
p1114
(dp1115
V1
p1116
(dp1117
Vcoords
p1118
(lp1119
I48
aI224
aI96
aI352
asVprob
p1120
I93
sstp1121
a(I1
V2017:08:01 12:19:52
p1122
(dp1123
V1
p1124
(dp1125
Vcoords
p1126
(lp1127
I48
aI224
aI96
aI352
asVprob
p1128
I94
sstp1129
a(I1
V2017:08:01 12:20:02
p1130
(dp1131
V2
p1132
(dp1133
Vcoords
p1134
(lp1135
I128
aI224
aI176
aI352
asVprob
p1136
I87
sstp1137
a(I1
V2017:08:01 12:20:14
p1138
(dp1139
V2
p1140
(dp1141
Vcoords
p1142
(lp1143
I128
aI224
aI176
aI352
asVprob
p1144
I83
sstp1145
a(I1
V2017:08:01 12:20:22
p1146
(dp1147
V2
p1148
(dp1149
Vcoords
p1150
(lp1151
I128
aI224
aI176
aI352
asVprob
p1152
I86
sstp1153
a(I1
V2017:08:01 12:20:40
p1154
(dp1155
V2
p1156
(dp1157
Vcoords
p1158
(lp1159
I128
aI224
aI176
aI352
asVprob
p1160
I94
sstp1161
a(I1
V2017:08:01 12:20:50
p1162
(dp1163
V1
p1164
(dp1165
Vcoords
p1166
(lp1167
I128
aI224
aI176
aI352
asVprob
p1168
I92
sstp1169
a(I1
V2017:08:01 12:21:08
p1170
(dp1171
V2
p1172
(dp1173
Vcoords
p1174
(lp1175
I128
aI240
aI176
aI368
asVprob
p1176
I89
sstp1177
a(I1
V2017:08:01 12:21:20
p1178
(dp1179
V4
p1180
(dp1181
Vcoords
p1182
(lp1183
I128
aI240
aI176
aI368
asVprob
p1184
I80
sstp1185
a(I1
V2017:08:01 12:21:30
p1186
(dp1187
V3
p1188
(dp1189
Vcoords
p1190
(lp1191
I144
aI240
aI192
aI368
asVprob
p1192
I84
sstp1193
a(I1
V2017:08:01 12:21:56
p1194
(dp1195
V1
p1196
(dp1197
Vcoords
p1198
(lp1199
I16
aI64
aI160
aI464
asVprob
p1200
I97
sstp1201
a(I1
V2017:08:01 12:22:06
p1202
(dp1203
V1
p1204
(dp1205
Vcoords
p1206
(lp1207
I128
aI224
aI176
aI352
asVprob
p1208
I87
sstp1209
a(I1
V2017:08:01 12:22:12
p1210
(dp1211
V1
p1212
(dp1213
Vcoords
p1214
(lp1215
I128
aI224
aI176
aI368
asVprob
p1216
I91
sstp1217
a(I1
V2017:08:01 12:22:18
p1218
(dp1219
V1
p1220
(dp1221
Vcoords
p1222
(lp1223
I128
aI240
aI176
aI368
asVprob
p1224
I88
sstp1225
a(I2
V2017:08:01 12:22:46
p1226
(dp1227
V1
p1228
(dp1229
Vcoords
p1230
(lp1231
I272
aI192
aI336
aI384
asVprob
p1232
I97
ssV3
p1233
(dp1234
Vcoords
p1235
(lp1236
I128
aI224
aI176
aI352
asVprob
p1237
I88
sstp1238
a(I1
V2017:08:01 12:22:50
p1239
(dp1240
V2
p1241
(dp1242
Vcoords
p1243
(lp1244
I128
aI240
aI176
aI368
asVprob
p1245
I88
sstp1246
a(I1
V2017:08:01 12:22:58
p1247
(dp1248
V1
p1249
(dp1250
Vcoords
p1251
(lp1252
I128
aI224
aI176
aI368
asVprob
p1253
I90
sstp1254
a(I1
V2017:08:01 12:23:26
p1255
(dp1256
V1
p1257
(dp1258
Vcoords
p1259
(lp1260
I48
aI224
aI96
aI352
asVprob
p1261
I82
sstp1262
a(I2
V2017:08:01 12:23:30
p1263
(dp1264
V3
p1265
(dp1266
Vcoords
p1267
(lp1268
I64
aI240
aI112
aI368
asVprob
p1269
I87
ssV4
p1270
(dp1271
Vcoords
p1272
(lp1273
I48
aI224
aI96
aI352
asVprob
p1274
I82
sstp1275
a(I1
V2017:08:01 12:23:38
p1276
(dp1277
V2
p1278
(dp1279
Vcoords
p1280
(lp1281
I128
aI240
aI176
aI368
asVprob
p1282
I90
sstp1283
a(I1
V2017:08:01 12:24:00
p1284
(dp1285
V1
p1286
(dp1287
Vcoords
p1288
(lp1289
I48
aI240
aI96
aI368
asVprob
p1290
I87
sstp1291
a(I1
V2017:08:01 12:24:04
p1292
(dp1293
V1
p1294
(dp1295
Vcoords
p1296
(lp1297
I48
aI224
aI96
aI352
asVprob
p1298
I95
sstp1299
a(I1
V2017:08:01 12:24:10
p1300
(dp1301
V3
p1302
(dp1303
Vcoords
p1304
(lp1305
I128
aI224
aI176
aI352
asVprob
p1306
I80
sstp1307
a(I1
V2017:08:01 12:24:16
p1308
(dp1309
V1
p1310
(dp1311
Vcoords
p1312
(lp1313
I48
aI240
aI96
aI368
asVprob
p1314
I92
sstp1315
a(I1
V2017:08:01 12:24:24
p1316
(dp1317
V1
p1318
(dp1319
Vcoords
p1320
(lp1321
I48
aI240
aI96
aI368
asVprob
p1322
I91
sstp1323
a(I1
V2017:08:01 12:24:28
p1324
(dp1325
V1
p1326
(dp1327
Vcoords
p1328
(lp1329
I48
aI224
aI96
aI352
asVprob
p1330
I92
sstp1331
a(I1
V2017:08:01 12:24:38
p1332
(dp1333
V1
p1334
(dp1335
Vcoords
p1336
(lp1337
I48
aI224
aI96
aI352
asVprob
p1338
I92
sstp1339
a(I2
V2017:08:01 12:24:44
p1340
(dp1341
V3
p1342
(dp1343
Vcoords
p1344
(lp1345
I128
aI224
aI176
aI352
asVprob
p1346
I86
ssV2
p1347
(dp1348
Vcoords
p1349
(lp1350
I48
aI224
aI96
aI352
asVprob
p1351
I92
sstp1352
a(I1
V2017:08:01 12:25:00
p1353
(dp1354
V1
p1355
(dp1356
Vcoords
p1357
(lp1358
I128
aI224
aI176
aI368
asVprob
p1359
I90
sstp1360
a(I1
V2017:08:01 12:25:04
p1361
(dp1362
V1
p1363
(dp1364
Vcoords
p1365
(lp1366
I128
aI224
aI176
aI352
asVprob
p1367
I81
sstp1368
a(I1
V2017:08:01 12:25:12
p1369
(dp1370
V1
p1371
(dp1372
Vcoords
p1373
(lp1374
I128
aI240
aI176
aI368
asVprob
p1375
I89
sstp1376
a(I1
V2017:08:01 12:25:30
p1377
(dp1378
V1
p1379
(dp1380
Vcoords
p1381
(lp1382
I128
aI224
aI176
aI352
asVprob
p1383
I83
sstp1384
a(I1
V2017:08:01 12:25:50
p1385
(dp1386
V2
p1387
(dp1388
Vcoords
p1389
(lp1390
I128
aI224
aI176
aI352
asVprob
p1391
I88
sstp1392
a(I1
V2017:08:01 12:25:54
p1393
(dp1394
V2
p1395
(dp1396
Vcoords
p1397
(lp1398
I224
aI208
aI272
aI336
asVprob
p1399
I95
sstp1400
a(I1
V2017:08:01 12:26:00
p1401
(dp1402
V2
p1403
(dp1404
Vcoords
p1405
(lp1406
I576
aI272
aI624
aI352
asVprob
p1407
I85
sstp1408
a(I1
V2017:08:01 12:26:16
p1409
(dp1410
V1
p1411
(dp1412
Vcoords
p1413
(lp1414
I144
aI224
aI192
aI352
asVprob
p1415
I88
sstp1416
a(I1
V2017:08:01 12:26:32
p1417
(dp1418
V2
p1419
(dp1420
Vcoords
p1421
(lp1422
I144
aI240
aI192
aI368
asVprob
p1423
I88
sstp1424
a(I1
V2017:08:01 12:26:38
p1425
(dp1426
V1
p1427
(dp1428
Vcoords
p1429
(lp1430
I528
aI192
aI608
aI384
asVprob
p1431
I97
sstp1432
a(I1
V2017:08:01 12:27:04
p1433
(dp1434
V1
p1435
(dp1436
Vcoords
p1437
(lp1438
I576
aI256
aI624
aI336
asVprob
p1439
I93
sstp1440
a(I3
V2017:08:01 12:27:39
p1441
(dp1442
V1
p1443
(dp1444
Vcoords
p1445
(lp1446
I128
aI224
aI176
aI352
asVprob
p1447
I90
ssV3
p1448
(dp1449
Vcoords
p1450
(lp1451
I592
aI224
aI640
aI336
asVprob
p1452
I84
ssV2
p1453
(dp1454
Vcoords
p1455
(lp1456
I576
aI224
aI624
aI336
asVprob
p1457
I88
sstp1458
a(I1
V2017:08:01 12:27:56
p1459
(dp1460
V1
p1461
(dp1462
Vcoords
p1463
(lp1464
I128
aI224
aI176
aI352
asVprob
p1465
I85
sstp1466
a(I1
V2017:08:01 12:28:06
p1467
(dp1468
V3
p1469
(dp1470
Vcoords
p1471
(lp1472
I112
aI224
aI160
aI352
asVprob
p1473
I80
sstp1474
a(I1
V2017:08:01 12:28:16
p1475
(dp1476
V1
p1477
(dp1478
Vcoords
p1479
(lp1480
I128
aI224
aI176
aI352
asVprob
p1481
I92
sstp1482
a(I1
V2017:08:01 12:28:34
p1483
(dp1484
V1
p1485
(dp1486
Vcoords
p1487
(lp1488
I128
aI224
aI176
aI352
asVprob
p1489
I94
sstp1490
a(I1
V2017:08:01 12:29:06
p1491
(dp1492
V1
p1493
(dp1494
Vcoords
p1495
(lp1496
I128
aI224
aI176
aI352
asVprob
p1497
I85
sstp1498
a(I1
V2017:08:01 12:29:30
p1499
(dp1500
V1
p1501
(dp1502
Vcoords
p1503
(lp1504
I128
aI224
aI176
aI352
asVprob
p1505
I80
sstp1506
a(I2
V2017:08:01 12:29:46
p1507
(dp1508
V3
p1509
(dp1510
Vcoords
p1511
(lp1512
I128
aI224
aI176
aI352
asVprob
p1513
I80
ssV2
p1514
(dp1515
Vcoords
p1516
(lp1517
I112
aI224
aI160
aI352
asVprob
p1518
I82
sstp1519
a(I1
V2017:08:01 12:29:50
p1520
(dp1521
V1
p1522
(dp1523
Vcoords
p1524
(lp1525
I128
aI224
aI176
aI352
asVprob
p1526
I80
sstp1527
a(I2
V2017:08:01 12:29:56
p1528
(dp1529
V1
p1530
(dp1531
Vcoords
p1532
(lp1533
I128
aI224
aI176
aI352
asVprob
p1534
I87
ssV2
p1535
(dp1536
Vcoords
p1537
(lp1538
I112
aI224
aI160
aI352
asVprob
p1539
I81
sstp1540
a(I1
V2017:08:01 12:30:00
p1541
(dp1542
V1
p1543
(dp1544
Vcoords
p1545
(lp1546
I128
aI224
aI176
aI352
asVprob
p1547
I86
sstp1548
a(I1
V2017:08:01 12:30:04
p1549
(dp1550
V1
p1551
(dp1552
Vcoords
p1553
(lp1554
I128
aI224
aI176
aI352
asVprob
p1555
I87
sstp1556
a(I1
V2017:08:01 12:30:10
p1557
(dp1558
V4
p1559
(dp1560
Vcoords
p1561
(lp1562
I128
aI224
aI176
aI352
asVprob
p1563
I80
sstp1564
a(I1
V2017:08:01 12:30:30
p1565
(dp1566
V1
p1567
(dp1568
Vcoords
p1569
(lp1570
I128
aI224
aI176
aI352
asVprob
p1571
I88
sstp1572
a(I1
V2017:08:01 12:30:40
p1573
(dp1574
V2
p1575
(dp1576
Vcoords
p1577
(lp1578
I128
aI224
aI176
aI352
asVprob
p1579
I90
sstp1580
a(I1
V2017:08:01 12:30:44
p1581
(dp1582
V1
p1583
(dp1584
Vcoords
p1585
(lp1586
I128
aI224
aI176
aI352
asVprob
p1587
I89
sstp1588
a(I1
V2017:08:01 12:30:53
p1589
(dp1590
V1
p1591
(dp1592
Vcoords
p1593
(lp1594
I128
aI224
aI176
aI352
asVprob
p1595
I94
sstp1596
a(I1
V2017:08:01 12:31:00
p1597
(dp1598
V1
p1599
(dp1600
Vcoords
p1601
(lp1602
I128
aI224
aI176
aI352
asVprob
p1603
I85
sstp1604
a(I1
V2017:08:01 12:31:16
p1605
(dp1606
V1
p1607
(dp1608
Vcoords
p1609
(lp1610
I128
aI224
aI176
aI352
asVprob
p1611
I90
sstp1612
a(I1
V2017:08:01 12:31:30
p1613
(dp1614
V1
p1615
(dp1616
Vcoords
p1617
(lp1618
I128
aI240
aI176
aI368
asVprob
p1619
I86
sstp1620
a(I1
V2017:08:01 12:31:44
p1621
(dp1622
V1
p1623
(dp1624
Vcoords
p1625
(lp1626
I128
aI224
aI176
aI352
asVprob
p1627
I80
sstp1628
a(I1
V2017:08:01 12:31:56
p1629
(dp1630
V1
p1631
(dp1632
Vcoords
p1633
(lp1634
I128
aI224
aI176
aI352
asVprob
p1635
I91
sstp1636
a(I1
V2017:08:01 12:32:08
p1637
(dp1638
V1
p1639
(dp1640
Vcoords
p1641
(lp1642
I128
aI224
aI176
aI368
asVprob
p1643
I90
sstp1644
a(I1
V2017:08:01 12:32:22
p1645
(dp1646
V1
p1647
(dp1648
Vcoords
p1649
(lp1650
I128
aI224
aI176
aI352
asVprob
p1651
I80
sstp1652
a(I1
V2017:08:01 12:32:26
p1653
(dp1654
V1
p1655
(dp1656
Vcoords
p1657
(lp1658
I496
aI208
aI544
aI336
asVprob
p1659
I98
sstp1660
a(I1
V2017:08:01 12:32:46
p1661
(dp1662
V1
p1663
(dp1664
Vcoords
p1665
(lp1666
I128
aI224
aI176
aI352
asVprob
p1667
I89
sstp1668
a(I1
V2017:08:01 12:32:54
p1669
(dp1670
V1
p1671
(dp1672
Vcoords
p1673
(lp1674
I128
aI224
aI176
aI352
asVprob
p1675
I90
sstp1676
a(I1
V2017:08:01 12:33:02
p1677
(dp1678
V2
p1679
(dp1680
Vcoords
p1681
(lp1682
I128
aI224
aI176
aI352
asVprob
p1683
I82
sstp1684
a(I1
V2017:08:01 12:33:08
p1685
(dp1686
V1
p1687
(dp1688
Vcoords
p1689
(lp1690
I144
aI240
aI192
aI368
asVprob
p1691
I93
sstp1692
a(I1
V2017:08:01 12:34:06
p1693
(dp1694
V2
p1695
(dp1696
Vcoords
p1697
(lp1698
I128
aI224
aI176
aI352
asVprob
p1699
I81
sstp1700
a(I1
V2017:08:01 12:34:14
p1701
(dp1702
V1
p1703
(dp1704
Vcoords
p1705
(lp1706
I224
aI80
aI384
aI480
asVprob
p1707
I97
sstp1708
a(I1
V2017:08:01 12:34:20
p1709
(dp1710
V2
p1711
(dp1712
Vcoords
p1713
(lp1714
I128
aI224
aI176
aI352
asVprob
p1715
I83
sstp1716
a(I2
V2017:08:01 12:35:00
p1717
(dp1718
V1
p1719
(dp1720
Vcoords
p1721
(lp1722
I496
aI0
aI752
aI624
asVprob
p1723
I93
ssV3
p1724
(dp1725
Vcoords
p1726
(lp1727
I112
aI224
aI160
aI352
asVprob
p1728
I80
sstp1729
a(I1
V2017:08:01 12:35:06
p1730
(dp1731
V1
p1732
(dp1733
Vcoords
p1734
(lp1735
I112
aI224
aI160
aI352
asVprob
p1736
I80
sstp1737
a(I1
V2017:08:01 12:35:12
p1738
(dp1739
V1
p1740
(dp1741
Vcoords
p1742
(lp1743
I112
aI224
aI160
aI368
asVprob
p1744
I88
sstp1745
a(I2
V2017:08:01 12:35:18
p1746
(dp1747
V1
p1748
(dp1749
Vcoords
p1750
(lp1751
I128
aI224
aI176
aI368
asVprob
p1752
I87
ssV2
p1753
(dp1754
Vcoords
p1755
(lp1756
I112
aI224
aI160
aI352
asVprob
p1757
I85
sstp1758
a(I2
V2017:08:01 12:35:28
p1759
(dp1760
V1
p1761
(dp1762
Vcoords
p1763
(lp1764
I112
aI224
aI160
aI352
asVprob
p1765
I86
ssV3
p1766
(dp1767
Vcoords
p1768
(lp1769
I128
aI224
aI176
aI352
asVprob
p1770
I80
sstp1771
a(I1
V2017:08:01 12:35:34
p1772
(dp1773
V1
p1774
(dp1775
Vcoords
p1776
(lp1777
I112
aI224
aI160
aI368
asVprob
p1778
I87
sstp1779
a(I2
V2017:08:01 12:35:44
p1780
(dp1781
V1
p1782
(dp1783
Vcoords
p1784
(lp1785
I112
aI224
aI160
aI352
asVprob
p1786
I87
ssV3
p1787
(dp1788
Vcoords
p1789
(lp1790
I128
aI224
aI176
aI368
asVprob
p1791
I83
sstp1792
a(I2
V2017:08:01 12:35:50
p1793
(dp1794
V3
p1795
(dp1796
Vcoords
p1797
(lp1798
I128
aI224
aI176
aI352
asVprob
p1799
I82
ssV2
p1800
(dp1801
Vcoords
p1802
(lp1803
I112
aI224
aI160
aI352
asVprob
p1804
I84
sstp1805
a(I1
V2017:08:01 12:36:08
p1806
(dp1807
V2
p1808
(dp1809
Vcoords
p1810
(lp1811
I48
aI224
aI96
aI352
asVprob
p1812
I91
sstp1813
a(I2
V2017:08:01 12:36:16
p1814
(dp1815
V3
p1816
(dp1817
Vcoords
p1818
(lp1819
I112
aI224
aI160
aI352
asVprob
p1820
I84
ssV4
p1821
(dp1822
Vcoords
p1823
(lp1824
I48
aI224
aI96
aI352
asVprob
p1825
I84
sstp1826
a(I2
V2017:08:01 12:36:20
p1827
(dp1828
V1
p1829
(dp1830
Vcoords
p1831
(lp1832
I48
aI224
aI96
aI352
asVprob
p1833
I91
ssV2
p1834
(dp1835
Vcoords
p1836
(lp1837
I32
aI224
aI80
aI352
asVprob
p1838
I84
sstp1839
a(I2
V2017:08:01 12:36:44
p1840
(dp1841
V2
p1842
(dp1843
Vcoords
p1844
(lp1845
I112
aI224
aI160
aI368
asVprob
p1846
I87
ssV4
p1847
(dp1848
Vcoords
p1849
(lp1850
I48
aI240
aI96
aI368
asVprob
p1851
I82
sstp1852
a(I1
V2017:08:01 12:36:48
p1853
(dp1854
V1
p1855
(dp1856
Vcoords
p1857
(lp1858
I112
aI224
aI160
aI352
asVprob
p1859
I91
sstp1860
a(I1
V2017:08:01 12:36:56
p1861
(dp1862
V1
p1863
(dp1864
Vcoords
p1865
(lp1866
I112
aI224
aI160
aI368
asVprob
p1867
I89
sstp1868
a(I1
V2017:08:01 12:37:02
p1869
(dp1870
V1
p1871
(dp1872
Vcoords
p1873
(lp1874
I112
aI224
aI160
aI352
asVprob
p1875
I89
sstp1876
a(I1
V2017:08:01 12:37:06
p1877
(dp1878
V1
p1879
(dp1880
Vcoords
p1881
(lp1882
I112
aI224
aI160
aI352
asVprob
p1883
I89
sstp1884
a(I1
V2017:08:01 12:37:12
p1885
(dp1886
V1
p1887
(dp1888
Vcoords
p1889
(lp1890
I112
aI224
aI160
aI352
asVprob
p1891
I89
sstp1892
a(I1
V2017:08:01 12:37:22
p1893
(dp1894
V1
p1895
(dp1896
Vcoords
p1897
(lp1898
I112
aI224
aI160
aI368
asVprob
p1899
I92
sstp1900
a(I1
V2017:08:01 12:37:32
p1901
(dp1902
V2
p1903
(dp1904
Vcoords
p1905
(lp1906
I464
aI224
aI512
aI304
asVprob
p1907
I91
sstp1908
a(I1
V2017:08:01 12:37:40
p1909
(dp1910
V1
p1911
(dp1912
Vcoords
p1913
(lp1914
I80
aI192
aI128
aI352
asVprob
p1915
I89
sstp1916
a(I1
V2017:08:01 12:37:52
p1917
(dp1918
V2
p1919
(dp1920
Vcoords
p1921
(lp1922
I176
aI208
aI224
aI336
asVprob
p1923
I82
sstp1924
a(I1
V2017:08:01 12:37:58
p1925
(dp1926
V1
p1927
(dp1928
Vcoords
p1929
(lp1930
I576
aI160
aI736
aI416
asVprob
p1931
I93
sstp1932
a(I2
V2017:08:01 12:39:12
p1933
(dp1934
V1
p1935
(dp1936
Vcoords
p1937
(lp1938
I112
aI208
aI160
aI352
asVprob
p1939
I96
ssV2
p1940
(dp1941
Vcoords
p1942
(lp1943
I96
aI208
aI144
aI352
asVprob
p1944
I94
sstp1945
a(I1
V2017:08:01 12:39:28
p1946
(dp1947
V1
p1948
(dp1949
Vcoords
p1950
(lp1951
I160
aI224
aI208
aI352
asVprob
p1952
I86
sstp1953
a(I1
V2017:08:01 12:39:34
p1954
(dp1955
V2
p1956
(dp1957
Vcoords
p1958
(lp1959
I32
aI224
aI80
aI352
asVprob
p1960
I81
sstp1961
a(I1
V2017:08:01 12:39:52
p1962
(dp1963
V1
p1964
(dp1965
Vcoords
p1966
(lp1967
I96
aI192
aI144
aI352
asVprob
p1968
I92
sstp1969
a(I1
V2017:08:01 12:41:10
p1970
(dp1971
V1
p1972
(dp1973
Vcoords
p1974
(lp1975
I256
aI192
aI304
aI336
asVprob
p1976
I95
sstp1977
a(I1
V2017:08:01 12:41:50
p1978
(dp1979
V1
p1980
(dp1981
Vcoords
p1982
(lp1983
I272
aI64
aI432
aI560
asVprob
p1984
I98
sstp1985
a(I1
V2017:08:01 12:43:14
p1986
(dp1987
V1
p1988
(dp1989
Vcoords
p1990
(lp1991
I336
aI208
aI384
aI352
asVprob
p1992
I96
sstp1993
a(I1
V2017:08:01 12:43:20
p1994
(dp1995
V1
p1996
(dp1997
Vcoords
p1998
(lp1999
I256
aI192
aI304
aI336
asVprob
p2000
I97
sstp2001
a(I1
V2017:08:01 12:44:04
p2002
(dp2003
V1
p2004
(dp2005
Vcoords
p2006
(lp2007
I272
aI176
aI336
aI368
asVprob
p2008
I96
sstp2009
a(I1
V2017:08:01 12:46:10
p2010
(dp2011
V1
p2012
(dp2013
Vcoords
p2014
(lp2015
I432
aI128
aI528
aI432
asVprob
p2016
I97
sstp2017
a(I1
V2017:08:01 12:46:18
p2018
(dp2019
V1
p2020
(dp2021
Vcoords
p2022
(lp2023
I256
aI192
aI304
aI352
asVprob
p2024
I96
sstp2025
a(I1
V2017:08:01 12:48:22
p2026
(dp2027
V1
p2028
(dp2029
Vcoords
p2030
(lp2031
I272
aI176
aI336
aI352
asVprob
p2032
I98
sstp2033
a(I1
V2017:08:01 12:48:46
p2034
(dp2035
V1
p2036
(dp2037
Vcoords
p2038
(lp2039
I112
aI208
aI160
aI352
asVprob
p2040
I96
sstp2041
a(I3
V2017:08:01 12:49:10
p2042
(dp2043
V1
p2044
(dp2045
Vcoords
p2046
(lp2047
I96
aI208
aI144
aI352
asVprob
p2048
I97
ssV3
p2049
(dp2050
Vcoords
p2051
(lp2052
I112
aI208
aI160
aI352
asVprob
p2053
I94
ssV2
p2054
(dp2055
Vcoords
p2056
(lp2057
I176
aI240
aI224
aI368
asVprob
p2058
I96
sstp2059
a(I3
V2017:08:01 12:49:16
p2060
(dp2061
V1
p2062
(dp2063
Vcoords
p2064
(lp2065
I192
aI240
aI240
aI368
asVprob
p2066
I92
ssV3
p2067
(dp2068
Vcoords
p2069
(lp2070
I112
aI208
aI160
aI368
asVprob
p2071
I90
ssV2
p2072
(dp2073
Vcoords
p2074
(lp2075
I96
aI208
aI144
aI368
asVprob
p2076
I90
sstp2077
a(I1
V2017:08:01 12:49:48
p2078
(dp2079
V1
p2080
(dp2081
Vcoords
p2082
(lp2083
I96
aI240
aI144
aI368
asVprob
p2084
I80
sstp2085
a(I1
V2017:08:01 12:49:54
p2086
(dp2087
V1
p2088
(dp2089
Vcoords
p2090
(lp2091
I80
aI224
aI128
aI352
asVprob
p2092
I90
sstp2093
a(I1
V2017:08:01 12:51:02
p2094
(dp2095
V1
p2096
(dp2097
Vcoords
p2098
(lp2099
I16
aI240
aI64
aI384
asVprob
p2100
I87
sstp2101
a(I1
V2017:08:01 12:51:44
p2102
(dp2103
V1
p2104
(dp2105
Vcoords
p2106
(lp2107
I16
aI80
aI144
aI448
asVprob
p2108
I98
sstp2109
a(I1
V2017:08:01 12:53:02
p2110
(dp2111
V2
p2112
(dp2113
Vcoords
p2114
(lp2115
I544
aI224
aI592
aI320
asVprob
p2116
I91
sstp2117
a(I1
V2017:08:01 12:53:06
p2118
(dp2119
V1
p2120
(dp2121
Vcoords
p2122
(lp2123
I288
aI192
aI336
aI352
asVprob
p2124
I94
sstp2125
a(I1
V2017:08:01 12:54:10
p2126
(dp2127
V1
p2128
(dp2129
Vcoords
p2130
(lp2131
I352
aI208
aI400
aI336
asVprob
p2132
I95
sstp2133
a(I1
V2017:08:01 12:55:42
p2134
(dp2135
V1
p2136
(dp2137
Vcoords
p2138
(lp2139
I640
aI208
aI704
aI352
asVprob
p2140
I93
sstp2141
a(I1
V2017:08:01 12:56:02
p2142
(dp2143
V1
p2144
(dp2145
Vcoords
p2146
(lp2147
I160
aI208
aI208
aI336
asVprob
p2148
I92
sstp2149
a(I2
V2017:08:01 12:56:24
p2150
(dp2151
V1
p2152
(dp2153
Vcoords
p2154
(lp2155
I144
aI208
aI192
aI336
asVprob
p2156
I97
ssV2
p2157
(dp2158
Vcoords
p2159
(lp2160
I384
aI208
aI432
aI336
asVprob
p2161
I93
sstp2162
a(I2
V2017:08:01 12:56:32
p2163
(dp2164
V1
p2165
(dp2166
Vcoords
p2167
(lp2168
I368
aI192
aI416
aI336
asVprob
p2169
I95
ssV2
p2170
(dp2171
Vcoords
p2172
(lp2173
I144
aI208
aI192
aI336
asVprob
p2174
I93
sstp2175
a(I1
V2017:08:01 12:56:36
p2176
(dp2177
V1
p2178
(dp2179
Vcoords
p2180
(lp2181
I144
aI208
aI192
aI336
asVprob
p2182
I95
sstp2183
a(I1
V2017:08:01 12:57:28
p2184
(dp2185
V1
p2186
(dp2187
Vcoords
p2188
(lp2189
I96
aI208
aI144
aI336
asVprob
p2190
I94
sstp2191
a(I2
V2017:08:01 12:59:52
p2192
(dp2193
V3
p2194
(dp2195
Vcoords
p2196
(lp2197
I272
aI208
aI320
aI352
asVprob
p2198
I87
ssV2
p2199
(dp2200
Vcoords
p2201
(lp2202
I256
aI192
aI304
aI336
asVprob
p2203
I90
sstp2204
a(I1
V2017:08:01 13:00:46
p2205
(dp2206
V1
p2207
(dp2208
Vcoords
p2209
(lp2210
I16
aI224
aI64
aI352
asVprob
p2211
I86
sstp2212
a(I2
V2017:08:01 13:01:02
p2213
(dp2214
V1
p2215
(dp2216
Vcoords
p2217
(lp2218
I48
aI224
aI96
aI352
asVprob
p2219
I93
ssV2
p2220
(dp2221
Vcoords
p2222
(lp2223
I64
aI224
aI112
aI352
asVprob
p2224
I89
sstp2225
a(I2
V2017:08:01 13:03:44
p2226
(dp2227
V1
p2228
(dp2229
Vcoords
p2230
(lp2231
I560
aI144
aI672
aI448
asVprob
p2232
I98
ssV4
p2233
(dp2234
Vcoords
p2235
(lp2236
I688
aI224
aI736
aI352
asVprob
p2237
I92
sstp2238
a(I1
V2017:08:01 13:37:54
p2239
(dp2240
V1
p2241
(dp2242
Vcoords
p2243
(lp2244
I416
aI208
aI480
aI384
asVprob
p2245
I98
sstp2246
a(I1
V2017:08:01 13:39:20
p2247
(dp2248
V1
p2249
(dp2250
Vcoords
p2251
(lp2252
I432
aI256
aI480
aI352
asVprob
p2253
I91
sstp2254
a(I1
V2017:08:01 13:40:06
p2255
(dp2256
V2
p2257
(dp2258
Vcoords
p2259
(lp2260
I128
aI240
aI176
aI368
asVprob
p2261
I87
sstp2262
a(I1
V2017:08:01 13:40:22
p2263
(dp2264
V1
p2265
(dp2266
Vcoords
p2267
(lp2268
I416
aI256
aI464
aI352
asVprob
p2269
I94
sstp2270
a(I1
V2017:08:01 13:41:24
p2271
(dp2272
V1
p2273
(dp2274
Vcoords
p2275
(lp2276
I416
aI224
aI464
aI352
asVprob
p2277
I95
sstp2278
a(I1
V2017:08:01 13:42:22
p2279
(dp2280
V1
p2281
(dp2282
Vcoords
p2283
(lp2284
I432
aI240
aI480
aI368
asVprob
p2285
I97
sstp2286
a(I2
V2017:08:01 13:42:58
p2287
(dp2288
V1
p2289
(dp2290
Vcoords
p2291
(lp2292
I336
aI224
aI400
aI400
asVprob
p2293
I97
ssV2
p2294
(dp2295
Vcoords
p2296
(lp2297
I416
aI224
aI464
aI368
asVprob
p2298
I85
sstp2299
a(I1
V2017:08:01 13:45:02
p2300
(dp2301
V1
p2302
(dp2303
Vcoords
p2304
(lp2305
I352
aI256
aI400
aI368
asVprob
p2306
I93
sstp2307
a(I1
V2017:08:01 13:45:42
p2308
(dp2309
V1
p2310
(dp2311
Vcoords
p2312
(lp2313
I432
aI256
aI480
aI336
asVprob
p2314
I93
sstp2315
a(I1
V2017:08:01 13:46:50
p2316
(dp2317
V1
p2318
(dp2319
Vcoords
p2320
(lp2321
I544
aI176
aI640
aI448
asVprob
p2322
I90
sstp2323
a(I1
V2017:08:01 13:50:06
p2324
(dp2325
V1
p2326
(dp2327
Vcoords
p2328
(lp2329
I400
aI224
aI464
aI384
asVprob
p2330
I93
sstp2331
a(I4
V2017:08:01 13:51:30
p2332
(dp2333
V3
p2334
(dp2335
Vcoords
p2336
(lp2337
I304
aI256
aI352
aI368
asVprob
p2338
I92
ssV2
p2339
(dp2340
Vcoords
p2341
(lp2342
I176
aI256
aI224
aI400
asVprob
p2343
I93
ssV5
p2344
(dp2345
Vcoords
p2346
(lp2347
I192
aI256
aI240
aI384
asVprob
p2348
I88
ssV6
p2349
(dp2350
Vcoords
p2351
(lp2352
I352
aI240
aI400
aI368
asVprob
p2353
I84
sstp2354
a(I3
V2017:08:01 13:51:36
p2355
(dp2356
V1
p2357
(dp2358
Vcoords
p2359
(lp2360
I160
aI256
aI208
aI384
asVprob
p2361
I95
ssV2
p2362
(dp2363
Vcoords
p2364
(lp2365
I320
aI272
aI368
aI368
asVprob
p2366
I93
ssV4
p2367
(dp2368
Vcoords
p2369
(lp2370
I176
aI256
aI224
aI384
asVprob
p2371
I83
sstp2372
a(I2
V2017:08:01 13:51:58
p2373
(dp2374
V1
p2375
(dp2376
Vcoords
p2377
(lp2378
I160
aI256
aI208
aI384
asVprob
p2379
I97
ssV2
p2380
(dp2381
Vcoords
p2382
(lp2383
I96
aI256
aI144
aI384
asVprob
p2384
I82
sstp2385
a(I2
V2017:08:01 13:52:16
p2386
(dp2387
V1
p2388
(dp2389
Vcoords
p2390
(lp2391
I160
aI256
aI208
aI384
asVprob
p2392
I95
ssV2
p2393
(dp2394
Vcoords
p2395
(lp2396
I112
aI272
aI160
aI400
asVprob
p2397
I82
sstp2398
a(I3
V2017:08:01 13:52:40
p2399
(dp2400
V1
p2401
(dp2402
Vcoords
p2403
(lp2404
I16
aI240
aI64
aI368
asVprob
p2405
I96
ssV2
p2406
(dp2407
Vcoords
p2408
(lp2409
I160
aI256
aI208
aI384
asVprob
p2410
I96
ssV5
p2411
(dp2412
Vcoords
p2413
(lp2414
I32
aI240
aI80
aI384
asVprob
p2415
I85
sstp2416
a(I1
V2017:08:01 13:52:54
p2417
(dp2418
V3
p2419
(dp2420
Vcoords
p2421
(lp2422
I112
aI256
aI160
aI384
asVprob
p2423
I87
sstp2424
a(I1
V2017:08:01 13:53:02
p2425
(dp2426
V2
p2427
(dp2428
Vcoords
p2429
(lp2430
I176
aI256
aI224
aI384
asVprob
p2431
I94
sstp2432
a(I1
V2017:08:01 13:53:06
p2433
(dp2434
V4
p2435
(dp2436
Vcoords
p2437
(lp2438
I112
aI256
aI160
aI384
asVprob
p2439
I82
sstp2440
a(I1
V2017:08:01 13:53:16
p2441
(dp2442
V1
p2443
(dp2444
Vcoords
p2445
(lp2446
I160
aI240
aI208
aI368
asVprob
p2447
I95
sstp2448
a(I2
V2017:08:01 13:53:32
p2449
(dp2450
V3
p2451
(dp2452
Vcoords
p2453
(lp2454
I112
aI256
aI160
aI384
asVprob
p2455
I86
ssV2
p2456
(dp2457
Vcoords
p2458
(lp2459
I224
aI256
aI272
aI384
asVprob
p2460
I87
sstp2461
a(I3
V2017:08:01 13:53:38
p2462
(dp2463
V1
p2464
(dp2465
Vcoords
p2466
(lp2467
I160
aI256
aI208
aI384
asVprob
p2468
I97
ssV4
p2469
(dp2470
Vcoords
p2471
(lp2472
I112
aI256
aI160
aI384
asVprob
p2473
I86
ssV6
p2474
(dp2475
Vcoords
p2476
(lp2477
I96
aI272
aI144
aI400
asVprob
p2478
I82
sstp2479
a(I1
V2017:08:01 13:53:56
p2480
(dp2481
V2
p2482
(dp2483
Vcoords
p2484
(lp2485
I288
aI240
aI336
aI400
asVprob
p2486
I95
sstp2487
a(I2
V2017:08:01 13:54:06
p2488
(dp2489
V1
p2490
(dp2491
Vcoords
p2492
(lp2493
I160
aI240
aI208
aI368
asVprob
p2494
I98
ssV2
p2495
(dp2496
Vcoords
p2497
(lp2498
I112
aI272
aI160
aI400
asVprob
p2499
I89
sstp2500
a(I1
V2017:08:01 14:01:48
p2501
(dp2502
V1
p2503
(dp2504
Vcoords
p2505
(lp2506
I384
aI192
aI432
aI336
asVprob
p2507
I92
sstp2508
a(I1
V2017:08:01 14:06:12
p2509
(dp2510
V1
p2511
(dp2512
Vcoords
p2513
(lp2514
I272
aI176
aI336
aI368
asVprob
p2515
I98
sstp2516
a(I1
V2017:08:01 14:07:12
p2517
(dp2518
V2
p2519
(dp2520
Vcoords
p2521
(lp2522
I432
aI240
aI480
aI320
asVprob
p2523
I86
sstp2524
a(I1
V2017:08:01 14:10:16
p2525
(dp2526
V3
p2527
(dp2528
Vcoords
p2529
(lp2530
I448
aI208
aI496
aI320
asVprob
p2531
I83
sstp2532
a(I1
V2017:08:01 14:12:42
p2533
(dp2534
V2
p2535
(dp2536
Vcoords
p2537
(lp2538
I368
aI192
aI416
aI336
asVprob
p2539
I97
sstp2540
a(I1
V2017:08:01 14:12:46
p2541
(dp2542
V1
p2543
(dp2544
Vcoords
p2545
(lp2546
I192
aI208
aI240
aI352
asVprob
p2547
I94
sstp2548
a(I1
V2017:08:01 14:13:20
p2549
(dp2550
V1
p2551
(dp2552
Vcoords
p2553
(lp2554
I160
aI224
aI208
aI352
asVprob
p2555
I93
sstp2556
a(I1
V2017:08:01 14:13:30
p2557
(dp2558
V1
p2559
(dp2560
Vcoords
p2561
(lp2562
I144
aI208
aI192
aI336
asVprob
p2563
I92
sstp2564
a(I1
V2017:08:01 14:13:40
p2565
(dp2566
V1
p2567
(dp2568
Vcoords
p2569
(lp2570
I160
aI208
aI208
aI336
asVprob
p2571
I94
sstp2572
a(I1
V2017:08:01 14:14:02
p2573
(dp2574
V1
p2575
(dp2576
Vcoords
p2577
(lp2578
I160
aI208
aI208
aI352
asVprob
p2579
I97
sstp2580
a(I1
V2017:08:01 14:14:16
p2581
(dp2582
V1
p2583
(dp2584
Vcoords
p2585
(lp2586
I192
aI192
aI240
aI352
asVprob
p2587
I85
sstp2588
a(I1
V2017:08:01 14:14:42
p2589
(dp2590
V1
p2591
(dp2592
Vcoords
p2593
(lp2594
I192
aI192
aI240
aI352
asVprob
p2595
I87
sstp2596
a(I1
V2017:08:01 14:14:54
p2597
(dp2598
V1
p2599
(dp2600
Vcoords
p2601
(lp2602
I176
aI192
aI224
aI368
asVprob
p2603
I94
sstp2604
a(I1
V2017:08:01 14:15:06
p2605
(dp2606
V2
p2607
(dp2608
Vcoords
p2609
(lp2610
I176
aI208
aI224
aI368
asVprob
p2611
I94
sstp2612
a(I2
V2017:08:01 14:15:12
p2613
(dp2614
V1
p2615
(dp2616
Vcoords
p2617
(lp2618
I176
aI208
aI224
aI368
asVprob
p2619
I92
ssV2
p2620
(dp2621
Vcoords
p2622
(lp2623
I272
aI224
aI320
aI352
asVprob
p2624
I85
sstp2625
a(I1
V2017:08:01 14:15:16
p2626
(dp2627
V1
p2628
(dp2629
Vcoords
p2630
(lp2631
I384
aI208
aI432
aI336
asVprob
p2632
I92
sstp2633
a(I3
V2017:08:01 14:15:24
p2634
(dp2635
V1
p2636
(dp2637
Vcoords
p2638
(lp2639
I192
aI192
aI240
aI368
asVprob
p2640
I97
ssV3
p2641
(dp2642
Vcoords
p2643
(lp2644
I240
aI224
aI288
aI368
asVprob
p2645
I81
ssV2
p2646
(dp2647
Vcoords
p2648
(lp2649
I208
aI192
aI256
aI368
asVprob
p2650
I92
sstp2651
a(I1
V2017:08:01 14:15:30
p2652
(dp2653
V1
p2654
(dp2655
Vcoords
p2656
(lp2657
I176
aI192
aI224
aI352
asVprob
p2658
I94
sstp2659
a(I1
V2017:08:01 14:15:38
p2660
(dp2661
V1
p2662
(dp2663
Vcoords
p2664
(lp2665
I176
aI192
aI224
aI352
asVprob
p2666
I96
sstp2667
a(I1
V2017:08:01 14:15:45
p2668
(dp2669
V1
p2670
(dp2671
Vcoords
p2672
(lp2673
I176
aI192
aI224
aI352
asVprob
p2674
I96
sstp2675
a(I1
V2017:08:01 14:16:00
p2676
(dp2677
V1
p2678
(dp2679
Vcoords
p2680
(lp2681
I176
aI192
aI224
aI352
asVprob
p2682
I94
sstp2683
a(I1
V2017:08:01 14:16:10
p2684
(dp2685
V1
p2686
(dp2687
Vcoords
p2688
(lp2689
I176
aI192
aI224
aI368
asVprob
p2690
I92
sstp2691
a(I1
V2017:08:01 14:16:18
p2692
(dp2693
V1
p2694
(dp2695
Vcoords
p2696
(lp2697
I176
aI208
aI224
aI368
asVprob
p2698
I96
sstp2699
a(I3
V2017:08:01 14:19:02
p2700
(dp2701
V1
p2702
(dp2703
Vcoords
p2704
(lp2705
I304
aI208
aI352
aI352
asVprob
p2706
I94
ssV3
p2707
(dp2708
Vcoords
p2709
(lp2710
I320
aI208
aI368
aI352
asVprob
p2711
I89
ssV2
p2712
(dp2713
Vcoords
p2714
(lp2715
I400
aI208
aI448
aI352
asVprob
p2716
I94
sstp2717
a(I1
V2017:08:01 14:19:24
p2718
(dp2719
V1
p2720
(dp2721
Vcoords
p2722
(lp2723
I432
aI208
aI480
aI320
asVprob
p2724
I90
sstp2725
a(I1
V2017:08:01 14:21:12
p2726
(dp2727
V1
p2728
(dp2729
Vcoords
p2730
(lp2731
I432
aI128
aI544
aI448
asVprob
p2732
I98
sstp2733
a(I1
V2017:08:01 14:22:50
p2734
(dp2735
V1
p2736
(dp2737
Vcoords
p2738
(lp2739
I336
aI208
aI384
aI336
asVprob
p2740
I97
sstp2741
a(I1
V2017:08:01 14:22:58
p2742
(dp2743
V1
p2744
(dp2745
Vcoords
p2746
(lp2747
I432
aI208
aI480
aI336
asVprob
p2748
I97
sstp2749
a(I2
V2017:08:01 14:24:48
p2750
(dp2751
V1
p2752
(dp2753
Vcoords
p2754
(lp2755
I448
aI208
aI496
aI336
asVprob
p2756
I96
ssV2
p2757
(dp2758
Vcoords
p2759
(lp2760
I304
aI208
aI352
aI352
asVprob
p2761
I85
sstp2762
a(I1
V2017:08:01 14:25:28
p2763
(dp2764
V1
p2765
(dp2766
Vcoords
p2767
(lp2768
I400
aI208
aI448
aI336
asVprob
p2769
I96
sstp2770
a(I1
V2017:08:01 14:29:48
p2771
(dp2772
V1
p2773
(dp2774
Vcoords
p2775
(lp2776
I416
aI208
aI464
aI336
asVprob
p2777
I93
sstp2778
a(I1
V2017:08:01 14:30:32
p2779
(dp2780
V1
p2781
(dp2782
Vcoords
p2783
(lp2784
I688
aI208
aI736
aI352
asVprob
p2785
I95
sstp2786
a(I1
V2017:08:01 14:34:14
p2787
(dp2788
V2
p2789
(dp2790
Vcoords
p2791
(lp2792
I400
aI208
aI448
aI336
asVprob
p2793
I81
sstp2794
a(I1
V2017:08:01 14:36:02
p2795
(dp2796
V1
p2797
(dp2798
Vcoords
p2799
(lp2800
I384
aI192
aI432
aI336
asVprob
p2801
I91
sstp2802
a(I2
V2017:08:01 14:38:38
p2803
(dp2804
V1
p2805
(dp2806
Vcoords
p2807
(lp2808
I352
aI208
aI400
aI336
asVprob
p2809
I98
ssV2
p2810
(dp2811
Vcoords
p2812
(lp2813
I400
aI208
aI448
aI336
asVprob
p2814
I96
sstp2815
a(I1
V2017:08:01 14:38:50
p2816
(dp2817
V1
p2818
(dp2819
Vcoords
p2820
(lp2821
I576
aI224
aI624
aI352
asVprob
p2822
I97
sstp2823
a(I1
V2017:08:01 14:41:20
p2824
(dp2825
V1
p2826
(dp2827
Vcoords
p2828
(lp2829
I0
aI96
aI128
aI432
asVprob
p2830
I90
sstp2831
a(I1
V2017:08:01 14:45:16
p2832
(dp2833
V1
p2834
(dp2835
Vcoords
p2836
(lp2837
I64
aI192
aI128
aI336
asVprob
p2838
I88
sstp2839
a(I1
V2017:08:01 14:45:20
p2840
(dp2841
V1
p2842
(dp2843
Vcoords
p2844
(lp2845
I80
aI208
aI128
aI352
asVprob
p2846
I96
sstp2847
a(I1
V2017:08:01 14:45:34
p2848
(dp2849
V1
p2850
(dp2851
Vcoords
p2852
(lp2853
I80
aI208
aI128
aI368
asVprob
p2854
I88
sstp2855
a(I1
V2017:08:01 14:45:56
p2856
(dp2857
V1
p2858
(dp2859
Vcoords
p2860
(lp2861
I80
aI208
aI128
aI352
asVprob
p2862
I88
sstp2863
a(I2
V2017:08:01 14:46:08
p2864
(dp2865
V3
p2866
(dp2867
Vcoords
p2868
(lp2869
I64
aI208
aI112
aI336
asVprob
p2870
I83
ssV2
p2871
(dp2872
Vcoords
p2873
(lp2874
I80
aI208
aI128
aI336
asVprob
p2875
I84
sstp2876
a(I2
V2017:08:01 14:47:08
p2877
(dp2878
V1
p2879
(dp2880
Vcoords
p2881
(lp2882
I576
aI208
aI624
aI336
asVprob
p2883
I98
ssV2
p2884
(dp2885
Vcoords
p2886
(lp2887
I704
aI208
aI768
aI352
asVprob
p2888
I93
sstp2889
a(I2
V2017:08:01 14:47:18
p2890
(dp2891
V1
p2892
(dp2893
Vcoords
p2894
(lp2895
I272
aI176
aI352
aI384
asVprob
p2896
I96
ssV2
p2897
(dp2898
Vcoords
p2899
(lp2900
I224
aI208
aI272
aI352
asVprob
p2901
I96
sstp2902
a(I2
V2017:08:01 14:47:28
p2903
(dp2904
V1
p2905
(dp2906
Vcoords
p2907
(lp2908
I528
aI176
aI592
aI384
asVprob
p2909
I92
ssV2
p2910
(dp2911
Vcoords
p2912
(lp2913
I288
aI-16
aI512
aI672
asVprob
p2914
I90
sstp2915
a(I1
V2017:08:01 14:47:38
p2916
(dp2917
V3
p2918
(dp2919
Vcoords
p2920
(lp2921
I352
aI192
aI400
aI336
asVprob
p2922
I84
sstp2923
a(I2
V2017:08:01 14:47:46
p2924
(dp2925
V1
p2926
(dp2927
Vcoords
p2928
(lp2929
I224
aI64
aI384
aI512
asVprob
p2930
I99
ssV2
p2931
(dp2932
Vcoords
p2933
(lp2934
I384
aI128
aI496
aI480
asVprob
p2935
I97
sstp2936
a(I1
V2017:08:01 14:48:40
p2937
(dp2938
V1
p2939
(dp2940
Vcoords
p2941
(lp2942
I560
aI208
aI608
aI336
asVprob
p2943
I90
sstp2944
a(I1
V2017:08:01 14:49:18
p2945
(dp2946
V1
p2947
(dp2948
Vcoords
p2949
(lp2950
I736
aI224
aI784
aI320
asVprob
p2951
I83
sstp2952
a(I1
V2017:08:01 14:49:22
p2953
(dp2954
V1
p2955
(dp2956
Vcoords
p2957
(lp2958
I496
aI224
aI544
aI320
asVprob
p2959
I96
sstp2960
a(I1
V2017:08:01 14:50:08
p2961
(dp2962
V2
p2963
(dp2964
Vcoords
p2965
(lp2966
I704
aI80
aI800
aI496
asVprob
p2967
I80
sstp2968
a(I1
V2017:08:01 14:51:44
p2969
(dp2970
V2
p2971
(dp2972
Vcoords
p2973
(lp2974
I192
aI144
aI448
aI576
asVprob
p2975
I97
sstp2976
a(I1
V2017:08:01 14:52:08
p2977
(dp2978
V2
p2979
(dp2980
Vcoords
p2981
(lp2982
I192
aI208
aI240
aI352
asVprob
p2983
I88
sstp2984
a(I1
V2017:08:01 14:52:50
p2985
(dp2986
V2
p2987
(dp2988
Vcoords
p2989
(lp2990
I288
aI240
aI336
aI320
asVprob
p2991
I81
sstp2992
a(I1
V2017:08:01 14:52:56
p2993
(dp2994
V2
p2995
(dp2996
Vcoords
p2997
(lp2998
I288
aI256
aI336
aI336
asVprob
p2999
I81
sstp3000
a(I1
V2017:08:01 14:53:20
p3001
(dp3002
V1
p3003
(dp3004
Vcoords
p3005
(lp3006
I288
aI240
aI336
aI336
asVprob
p3007
I89
sstp3008
a(I1
V2017:08:01 14:53:26
p3009
(dp3010
V1
p3011
(dp3012
Vcoords
p3013
(lp3014
I288
aI240
aI336
aI320
asVprob
p3015
I88
sstp3016
a(I1
V2017:08:01 14:53:32
p3017
(dp3018
V4
p3019
(dp3020
Vcoords
p3021
(lp3022
I288
aI240
aI336
aI336
asVprob
p3023
I81
sstp3024
a(I1
V2017:08:01 14:53:36
p3025
(dp3026
V2
p3027
(dp3028
Vcoords
p3029
(lp3030
I288
aI240
aI336
aI320
asVprob
p3031
I81
sstp3032
a(I1
V2017:08:01 14:53:46
p3033
(dp3034
V2
p3035
(dp3036
Vcoords
p3037
(lp3038
I288
aI240
aI336
aI320
asVprob
p3039
I80
sstp3040
a(I1
V2017:08:01 14:53:56
p3041
(dp3042
V3
p3043
(dp3044
Vcoords
p3045
(lp3046
I288
aI256
aI336
aI336
asVprob
p3047
I87
sstp3048
a(I1
V2017:08:01 14:54:04
p3049
(dp3050
V1
p3051
(dp3052
Vcoords
p3053
(lp3054
I400
aI192
aI448
aI336
asVprob
p3055
I97
sstp3056
a(I1
V2017:08:01 14:54:14
p3057
(dp3058
V1
p3059
(dp3060
Vcoords
p3061
(lp3062
I288
aI256
aI336
aI336
asVprob
p3063
I87
sstp3064
a(I1
V2017:08:01 14:54:26
p3065
(dp3066
V1
p3067
(dp3068
Vcoords
p3069
(lp3070
I288
aI240
aI336
aI336
asVprob
p3071
I82
sstp3072
a(I1
V2017:08:01 14:54:30
p3073
(dp3074
V1
p3075
(dp3076
Vcoords
p3077
(lp3078
I288
aI256
aI336
aI352
asVprob
p3079
I81
sstp3080
a(I1
V2017:08:01 14:54:34
p3081
(dp3082
V1
p3083
(dp3084
Vcoords
p3085
(lp3086
I288
aI240
aI336
aI320
asVprob
p3087
I87
sstp3088
a(I1
V2017:08:01 14:54:46
p3089
(dp3090
V1
p3091
(dp3092
Vcoords
p3093
(lp3094
I288
aI240
aI336
aI320
asVprob
p3095
I90
sstp3096
a(I1
V2017:08:01 14:55:00
p3097
(dp3098
V3
p3099
(dp3100
Vcoords
p3101
(lp3102
I288
aI240
aI336
aI336
asVprob
p3103
I82
sstp3104
a(I1
V2017:08:01 14:55:08
p3105
(dp3106
V3
p3107
(dp3108
Vcoords
p3109
(lp3110
I288
aI240
aI336
aI320
asVprob
p3111
I85
sstp3112
a(I1
V2017:08:01 14:55:12
p3113
(dp3114
V3
p3115
(dp3116
Vcoords
p3117
(lp3118
I288
aI256
aI336
aI336
asVprob
p3119
I80
sstp3120
a(I1
V2017:08:01 14:55:18
p3121
(dp3122
V3
p3123
(dp3124
Vcoords
p3125
(lp3126
I288
aI256
aI336
aI336
asVprob
p3127
I80
sstp3128
a(I1
V2017:08:01 14:55:26
p3129
(dp3130
V2
p3131
(dp3132
Vcoords
p3133
(lp3134
I288
aI256
aI336
aI336
asVprob
p3135
I84
sstp3136
a(I1
V2017:08:01 14:55:46
p3137
(dp3138
V1
p3139
(dp3140
Vcoords
p3141
(lp3142
I640
aI208
aI688
aI352
asVprob
p3143
I84
sstp3144
a(I1
V2017:08:01 14:55:54
p3145
(dp3146
V1
p3147
(dp3148
Vcoords
p3149
(lp3150
I288
aI240
aI336
aI336
asVprob
p3151
I88
sstp3152
a(I1
V2017:08:01 14:56:02
p3153
(dp3154
V1
p3155
(dp3156
Vcoords
p3157
(lp3158
I288
aI240
aI336
aI336
asVprob
p3159
I90
sstp3160
a(I1
V2017:08:01 14:56:16
p3161
(dp3162
V2
p3163
(dp3164
Vcoords
p3165
(lp3166
I288
aI240
aI336
aI336
asVprob
p3167
I83
sstp3168
a(I1
V2017:08:01 14:56:26
p3169
(dp3170
V4
p3171
(dp3172
Vcoords
p3173
(lp3174
I288
aI256
aI336
aI336
asVprob
p3175
I81
sstp3176
a(I1
V2017:08:01 14:56:30
p3177
(dp3178
V4
p3179
(dp3180
Vcoords
p3181
(lp3182
I288
aI256
aI336
aI336
asVprob
p3183
I85
sstp3184
a(I1
V2017:08:01 14:56:38
p3185
(dp3186
V3
p3187
(dp3188
Vcoords
p3189
(lp3190
I288
aI256
aI336
aI336
asVprob
p3191
I83
sstp3192
a(I1
V2017:08:01 14:56:46
p3193
(dp3194
V1
p3195
(dp3196
Vcoords
p3197
(lp3198
I432
aI16
aI608
aI512
asVprob
p3199
I99
sstp3200
a(I1
V2017:08:01 14:56:56
p3201
(dp3202
V1
p3203
(dp3204
Vcoords
p3205
(lp3206
I288
aI240
aI336
aI320
asVprob
p3207
I83
sstp3208
a(I1
V2017:08:01 14:57:02
p3209
(dp3210
V2
p3211
(dp3212
Vcoords
p3213
(lp3214
I288
aI240
aI336
aI336
asVprob
p3215
I84
sstp3216
a(I1
V2017:08:01 14:57:08
p3217
(dp3218
V2
p3219
(dp3220
Vcoords
p3221
(lp3222
I288
aI240
aI336
aI320
asVprob
p3223
I82
sstp3224
a(I1
V2017:08:01 14:57:16
p3225
(dp3226
V3
p3227
(dp3228
Vcoords
p3229
(lp3230
I288
aI256
aI336
aI336
asVprob
p3231
I83
sstp3232
a(I1
V2017:08:01 14:57:22
p3233
(dp3234
V4
p3235
(dp3236
Vcoords
p3237
(lp3238
I288
aI256
aI336
aI336
asVprob
p3239
I82
sstp3240
a(I1
V2017:08:01 14:57:28
p3241
(dp3242
V3
p3243
(dp3244
Vcoords
p3245
(lp3246
I288
aI256
aI336
aI336
asVprob
p3247
I82
sstp3248
a(I1
V2017:08:01 14:57:40
p3249
(dp3250
V3
p3251
(dp3252
Vcoords
p3253
(lp3254
I288
aI256
aI336
aI336
asVprob
p3255
I82
sstp3256
a(I1
V2017:08:01 15:00:20
p3257
(dp3258
V1
p3259
(dp3260
Vcoords
p3261
(lp3262
I432
aI208
aI496
aI400
asVprob
p3263
I96
sstp3264
a(I1
V2017:08:01 15:02:36
p3265
(dp3266
V1
p3267
(dp3268
Vcoords
p3269
(lp3270
I352
aI208
aI400
aI352
asVprob
p3271
I96
sstp3272
a(I1
V2017:08:01 15:03:10
p3273
(dp3274
V1
p3275
(dp3276
Vcoords
p3277
(lp3278
I432
aI208
aI496
aI384
asVprob
p3279
I96
sstp3280
a(I2
V2017:08:01 15:04:40
p3281
(dp3282
V1
p3283
(dp3284
Vcoords
p3285
(lp3286
I432
aI208
aI496
aI368
asVprob
p3287
I95
ssV2
p3288
(dp3289
Vcoords
p3290
(lp3291
I384
aI224
aI432
aI368
asVprob
p3292
I94
sstp3293
a(I1
V2017:08:01 15:05:26
p3294
(dp3295
V1
p3296
(dp3297
Vcoords
p3298
(lp3299
I272
aI192
aI336
aI400
asVprob
p3300
I94
sstp3301
a(I2
V2017:08:01 15:05:54
p3302
(dp3303
V1
p3304
(dp3305
Vcoords
p3306
(lp3307
I400
aI224
aI464
aI368
asVprob
p3308
I97
ssV2
p3309
(dp3310
Vcoords
p3311
(lp3312
I336
aI208
aI384
aI352
asVprob
p3313
I94
sstp3314
a(I1
V2017:08:01 15:07:36
p3315
(dp3316
V1
p3317
(dp3318
Vcoords
p3319
(lp3320
I672
aI192
aI800
aI608
asVprob
p3321
I81
sstp3322
a(I2
V2017:08:01 15:07:44
p3323
(dp3324
V3
p3325
(dp3326
Vcoords
p3327
(lp3328
I256
aI224
aI304
aI352
asVprob
p3329
I90
ssV2
p3330
(dp3331
Vcoords
p3332
(lp3333
I416
aI224
aI464
aI352
asVprob
p3334
I93
sstp3335
a(I1
V2017:08:01 15:07:54
p3336
(dp3337
V2
p3338
(dp3339
Vcoords
p3340
(lp3341
I96
aI224
aI144
aI368
asVprob
p3342
I86
sstp3343
a(I1
V2017:08:01 15:08:12
p3344
(dp3345
V1
p3346
(dp3347
Vcoords
p3348
(lp3349
I80
aI224
aI128
aI352
asVprob
p3350
I86
sstp3351
a(I1
V2017:08:01 15:08:40
p3352
(dp3353
V1
p3354
(dp3355
Vcoords
p3356
(lp3357
I352
aI224
aI400
aI368
asVprob
p3358
I95
sstp3359
a(I1
V2017:08:01 15:10:34
p3360
(dp3361
V1
p3362
(dp3363
Vcoords
p3364
(lp3365
I416
aI160
aI480
aI400
asVprob
p3366
I99
sstp3367
a(I2
V2017:08:01 15:12:30
p3368
(dp3369
V1
p3370
(dp3371
Vcoords
p3372
(lp3373
I256
aI176
aI352
aI432
asVprob
p3374
I98
ssV2
p3375
(dp3376
Vcoords
p3377
(lp3378
I400
aI192
aI496
aI384
asVprob
p3379
I95
sstp3380
a(I1
V2017:08:01 15:15:36
p3381
(dp3382
V1
p3383
(dp3384
Vcoords
p3385
(lp3386
I320
aI208
aI368
aI352
asVprob
p3387
I86
sstp3388
a(I1
V2017:08:01 15:16:48
p3389
(dp3390
V2
p3391
(dp3392
Vcoords
p3393
(lp3394
I400
aI192
aI464
aI368
asVprob
p3395
I97
sstp3396
a(I1
V2017:08:01 15:16:54
p3397
(dp3398
V1
p3399
(dp3400
Vcoords
p3401
(lp3402
I448
aI224
aI496
aI352
asVprob
p3403
I97
sstp3404
a(I4
V2017:08:01 15:17:12
p3405
(dp3406
V3
p3407
(dp3408
Vcoords
p3409
(lp3410
I368
aI208
aI416
aI352
asVprob
p3411
I96
ssV2
p3412
(dp3413
Vcoords
p3414
(lp3415
I432
aI192
aI496
aI384
asVprob
p3416
I96
ssV5
p3417
(dp3418
Vcoords
p3419
(lp3420
I96
aI224
aI144
aI352
asVprob
p3421
I90
ssV6
p3422
(dp3423
Vcoords
p3424
(lp3425
I384
aI208
aI432
aI352
asVprob
p3426
I80
sstp3427
a(I2
V2017:08:01 15:17:32
p3428
(dp3429
V5
p3430
(dp3431
Vcoords
p3432
(lp3433
I416
aI192
aI464
aI368
asVprob
p3434
I82
ssV4
p3435
(dp3436
Vcoords
p3437
(lp3438
I400
aI192
aI448
aI368
asVprob
p3439
I89
sstp3440
a(I1
V2017:08:01 15:17:42
p3441
(dp3442
V2
p3443
(dp3444
Vcoords
p3445
(lp3446
I256
aI160
aI352
aI416
asVprob
p3447
I96
sstp3448
a(I1
V2017:08:01 15:18:00
p3449
(dp3450
V1
p3451
(dp3452
Vcoords
p3453
(lp3454
I352
aI224
aI432
aI400
asVprob
p3455
I98
sstp3456
a(I1
V2017:08:01 15:18:34
p3457
(dp3458
V1
p3459
(dp3460
Vcoords
p3461
(lp3462
I224
aI224
aI272
aI352
asVprob
p3463
I96
sstp3464
a(I1
V2017:08:01 15:19:46
p3465
(dp3466
V1
p3467
(dp3468
Vcoords
p3469
(lp3470
I16
aI240
aI64
aI368
asVprob
p3471
I80
sstp3472
a(I1
V2017:08:01 15:19:56
p3473
(dp3474
V2
p3475
(dp3476
Vcoords
p3477
(lp3478
I176
aI128
aI384
aI576
asVprob
p3479
I94
sstp3480
a(I1
V2017:08:01 15:20:38
p3481
(dp3482
V1
p3483
(dp3484
Vcoords
p3485
(lp3486
I96
aI224
aI144
aI352
asVprob
p3487
I94
sstp3488
a(I1
V2017:08:01 15:20:46
p3489
(dp3490
V2
p3491
(dp3492
Vcoords
p3493
(lp3494
I256
aI208
aI304
aI336
asVprob
p3495
I88
sstp3496
a(I1
V2017:08:01 15:21:50
p3497
(dp3498
V4
p3499
(dp3500
Vcoords
p3501
(lp3502
I400
aI240
aI464
aI384
asVprob
p3503
I87
sstp3504
a(I1
V2017:08:01 15:21:54
p3505
(dp3506
V3
p3507
(dp3508
Vcoords
p3509
(lp3510
I304
aI224
aI352
aI384
asVprob
p3511
I95
sstp3512
a(I2
V2017:08:01 15:21:58
p3513
(dp3514
V7
p3515
(dp3516
Vcoords
p3517
(lp3518
I544
aI160
aI672
aI528
asVprob
p3519
I83
ssV6
p3520
(dp3521
Vcoords
p3522
(lp3523
I304
aI224
aI352
aI384
asVprob
p3524
I87
sstp3525
a(I6
V2017:08:01 15:22:06
p3526
(dp3527
V1
p3528
(dp3529
Vcoords
p3530
(lp3531
I336
aI192
aI464
aI464
asVprob
p3532
I99
ssV3
p3533
(dp3534
Vcoords
p3535
(lp3536
I528
aI240
aI576
aI384
asVprob
p3537
I96
ssV2
p3538
(dp3539
Vcoords
p3540
(lp3541
I640
aI208
aI736
aI512
asVprob
p3542
I97
ssV5
p3543
(dp3544
Vcoords
p3545
(lp3546
I128
aI240
aI176
aI384
asVprob
p3547
I94
ssV4
p3548
(dp3549
Vcoords
p3550
(lp3551
I464
aI224
aI544
aI384
asVprob
p3552
I94
ssV6
p3553
(dp3554
Vcoords
p3555
(lp3556
I720
aI224
aI784
aI416
asVprob
p3557
I92
sstp3558
a(I1
V2017:08:01 15:22:24
p3559
(dp3560
V2
p3561
(dp3562
Vcoords
p3563
(lp3564
I592
aI256
aI640
aI352
asVprob
p3565
I84
sstp3566
a(I1
V2017:08:01 15:22:32
p3567
(dp3568
V2
p3569
(dp3570
Vcoords
p3571
(lp3572
I416
aI240
aI464
aI336
asVprob
p3573
I86
sstp3574
a(I1
V2017:08:01 15:24:18
p3575
(dp3576
V1
p3577
(dp3578
Vcoords
p3579
(lp3580
I448
aI224
aI496
aI336
asVprob
p3581
I91
sstp3582
a(I1
V2017:08:01 15:25:12
p3583
(dp3584
V1
p3585
(dp3586
Vcoords
p3587
(lp3588
I112
aI224
aI160
aI352
asVprob
p3589
I96
sstp3590
a(I1
V2017:08:01 15:25:18
p3591
(dp3592
V1
p3593
(dp3594
Vcoords
p3595
(lp3596
I432
aI224
aI480
aI336
asVprob
p3597
I93
sstp3598
a(I1
V2017:08:01 15:26:02
p3599
(dp3600
V1
p3601
(dp3602
Vcoords
p3603
(lp3604
I400
aI192
aI464
aI368
asVprob
p3605
I97
sstp3606
a(I1
V2017:08:01 15:26:34
p3607
(dp3608
V1
p3609
(dp3610
Vcoords
p3611
(lp3612
I432
aI224
aI480
aI336
asVprob
p3613
I85
sstp3614
a(I1
V2017:08:01 15:28:00
p3615
(dp3616
V1
p3617
(dp3618
Vcoords
p3619
(lp3620
I448
aI208
aI512
aI352
asVprob
p3621
I93
sstp3622
a(I2
V2017:08:01 15:28:06
p3623
(dp3624
V1
p3625
(dp3626
Vcoords
p3627
(lp3628
I416
aI208
aI464
aI336
asVprob
p3629
I85
ssV2
p3630
(dp3631
Vcoords
p3632
(lp3633
I400
aI208
aI448
aI352
asVprob
p3634
I83
sstp3635
a(I1
V2017:08:01 15:29:38
p3636
(dp3637
V1
p3638
(dp3639
Vcoords
p3640
(lp3641
I224
aI176
aI384
aI448
asVprob
p3642
I94
sstp3643
a(I1
V2017:08:01 15:30:54
p3644
(dp3645
V2
p3646
(dp3647
Vcoords
p3648
(lp3649
I32
aI112
aI128
aI320
asVprob
p3650
I86
sstp3651
a(I1
V2017:08:01 15:38:16
p3652
(dp3653
V1
p3654
(dp3655
Vcoords
p3656
(lp3657
I384
aI208
aI432
aI336
asVprob
p3658
I97
sstp3659
a(I1
V2017:08:01 15:41:02
p3660
(dp3661
V1
p3662
(dp3663
Vcoords
p3664
(lp3665
I416
aI208
aI480
aI368
asVprob
p3666
I97
sstp3667
a(I3
V2017:08:01 15:42:20
p3668
(dp3669
V1
p3670
(dp3671
Vcoords
p3672
(lp3673
I288
aI192
aI336
aI368
asVprob
p3674
I98
ssV3
p3675
(dp3676
Vcoords
p3677
(lp3678
I352
aI208
aI400
aI352
asVprob
p3679
I92
ssV2
p3680
(dp3681
Vcoords
p3682
(lp3683
I400
aI192
aI480
aI384
asVprob
p3684
I93
sstp3685
a(I1
V2017:08:01 15:44:00
p3686
(dp3687
V1
p3688
(dp3689
Vcoords
p3690
(lp3691
I240
aI64
aI384
aI480
asVprob
p3692
I98
sstp3693
a(I2
V2017:08:01 15:44:04
p3694
(dp3695
V1
p3696
(dp3697
Vcoords
p3698
(lp3699
I336
aI208
aI384
aI368
asVprob
p3700
I97
ssV2
p3701
(dp3702
Vcoords
p3703
(lp3704
I400
aI176
aI448
aI352
asVprob
p3705
I91
sstp3706
a(I1
V2017:08:01 15:44:10
p3707
(dp3708
V1
p3709
(dp3710
Vcoords
p3711
(lp3712
I384
aI224
aI432
aI352
asVprob
p3713
I88
sstp3714
a(I1
V2017:08:01 15:45:16
p3715
(dp3716
V1
p3717
(dp3718
Vcoords
p3719
(lp3720
I416
aI224
aI464
aI352
asVprob
p3721
I90
sstp3722
a(I1
V2017:08:01 15:45:58
p3723
(dp3724
V1
p3725
(dp3726
Vcoords
p3727
(lp3728
I432
aI224
aI480
aI320
asVprob
p3729
I96
sstp3730
a(I1
V2017:08:01 15:46:02
p3731
(dp3732
V1
p3733
(dp3734
Vcoords
p3735
(lp3736
I432
aI208
aI480
aI352
asVprob
p3737
I92
sstp3738
a(I1
V2017:08:01 15:46:24
p3739
(dp3740
V1
p3741
(dp3742
Vcoords
p3743
(lp3744
I384
aI176
aI480
aI400
asVprob
p3745
I96
sstp3746
a(I1
V2017:08:01 15:48:16
p3747
(dp3748
V1
p3749
(dp3750
Vcoords
p3751
(lp3752
I720
aI192
aI784
aI352
asVprob
p3753
I84
sstp3754
a(I1
V2017:08:01 15:48:40
p3755
(dp3756
V1
p3757
(dp3758
Vcoords
p3759
(lp3760
I416
aI240
aI464
aI336
asVprob
p3761
I82
sstp3762
a(I1
V2017:08:01 15:49:10
p3763
(dp3764
V1
p3765
(dp3766
Vcoords
p3767
(lp3768
I464
aI16
aI784
aI624
asVprob
p3769
I97
sstp3770
a(I1
V2017:08:01 15:49:14
p3771
(dp3772
V1
p3773
(dp3774
Vcoords
p3775
(lp3776
I448
aI16
aI784
aI640
asVprob
p3777
I95
sstp3778
a(I1
V2017:08:01 15:49:34
p3779
(dp3780
V1
p3781
(dp3782
Vcoords
p3783
(lp3784
I448
aI-16
aI800
aI592
asVprob
p3785
I98
sstp3786
a(I4
V2017:08:01 15:50:00
p3787
(dp3788
V1
p3789
(dp3790
Vcoords
p3791
(lp3792
I640
aI96
aI784
aI576
asVprob
p3793
I99
ssV3
p3794
(dp3795
Vcoords
p3796
(lp3797
I400
aI208
aI448
aI352
asVprob
p3798
I97
ssV2
p3799
(dp3800
Vcoords
p3801
(lp3802
I464
aI192
aI576
aI432
asVprob
p3803
I98
ssV5
p3804
(dp3805
Vcoords
p3806
(lp3807
I576
aI208
aI656
aI416
asVprob
p3808
I93
sstp3809
a(I1
V2017:08:01 15:50:10
p3810
(dp3811
V2
p3812
(dp3813
Vcoords
p3814
(lp3815
I448
aI240
aI496
aI320
asVprob
p3816
I81
sstp3817
a(I1
V2017:08:01 15:50:42
p3818
(dp3819
V1
p3820
(dp3821
Vcoords
p3822
(lp3823
I704
aI224
aI752
aI336
asVprob
p3824
I87
sstp3825
a(I1
V2017:08:01 15:52:06
p3826
(dp3827
V1
p3828
(dp3829
Vcoords
p3830
(lp3831
I672
aI208
aI768
aI448
asVprob
p3832
I95
sstp3833
a(I1
V2017:08:01 15:52:24
p3834
(dp3835
V1
p3836
(dp3837
Vcoords
p3838
(lp3839
I304
aI16
aI544
aI672
asVprob
p3840
I86
sstp3841
a(I2
V2017:08:01 15:52:32
p3842
(dp3843
V1
p3844
(dp3845
Vcoords
p3846
(lp3847
I624
aI224
aI688
aI384
asVprob
p3848
I98
ssV2
p3849
(dp3850
Vcoords
p3851
(lp3852
I336
aI208
aI384
aI352
asVprob
p3853
I91
sstp3854
a(I1
V2017:08:01 15:52:40
p3855
(dp3856
V2
p3857
(dp3858
Vcoords
p3859
(lp3860
I512
aI224
aI560
aI384
asVprob
p3861
I86
sstp3862
a(I2
V2017:08:01 15:52:50
p3863
(dp3864
V1
p3865
(dp3866
Vcoords
p3867
(lp3868
I480
aI48
aI784
aI608
asVprob
p3869
I94
ssV3
p3870
(dp3871
Vcoords
p3872
(lp3873
I368
aI128
aI624
aI576
asVprob
p3874
I89
sstp3875
a(I2
V2017:08:01 15:53:06
p3876
(dp3877
V1
p3878
(dp3879
Vcoords
p3880
(lp3881
I416
aI48
aI688
aI608
asVprob
p3882
I99
ssV4
p3883
(dp3884
Vcoords
p3885
(lp3886
I704
aI208
aI800
aI624
asVprob
p3887
I85
sstp3888
a(I1
V2017:08:01 15:53:14
p3889
(dp3890
V2
p3891
(dp3892
Vcoords
p3893
(lp3894
I352
aI0
aI672
aI592
asVprob
p3895
I85
sstp3896
a(I3
V2017:08:01 15:53:24
p3897
(dp3898
V1
p3899
(dp3900
Vcoords
p3901
(lp3902
I608
aI96
aI784
aI592
asVprob
p3903
I98
ssV2
p3904
(dp3905
Vcoords
p3906
(lp3907
I528
aI160
aI640
aI480
asVprob
p3908
I96
ssV4
p3909
(dp3910
Vcoords
p3911
(lp3912
I336
aI96
aI544
aI544
asVprob
p3913
I84
sstp3914
a(I5
V2017:08:01 15:53:40
p3915
(dp3916
V1
p3917
(dp3918
Vcoords
p3919
(lp3920
I352
aI160
aI448
aI496
asVprob
p3921
I98
ssV3
p3922
(dp3923
Vcoords
p3924
(lp3925
I448
aI224
aI512
aI448
asVprob
p3926
I96
ssV2
p3927
(dp3928
Vcoords
p3929
(lp3930
I592
aI80
aI720
aI544
asVprob
p3931
I96
ssV5
p3932
(dp3933
Vcoords
p3934
(lp3935
I720
aI224
aI768
aI400
asVprob
p3936
I86
ssV4
p3937
(dp3938
Vcoords
p3939
(lp3940
I528
aI192
aI624
aI480
asVprob
p3941
I93
sstp3942
a(I4
V2017:08:01 15:53:56
p3943
(dp3944
V1
p3945
(dp3946
Vcoords
p3947
(lp3948
I592
aI240
aI640
aI400
asVprob
p3949
I94
ssV3
p3950
(dp3951
Vcoords
p3952
(lp3953
I496
aI224
aI544
aI352
asVprob
p3954
I88
ssV2
p3955
(dp3956
Vcoords
p3957
(lp3958
I640
aI224
aI688
aI400
asVprob
p3959
I94
ssV4
p3960
(dp3961
Vcoords
p3962
(lp3963
I720
aI208
aI800
aI368
asVprob
p3964
I85
sstp3965
a(I1
V2017:08:01 15:54:02
p3966
(dp3967
V1
p3968
(dp3969
Vcoords
p3970
(lp3971
I288
aI208
aI336
aI368
asVprob
p3972
I90
sstp3973
a(I1
V2017:08:01 15:54:36
p3974
(dp3975
V2
p3976
(dp3977
Vcoords
p3978
(lp3979
I416
aI208
aI480
aI368
asVprob
p3980
I97
sstp3981
a(I2
V2017:08:01 15:57:54
p3982
(dp3983
V1
p3984
(dp3985
Vcoords
p3986
(lp3987
I528
aI160
aI624
aI432
asVprob
p3988
I99
ssV2
p3989
(dp3990
Vcoords
p3991
(lp3992
I400
aI176
aI496
aI400
asVprob
p3993
I98
sstp3994
a(I1
V2017:08:01 15:58:12
p3995
(dp3996
V1
p3997
(dp3998
Vcoords
p3999
(lp4000
I384
aI176
aI480
aI400
asVprob
p4001
I97
sstp4002
a(I1
V2017:08:01 15:59:48
p4003
(dp4004
V1
p4005
(dp4006
Vcoords
p4007
(lp4008
I240
aI208
aI288
aI368
asVprob
p4009
I94
sstp4010
a(I1
V2017:08:01 16:00:46
p4011
(dp4012
V1
p4013
(dp4014
Vcoords
p4015
(lp4016
I672
aI240
aI720
aI336
asVprob
p4017
I90
sstp4018
a(I1
V2017:08:01 16:01:02
p4019
(dp4020
V1
p4021
(dp4022
Vcoords
p4023
(lp4024
I0
aI240
aI80
aI576
asVprob
p4025
I83
sstp4026
a(I1
V2017:08:01 16:02:50
p4027
(dp4028
V2
p4029
(dp4030
Vcoords
p4031
(lp4032
I400
aI192
aI448
aI352
asVprob
p4033
I94
sstp4034
a(I1
V2017:08:01 16:03:22
p4035
(dp4036
V2
p4037
(dp4038
Vcoords
p4039
(lp4040
I656
aI240
aI704
aI320
asVprob
p4041
I86
sstp4042
a(I1
V2017:08:01 16:03:56
p4043
(dp4044
V1
p4045
(dp4046
Vcoords
p4047
(lp4048
I576
aI240
aI624
aI336
asVprob
p4049
I94
sstp4050
a(I5
V2017:08:01 16:07:16
p4051
(dp4052
V1
p4053
(dp4054
Vcoords
p4055
(lp4056
I336
aI240
aI384
aI368
asVprob
p4057
I94
ssV3
p4058
(dp4059
Vcoords
p4060
(lp4061
I480
aI240
aI544
aI368
asVprob
p4062
I93
ssV5
p4063
(dp4064
Vcoords
p4065
(lp4066
I608
aI224
aI656
aI368
asVprob
p4067
I85
ssV4
p4068
(dp4069
Vcoords
p4070
(lp4071
I544
aI240
aI592
aI352
asVprob
p4072
I89
ssV6
p4073
(dp4074
Vcoords
p4075
(lp4076
I624
aI224
aI672
aI368
asVprob
p4077
I82
sstp4078
a(I1
V2017:08:01 16:08:48
p4079
(dp4080
V1
p4081
(dp4082
Vcoords
p4083
(lp4084
I336
aI192
aI384
aI336
asVprob
p4085
I96
sstp4086
a(I1
V2017:08:01 16:11:08
p4087
(dp4088
V1
p4089
(dp4090
Vcoords
p4091
(lp4092
I432
aI240
aI480
aI336
asVprob
p4093
I86
sstp4094
a(I3
V2017:08:01 16:11:32
p4095
(dp4096
V1
p4097
(dp4098
Vcoords
p4099
(lp4100
I256
aI224
aI304
aI352
asVprob
p4101
I95
ssV3
p4102
(dp4103
Vcoords
p4104
(lp4105
I400
aI192
aI464
aI352
asVprob
p4106
I91
ssV2
p4107
(dp4108
Vcoords
p4109
(lp4110
I336
aI208
aI384
aI336
asVprob
p4111
I93
sstp4112
a(I1
V2017:08:01 16:12:36
p4113
(dp4114
V2
p4115
(dp4116
Vcoords
p4117
(lp4118
I384
aI224
aI432
aI352
asVprob
p4119
I88
sstp4120
a(I1
V2017:08:01 16:13:12
p4121
(dp4122
V1
p4123
(dp4124
Vcoords
p4125
(lp4126
I416
aI208
aI464
aI336
asVprob
p4127
I96
sstp4128
a(I2
V2017:08:01 16:17:24
p4129
(dp4130
V1
p4131
(dp4132
Vcoords
p4133
(lp4134
I432
aI224
aI480
aI336
asVprob
p4135
I95
ssV2
p4136
(dp4137
Vcoords
p4138
(lp4139
I368
aI224
aI416
aI352
asVprob
p4140
I94
sstp4141
a(I1
V2017:08:01 16:17:58
p4142
(dp4143
V1
p4144
(dp4145
Vcoords
p4146
(lp4147
I304
aI208
aI352
aI336
asVprob
p4148
I94
sstp4149
a(I1
V2017:08:01 16:18:20
p4150
(dp4151
V1
p4152
(dp4153
Vcoords
p4154
(lp4155
I432
aI224
aI480
aI352
asVprob
p4156
I95
sstp4157
a(I1
V2017:08:01 16:21:18
p4158
(dp4159
V1
p4160
(dp4161
Vcoords
p4162
(lp4163
I320
aI208
aI368
aI352
asVprob
p4164
I96
sstp4165
a(I2
V2017:08:01 16:22:14
p4166
(dp4167
V1
p4168
(dp4169
Vcoords
p4170
(lp4171
I608
aI144
aI704
aI464
asVprob
p4172
I96
ssV2
p4173
(dp4174
Vcoords
p4175
(lp4176
I688
aI176
aI752
aI416
asVprob
p4177
I89
sstp4178
a(I1
V2017:08:01 16:23:38
p4179
(dp4180
V1
p4181
(dp4182
Vcoords
p4183
(lp4184
I416
aI208
aI464
aI352
asVprob
p4185
I92
sstp4186
a(I1
V2017:08:01 16:24:02
p4187
(dp4188
V1
p4189
(dp4190
Vcoords
p4191
(lp4192
I144
aI240
aI192
aI368
asVprob
p4193
I86
sstp4194
a(I1
V2017:08:01 16:25:18
p4195
(dp4196
V1
p4197
(dp4198
Vcoords
p4199
(lp4200
I96
aI240
aI144
aI368
asVprob
p4201
I97
sstp4202
a(I1
V2017:08:01 16:25:28
p4203
(dp4204
V1
p4205
(dp4206
Vcoords
p4207
(lp4208
I96
aI208
aI144
aI384
asVprob
p4209
I85
sstp4210
a(I1
V2017:08:01 16:25:36
p4211
(dp4212
V1
p4213
(dp4214
Vcoords
p4215
(lp4216
I528
aI192
aI592
aI384
asVprob
p4217
I97
sstp4218
a(I2
V2017:08:01 16:25:52
p4219
(dp4220
V1
p4221
(dp4222
Vcoords
p4223
(lp4224
I320
aI224
aI368
aI352
asVprob
p4225
I91
ssV2
p4226
(dp4227
Vcoords
p4228
(lp4229
I288
aI224
aI336
aI336
asVprob
p4230
I86
sstp4231
a(I1
V2017:08:01 16:26:18
p4232
(dp4233
V1
p4234
(dp4235
Vcoords
p4236
(lp4237
I288
aI208
aI336
aI368
asVprob
p4238
I98
sstp4239
a(I1
V2017:08:01 16:26:34
p4240
(dp4241
V1
p4242
(dp4243
Vcoords
p4244
(lp4245
I96
aI208
aI144
aI384
asVprob
p4246
I92
sstp4247
a(I1
V2017:08:01 16:38:44
p4248
(dp4249
V1
p4250
(dp4251
Vcoords
p4252
(lp4253
I384
aI208
aI432
aI336
asVprob
p4254
I94
sstp4255
a(I1
V2017:08:01 16:39:10
p4256
(dp4257
V1
p4258
(dp4259
Vcoords
p4260
(lp4261
I288
aI240
aI336
aI336
asVprob
p4262
I87
sstp4263
a(I1
V2017:08:01 16:40:22
p4264
(dp4265
V1
p4266
(dp4267
Vcoords
p4268
(lp4269
I304
aI224
aI352
aI352
asVprob
p4270
I96
sstp4271
a(I1
V2017:08:01 16:41:52
p4272
(dp4273
V1
p4274
(dp4275
Vcoords
p4276
(lp4277
I208
aI224
aI256
aI368
asVprob
p4278
I96
sstp4279
a(I1
V2017:08:01 16:42:34
p4280
(dp4281
V1
p4282
(dp4283
Vcoords
p4284
(lp4285
I96
aI224
aI144
aI352
asVprob
p4286
I88
sstp4287
a(I2
V2017:08:01 16:43:02
p4288
(dp4289
V1
p4290
(dp4291
Vcoords
p4292
(lp4293
I352
aI224
aI400
aI352
asVprob
p4294
I86
ssV2
p4295
(dp4296
Vcoords
p4297
(lp4298
I368
aI224
aI416
aI352
asVprob
p4299
I81
sstp4300
a(I1
V2017:08:01 16:43:30
p4301
(dp4302
V1
p4303
(dp4304
Vcoords
p4305
(lp4306
I400
aI208
aI464
aI368
asVprob
p4307
I96
sstp4308
a(I1
V2017:08:01 16:44:10
p4309
(dp4310
V1
p4311
(dp4312
Vcoords
p4313
(lp4314
I416
aI192
aI480
aI368
asVprob
p4315
I98
sstp4316
a(I1
V2017:08:01 16:45:20
p4317
(dp4318
V1
p4319
(dp4320
Vcoords
p4321
(lp4322
I256
aI208
aI304
aI368
asVprob
p4323
I96
sstp4324
a(I1
V2017:08:01 16:47:10
p4325
(dp4326
V1
p4327
(dp4328
Vcoords
p4329
(lp4330
I48
aI240
aI96
aI368
asVprob
p4331
I94
sstp4332
a(I1
V2017:08:01 16:49:00
p4333
(dp4334
V1
p4335
(dp4336
Vcoords
p4337
(lp4338
I272
aI192
aI336
aI368
asVprob
p4339
I98
sstp4340
a(I1
V2017:08:01 16:49:40
p4341
(dp4342
V1
p4343
(dp4344
Vcoords
p4345
(lp4346
I288
aI240
aI336
aI336
asVprob
p4347
I90
sstp4348
a(I1
V2017:08:01 16:49:44
p4349
(dp4350
V1
p4351
(dp4352
Vcoords
p4353
(lp4354
I272
aI240
aI336
aI352
asVprob
p4355
I93
sstp4356
a(I1
V2017:08:01 16:50:08
p4357
(dp4358
V1
p4359
(dp4360
Vcoords
p4361
(lp4362
I272
aI240
aI336
aI336
asVprob
p4363
I93
sstp4364
a(I1
V2017:08:01 16:50:28
p4365
(dp4366
V1
p4367
(dp4368
Vcoords
p4369
(lp4370
I288
aI240
aI336
aI336
asVprob
p4371
I80
sstp4372
a(I1
V2017:08:01 16:50:44
p4373
(dp4374
V1
p4375
(dp4376
Vcoords
p4377
(lp4378
I288
aI240
aI336
aI336
asVprob
p4379
I85
sstp4380
a(I1
V2017:08:01 16:50:52
p4381
(dp4382
V2
p4383
(dp4384
Vcoords
p4385
(lp4386
I288
aI256
aI336
aI352
asVprob
p4387
I80
sstp4388
a(I1
V2017:08:01 16:52:12
p4389
(dp4390
V1
p4391
(dp4392
Vcoords
p4393
(lp4394
I432
aI224
aI480
aI336
asVprob
p4395
I96
sstp4396
a(I1
V2017:08:01 16:52:56
p4397
(dp4398
V1
p4399
(dp4400
Vcoords
p4401
(lp4402
I384
aI160
aI480
aI384
asVprob
p4403
I96
sstp4404
a(I3
V2017:08:01 16:53:12
p4405
(dp4406
V1
p4407
(dp4408
Vcoords
p4409
(lp4410
I288
aI208
aI336
aI368
asVprob
p4411
I96
ssV3
p4412
(dp4413
Vcoords
p4414
(lp4415
I368
aI208
aI416
aI336
asVprob
p4416
I81
ssV2
p4417
(dp4418
Vcoords
p4419
(lp4420
I400
aI208
aI448
aI352
asVprob
p4421
I87
sstp4422
a(I1
V2017:08:01 16:53:20
p4423
(dp4424
V1
p4425
(dp4426
Vcoords
p4427
(lp4428
I416
aI208
aI464
aI336
asVprob
p4429
I98
sstp4430
a(I1
V2017:08:01 16:53:48
p4431
(dp4432
V2
p4433
(dp4434
Vcoords
p4435
(lp4436
I272
aI240
aI336
aI336
asVprob
p4437
I80
sstp4438
a(I1
V2017:08:01 16:54:16
p4439
(dp4440
V1
p4441
(dp4442
Vcoords
p4443
(lp4444
I288
aI256
aI336
aI352
asVprob
p4445
I82
sstp4446
a(I1
V2017:08:01 16:55:06
p4447
(dp4448
V1
p4449
(dp4450
Vcoords
p4451
(lp4452
I272
aI240
aI336
aI336
asVprob
p4453
I80
sstp4454
a(I1
V2017:08:01 16:57:22
p4455
(dp4456
V1
p4457
(dp4458
Vcoords
p4459
(lp4460
I416
aI224
aI464
aI336
asVprob
p4461
I88
sstp4462
a(I1
V2017:08:01 16:57:42
p4463
(dp4464
V4
p4465
(dp4466
Vcoords
p4467
(lp4468
I288
aI256
aI336
aI336
asVprob
p4469
I83
sstp4470
a(I1
V2017:08:01 16:58:04
p4471
(dp4472
V3
p4473
(dp4474
Vcoords
p4475
(lp4476
I272
aI240
aI336
aI336
asVprob
p4477
I84
sstp4478
a(I1
V2017:08:01 16:58:20
p4479
(dp4480
V3
p4481
(dp4482
Vcoords
p4483
(lp4484
I272
aI256
aI336
aI352
asVprob
p4485
I85
sstp4486
a(I1
V2017:08:01 16:58:32
p4487
(dp4488
V3
p4489
(dp4490
Vcoords
p4491
(lp4492
I288
aI240
aI336
aI336
asVprob
p4493
I83
sstp4494
a(I1
V2017:08:01 16:58:40
p4495
(dp4496
V1
p4497
(dp4498
Vcoords
p4499
(lp4500
I272
aI240
aI336
aI336
asVprob
p4501
I87
sstp4502
a(I1
V2017:08:01 16:58:44
p4503
(dp4504
V1
p4505
(dp4506
Vcoords
p4507
(lp4508
I272
aI240
aI336
aI336
asVprob
p4509
I85
sstp4510
a(I1
V2017:08:01 16:58:48
p4511
(dp4512
V2
p4513
(dp4514
Vcoords
p4515
(lp4516
I272
aI240
aI336
aI336
asVprob
p4517
I84
sstp4518
a(I1
V2017:08:01 16:58:54
p4519
(dp4520
V2
p4521
(dp4522
Vcoords
p4523
(lp4524
I288
aI256
aI336
aI352
asVprob
p4525
I83
sstp4526
a(I1
V2017:08:01 16:59:00
p4527
(dp4528
V1
p4529
(dp4530
Vcoords
p4531
(lp4532
I288
aI240
aI336
aI320
asVprob
p4533
I81
sstp4534
a(I1
V2017:08:01 16:59:14
p4535
(dp4536
V1
p4537
(dp4538
Vcoords
p4539
(lp4540
I288
aI240
aI336
aI336
asVprob
p4541
I80
sstp4542
a(I1
V2017:08:01 16:59:30
p4543
(dp4544
V3
p4545
(dp4546
Vcoords
p4547
(lp4548
I288
aI256
aI336
aI352
asVprob
p4549
I81
sstp4550
a(I1
V2017:08:01 16:59:40
p4551
(dp4552
V1
p4553
(dp4554
Vcoords
p4555
(lp4556
I288
aI240
aI336
aI336
asVprob
p4557
I85
sstp4558
a(I1
V2017:08:01 16:59:48
p4559
(dp4560
V1
p4561
(dp4562
Vcoords
p4563
(lp4564
I416
aI240
aI464
aI320
asVprob
p4565
I83
sstp4566
a(I1
V2017:08:01 17:00:40
p4567
(dp4568
V1
p4569
(dp4570
Vcoords
p4571
(lp4572
I272
aI240
aI336
aI336
asVprob
p4573
I89
sstp4574
a(I1
V2017:08:01 17:00:44
p4575
(dp4576
V1
p4577
(dp4578
Vcoords
p4579
(lp4580
I272
aI240
aI336
aI336
asVprob
p4581
I87
sstp4582
a(I1
V2017:08:01 17:00:50
p4583
(dp4584
V1
p4585
(dp4586
Vcoords
p4587
(lp4588
I272
aI240
aI336
aI336
asVprob
p4589
I89
sstp4590
a(I1
V2017:08:01 17:01:00
p4591
(dp4592
V2
p4593
(dp4594
Vcoords
p4595
(lp4596
I288
aI240
aI336
aI352
asVprob
p4597
I84
sstp4598
a(I1
V2017:08:01 17:01:40
p4599
(dp4600
V1
p4601
(dp4602
Vcoords
p4603
(lp4604
I416
aI224
aI464
aI352
asVprob
p4605
I91
sstp4606
a(I1
V2017:08:01 17:02:26
p4607
(dp4608
V2
p4609
(dp4610
Vcoords
p4611
(lp4612
I272
aI240
aI336
aI336
asVprob
p4613
I86
sstp4614
a(I1
V2017:08:01 17:03:08
p4615
(dp4616
V3
p4617
(dp4618
Vcoords
p4619
(lp4620
I272
aI256
aI336
aI352
asVprob
p4621
I84
sstp4622
a(I1
V2017:08:01 17:03:14
p4623
(dp4624
V5
p4625
(dp4626
Vcoords
p4627
(lp4628
I272
aI240
aI336
aI336
asVprob
p4629
I83
sstp4630
a(I1
V2017:08:01 17:05:12
p4631
(dp4632
V1
p4633
(dp4634
Vcoords
p4635
(lp4636
I416
aI208
aI464
aI336
asVprob
p4637
I98
sstp4638
a(I1
V2017:08:01 17:05:18
p4639
(dp4640
V1
p4641
(dp4642
Vcoords
p4643
(lp4644
I320
aI208
aI368
aI336
asVprob
p4645
I92
sstp4646
a(I1
V2017:08:01 17:05:54
p4647
(dp4648
V2
p4649
(dp4650
Vcoords
p4651
(lp4652
I400
aI144
aI496
aI544
asVprob
p4653
I92
sstp4654
a(I1
V2017:08:01 17:06:14
p4655
(dp4656
V1
p4657
(dp4658
Vcoords
p4659
(lp4660
I368
aI-32
aI784
aI656
asVprob
p4661
I96
sstp4662
a(I1
V2017:08:01 17:06:24
p4663
(dp4664
V2
p4665
(dp4666
Vcoords
p4667
(lp4668
I224
aI48
aI400
aI624
asVprob
p4669
I95
sstp4670
a(I1
V2017:08:01 17:06:34
p4671
(dp4672
V1
p4673
(dp4674
Vcoords
p4675
(lp4676
I240
aI176
aI368
aI496
asVprob
p4677
I99
sstp4678
a(I1
V2017:08:01 17:06:54
p4679
(dp4680
V2
p4681
(dp4682
Vcoords
p4683
(lp4684
I416
aI208
aI480
aI352
asVprob
p4685
I88
sstp4686
a(I1
V2017:08:01 17:08:58
p4687
(dp4688
V1
p4689
(dp4690
Vcoords
p4691
(lp4692
I416
aI192
aI480
aI368
asVprob
p4693
I93
sstp4694
a(I1
V2017:08:01 17:11:02
p4695
(dp4696
V1
p4697
(dp4698
Vcoords
p4699
(lp4700
I256
aI224
aI352
aI576
asVprob
p4701
I93
sstp4702
a(I1
V2017:08:01 17:11:44
p4703
(dp4704
V1
p4705
(dp4706
Vcoords
p4707
(lp4708
I272
aI256
aI336
aI352
asVprob
p4709
I82
sstp4710
a(I2
V2017:08:01 17:13:58
p4711
(dp4712
V3
p4713
(dp4714
Vcoords
p4715
(lp4716
I320
aI208
aI384
aI480
asVprob
p4717
I86
ssV2
p4718
(dp4719
Vcoords
p4720
(lp4721
I464
aI192
aI544
aI400
asVprob
p4722
I97
sstp4723
a(I1
V2017:08:01 17:14:08
p4724
(dp4725
V1
p4726
(dp4727
Vcoords
p4728
(lp4729
I272
aI176
aI336
aI384
asVprob
p4730
I95
sstp4731
a(I1
V2017:08:01 17:14:16
p4732
(dp4733
V1
p4734
(dp4735
Vcoords
p4736
(lp4737
I416
aI240
aI464
aI336
asVprob
p4738
I96
sstp4739
a(I1
V2017:08:01 17:14:44
p4740
(dp4741
V1
p4742
(dp4743
Vcoords
p4744
(lp4745
I224
aI64
aI480
aI592
asVprob
p4746
I97
sstp4747
a(I1
V2017:08:01 17:15:10
p4748
(dp4749
V1
p4750
(dp4751
Vcoords
p4752
(lp4753
I288
aI256
aI336
aI336
asVprob
p4754
I95
sstp4755
a(I1
V2017:08:01 17:15:18
p4756
(dp4757
V2
p4758
(dp4759
Vcoords
p4760
(lp4761
I288
aI240
aI336
aI336
asVprob
p4762
I84
sstp4763
a(I2
V2017:08:01 17:15:22
p4764
(dp4765
V1
p4766
(dp4767
Vcoords
p4768
(lp4769
I16
aI240
aI64
aI368
asVprob
p4770
I96
ssV2
p4771
(dp4772
Vcoords
p4773
(lp4774
I80
aI240
aI128
aI368
asVprob
p4775
I90
sstp4776
a(I1
V2017:08:01 17:15:30
p4777
(dp4778
V1
p4779
(dp4780
Vcoords
p4781
(lp4782
I576
aI80
aI736
aI528
asVprob
p4783
I98
sstp4784
a(I1
V2017:08:01 17:15:54
p4785
(dp4786
V1
p4787
(dp4788
Vcoords
p4789
(lp4790
I400
aI192
aI464
aI368
asVprob
p4791
I96
sstp4792
a(I2
V2017:08:01 17:16:04
p4793
(dp4794
V1
p4795
(dp4796
Vcoords
p4797
(lp4798
I368
aI224
aI416
aI352
asVprob
p4799
I97
ssV2
p4800
(dp4801
Vcoords
p4802
(lp4803
I272
aI240
aI336
aI352
asVprob
p4804
I83
sstp4805
a(I1
V2017:08:01 17:16:10
p4806
(dp4807
V1
p4808
(dp4809
Vcoords
p4810
(lp4811
I224
aI240
aI272
aI368
asVprob
p4812
I80
sstp4813
a(I1
V2017:08:01 17:16:16
p4814
(dp4815
V1
p4816
(dp4817
Vcoords
p4818
(lp4819
I224
aI224
aI272
aI352
asVprob
p4820
I89
sstp4821
a(I1
V2017:08:01 17:16:20
p4822
(dp4823
V1
p4824
(dp4825
Vcoords
p4826
(lp4827
I224
aI224
aI272
aI352
asVprob
p4828
I92
sstp4829
a(I1
V2017:08:01 17:16:24
p4830
(dp4831
V2
p4832
(dp4833
Vcoords
p4834
(lp4835
I224
aI224
aI272
aI352
asVprob
p4836
I87
sstp4837
a(I1
V2017:08:01 17:16:30
p4838
(dp4839
V2
p4840
(dp4841
Vcoords
p4842
(lp4843
I320
aI224
aI368
aI352
asVprob
p4844
I94
sstp4845
a(I1
V2017:08:01 17:17:12
p4846
(dp4847
V2
p4848
(dp4849
Vcoords
p4850
(lp4851
I16
aI176
aI80
aI352
asVprob
p4852
I81
sstp4853
a(I1
V2017:08:01 17:17:28
p4854
(dp4855
V1
p4856
(dp4857
Vcoords
p4858
(lp4859
I400
aI64
aI704
aI576
asVprob
p4860
I98
sstp4861
a(I1
V2017:08:01 17:18:04
p4862
(dp4863
V1
p4864
(dp4865
Vcoords
p4866
(lp4867
I304
aI208
aI352
aI352
asVprob
p4868
I83
sstp4869
a(I1
V2017:08:01 17:20:14
p4870
(dp4871
V2
p4872
(dp4873
Vcoords
p4874
(lp4875
I432
aI224
aI480
aI352
asVprob
p4876
I92
sstp4877
a(I1
V2017:08:01 17:20:46
p4878
(dp4879
V1
p4880
(dp4881
Vcoords
p4882
(lp4883
I400
aI208
aI480
aI384
asVprob
p4884
I95
sstp4885
a(I1
V2017:08:01 17:20:58
p4886
(dp4887
V1
p4888
(dp4889
Vcoords
p4890
(lp4891
I432
aI224
aI480
aI304
asVprob
p4892
I87
sstp4893
a(I1
V2017:08:01 17:25:38
p4894
(dp4895
V1
p4896
(dp4897
Vcoords
p4898
(lp4899
I320
aI208
aI368
aI368
asVprob
p4900
I89
sstp4901
a(I1
V2017:08:01 17:25:50
p4902
(dp4903
V1
p4904
(dp4905
Vcoords
p4906
(lp4907
I416
aI224
aI464
aI336
asVprob
p4908
I91
sstp4909
a(I1
V2017:08:01 17:26:26
p4910
(dp4911
V2
p4912
(dp4913
Vcoords
p4914
(lp4915
I304
aI224
aI352
aI352
asVprob
p4916
I88
sstp4917
a(I1
V2017:08:01 17:26:44
p4918
(dp4919
V1
p4920
(dp4921
Vcoords
p4922
(lp4923
I288
aI256
aI336
aI352
asVprob
p4924
I91
sstp4925
a(I1
V2017:08:01 17:27:08
p4926
(dp4927
V1
p4928
(dp4929
Vcoords
p4930
(lp4931
I272
aI256
aI336
aI352
asVprob
p4932
I86
sstp4933
a(I1
V2017:08:01 17:27:14
p4934
(dp4935
V1
p4936
(dp4937
Vcoords
p4938
(lp4939
I288
aI256
aI336
aI352
asVprob
p4940
I86
sstp4941
a(I1
V2017:08:01 17:27:20
p4942
(dp4943
V1
p4944
(dp4945
Vcoords
p4946
(lp4947
I288
aI256
aI336
aI352
asVprob
p4948
I95
sstp4949
a(I1
V2017:08:01 17:27:34
p4950
(dp4951
V1
p4952
(dp4953
Vcoords
p4954
(lp4955
I288
aI256
aI336
aI336
asVprob
p4956
I89
sstp4957
a(I1
V2017:08:01 17:27:40
p4958
(dp4959
V1
p4960
(dp4961
Vcoords
p4962
(lp4963
I352
aI208
aI400
aI336
asVprob
p4964
I94
sstp4965
a(I1
V2017:08:01 17:27:52
p4966
(dp4967
V1
p4968
(dp4969
Vcoords
p4970
(lp4971
I272
aI256
aI336
aI352
asVprob
p4972
I85
sstp4973
a(I1
V2017:08:01 17:27:56
p4974
(dp4975
V1
p4976
(dp4977
Vcoords
p4978
(lp4979
I272
aI256
aI336
aI352
asVprob
p4980
I93
sstp4981
a(I1
V2017:08:01 17:28:06
p4982
(dp4983
V1
p4984
(dp4985
Vcoords
p4986
(lp4987
I288
aI256
aI336
aI352
asVprob
p4988
I83
sstp4989
a(I1
V2017:08:01 17:28:12
p4990
(dp4991
V1
p4992
(dp4993
Vcoords
p4994
(lp4995
I288
aI256
aI336
aI336
asVprob
p4996
I93
sstp4997
a(I1
V2017:08:01 17:28:30
p4998
(dp4999
V2
p5000
(dp5001
Vcoords
p5002
(lp5003
I288
aI256
aI336
aI352
asVprob
p5004
I80
sstp5005
a(I1
V2017:08:01 17:28:46
p5006
(dp5007
V1
p5008
(dp5009
Vcoords
p5010
(lp5011
I288
aI256
aI336
aI352
asVprob
p5012
I82
sstp5013
a(I1
V2017:08:01 17:28:58
p5014
(dp5015
V1
p5016
(dp5017
Vcoords
p5018
(lp5019
I288
aI256
aI336
aI352
asVprob
p5020
I93
sstp5021
a(I1
V2017:08:01 17:29:02
p5022
(dp5023
V1
p5024
(dp5025
Vcoords
p5026
(lp5027
I288
aI256
aI336
aI352
asVprob
p5028
I93
sstp5029
a(I1
V2017:08:01 17:29:12
p5030
(dp5031
V1
p5032
(dp5033
Vcoords
p5034
(lp5035
I288
aI256
aI336
aI352
asVprob
p5036
I93
sstp5037
a(I1
V2017:08:01 17:29:20
p5038
(dp5039
V2
p5040
(dp5041
Vcoords
p5042
(lp5043
I288
aI272
aI336
aI352
asVprob
p5044
I80
sstp5045
a(I1
V2017:08:01 17:29:26
p5046
(dp5047
V1
p5048
(dp5049
Vcoords
p5050
(lp5051
I288
aI256
aI336
aI336
asVprob
p5052
I88
sstp5053
a(I1
V2017:08:01 17:29:30
p5054
(dp5055
V1
p5056
(dp5057
Vcoords
p5058
(lp5059
I304
aI272
aI352
aI352
asVprob
p5060
I88
sstp5061
a(I1
V2017:08:01 17:29:40
p5062
(dp5063
V1
p5064
(dp5065
Vcoords
p5066
(lp5067
I288
aI272
aI336
aI352
asVprob
p5068
I81
sstp5069
a(I1
V2017:08:01 17:29:54
p5070
(dp5071
V1
p5072
(dp5073
Vcoords
p5074
(lp5075
I288
aI256
aI336
aI352
asVprob
p5076
I89
sstp5077
a(I1
V2017:08:01 17:30:04
p5078
(dp5079
V2
p5080
(dp5081
Vcoords
p5082
(lp5083
I288
aI256
aI336
aI352
asVprob
p5084
I80
sstp5085
a(I1
V2017:08:01 17:30:16
p5086
(dp5087
V1
p5088
(dp5089
Vcoords
p5090
(lp5091
I288
aI256
aI336
aI336
asVprob
p5092
I83
sstp5093
a(I1
V2017:08:01 17:30:24
p5094
(dp5095
V1
p5096
(dp5097
Vcoords
p5098
(lp5099
I288
aI256
aI336
aI352
asVprob
p5100
I92
sstp5101
a(I1
V2017:08:01 17:30:28
p5102
(dp5103
V1
p5104
(dp5105
Vcoords
p5106
(lp5107
I288
aI256
aI336
aI352
asVprob
p5108
I92
sstp5109
a(I1
V2017:08:01 17:30:44
p5110
(dp5111
V2
p5112
(dp5113
Vcoords
p5114
(lp5115
I432
aI224
aI480
aI336
asVprob
p5116
I89
sstp5117
a(I1
V2017:08:01 17:30:52
p5118
(dp5119
V1
p5120
(dp5121
Vcoords
p5122
(lp5123
I288
aI256
aI336
aI336
asVprob
p5124
I90
sstp5125
a(I1
V2017:08:01 17:30:56
p5126
(dp5127
V1
p5128
(dp5129
Vcoords
p5130
(lp5131
I288
aI256
aI336
aI336
asVprob
p5132
I90
sstp5133
a(I1
V2017:08:01 17:31:04
p5134
(dp5135
V1
p5136
(dp5137
Vcoords
p5138
(lp5139
I288
aI256
aI336
aI336
asVprob
p5140
I87
sstp5141
a(I1
V2017:08:01 17:31:08
p5142
(dp5143
V1
p5144
(dp5145
Vcoords
p5146
(lp5147
I288
aI256
aI336
aI352
asVprob
p5148
I82
sstp5149
a(I1
V2017:08:01 17:31:14
p5150
(dp5151
V1
p5152
(dp5153
Vcoords
p5154
(lp5155
I288
aI256
aI336
aI352
asVprob
p5156
I82
sstp5157
a(I1
V2017:08:01 17:31:38
p5158
(dp5159
V1
p5160
(dp5161
Vcoords
p5162
(lp5163
I288
aI256
aI336
aI352
asVprob
p5164
I88
sstp5165
a(I1
V2017:08:01 17:31:56
p5166
(dp5167
V2
p5168
(dp5169
Vcoords
p5170
(lp5171
I288
aI272
aI336
aI352
asVprob
p5172
I80
sstp5173
a(I1
V2017:08:01 17:32:02
p5174
(dp5175
V1
p5176
(dp5177
Vcoords
p5178
(lp5179
I288
aI256
aI336
aI352
asVprob
p5180
I84
sstp5181
a(I1
V2017:08:01 17:32:08
p5182
(dp5183
V1
p5184
(dp5185
Vcoords
p5186
(lp5187
I288
aI256
aI336
aI352
asVprob
p5188
I80
sstp5189
a(I1
V2017:08:01 17:32:18
p5190
(dp5191
V1
p5192
(dp5193
Vcoords
p5194
(lp5195
I288
aI256
aI336
aI352
asVprob
p5196
I86
sstp5197
a(I1
V2017:08:01 17:32:50
p5198
(dp5199
V1
p5200
(dp5201
Vcoords
p5202
(lp5203
I288
aI256
aI336
aI336
asVprob
p5204
I91
sstp5205
a(I1
V2017:08:01 17:33:24
p5206
(dp5207
V1
p5208
(dp5209
Vcoords
p5210
(lp5211
I288
aI256
aI336
aI352
asVprob
p5212
I82
sstp5213
a(I1
V2017:08:01 17:33:28
p5214
(dp5215
V1
p5216
(dp5217
Vcoords
p5218
(lp5219
I288
aI256
aI336
aI352
asVprob
p5220
I89
sstp5221
a(I1
V2017:08:01 17:33:32
p5222
(dp5223
V1
p5224
(dp5225
Vcoords
p5226
(lp5227
I288
aI256
aI336
aI352
asVprob
p5228
I88
sstp5229
a(I1
V2017:08:01 17:33:40
p5230
(dp5231
V1
p5232
(dp5233
Vcoords
p5234
(lp5235
I288
aI256
aI336
aI352
asVprob
p5236
I91
sstp5237
a(I2
V2017:08:01 17:34:16
p5238
(dp5239
V1
p5240
(dp5241
Vcoords
p5242
(lp5243
I576
aI224
aI656
aI416
asVprob
p5244
I97
ssV2
p5245
(dp5246
Vcoords
p5247
(lp5248
I384
aI256
aI448
aI416
asVprob
p5249
I92
sstp5250
a(I1
V2017:08:01 17:38:52
p5251
(dp5252
V1
p5253
(dp5254
Vcoords
p5255
(lp5256
I464
aI240
aI512
aI336
asVprob
p5257
I89
sstp5258
a(I1
V2017:08:01 17:39:44
p5259
(dp5260
V1
p5261
(dp5262
Vcoords
p5263
(lp5264
I272
aI192
aI352
aI400
asVprob
p5265
I98
sstp5266
a(I2
V2017:08:01 17:44:36
p5267
(dp5268
V1
p5269
(dp5270
Vcoords
p5271
(lp5272
I224
aI208
aI272
aI352
asVprob
p5273
I91
ssV2
p5274
(dp5275
Vcoords
p5276
(lp5277
I272
aI208
aI320
aI352
asVprob
p5278
I86
sstp5279
a(I2
V2017:08:01 17:44:42
p5280
(dp5281
V3
p5282
(dp5283
Vcoords
p5284
(lp5285
I352
aI224
aI400
aI368
asVprob
p5286
I83
ssV2
p5287
(dp5288
Vcoords
p5289
(lp5290
I304
aI208
aI352
aI368
asVprob
p5291
I94
sstp5292
a(I1
V2017:08:01 17:44:46
p5293
(dp5294
V1
p5295
(dp5296
Vcoords
p5297
(lp5298
I432
aI224
aI480
aI336
asVprob
p5299
I81
sstp5300
a(I1
V2017:08:01 17:51:44
p5301
(dp5302
V1
p5303
(dp5304
Vcoords
p5305
(lp5306
I432
aI240
aI480
aI336
asVprob
p5307
I89
sstp5308
a(I1
V2017:08:01 17:54:06
p5309
(dp5310
V1
p5311
(dp5312
Vcoords
p5313
(lp5314
I432
aI208
aI496
aI336
asVprob
p5315
I92
sstp5316
a(I1
V2017:08:01 17:56:46
p5317
(dp5318
V1
p5319
(dp5320
Vcoords
p5321
(lp5322
I400
aI224
aI448
aI352
asVprob
p5323
I86
sstp5324
a(I1
V2017:08:01 17:58:42
p5325
(dp5326
V1
p5327
(dp5328
Vcoords
p5329
(lp5330
I272
aI208
aI352
aI416
asVprob
p5331
I98
sstp5332
a(I1
V2017:08:01 18:00:18
p5333
(dp5334
V1
p5335
(dp5336
Vcoords
p5337
(lp5338
I416
aI224
aI464
aI352
asVprob
p5339
I92
sstp5340
a(I1
V2017:08:01 18:01:32
p5341
(dp5342
V2
p5343
(dp5344
Vcoords
p5345
(lp5346
I352
aI224
aI400
aI352
asVprob
p5347
I92
sstp5348
a(I1
V2017:08:01 18:02:50
p5349
(dp5350
V1
p5351
(dp5352
Vcoords
p5353
(lp5354
I560
aI208
aI608
aI368
asVprob
p5355
I97
sstp5356
a(I1
V2017:08:01 18:04:24
p5357
(dp5358
V1
p5359
(dp5360
Vcoords
p5361
(lp5362
I432
aI208
aI480
aI336
asVprob
p5363
I96
sstp5364
a(I1
V2017:08:01 18:07:08
p5365
(dp5366
V1
p5367
(dp5368
Vcoords
p5369
(lp5370
I432
aI208
aI480
aI352
asVprob
p5371
I98
sstp5372
a(I1
V2017:08:01 18:09:12
p5373
(dp5374
V1
p5375
(dp5376
Vcoords
p5377
(lp5378
I432
aI224
aI480
aI352
asVprob
p5379
I90
sstp5380
a(I1
V2017:08:01 18:12:26
p5381
(dp5382
V1
p5383
(dp5384
Vcoords
p5385
(lp5386
I416
aI192
aI480
aI384
asVprob
p5387
I98
sstp5388
a(I1
V2017:08:01 18:15:36
p5389
(dp5390
V1
p5391
(dp5392
Vcoords
p5393
(lp5394
I416
aI224
aI464
aI352
asVprob
p5395
I94
sstp5396
a(I2
V2017:08:01 18:18:22
p5397
(dp5398
V1
p5399
(dp5400
Vcoords
p5401
(lp5402
I160
aI224
aI208
aI368
asVprob
p5403
I96
ssV2
p5404
(dp5405
Vcoords
p5406
(lp5407
I336
aI208
aI384
aI368
asVprob
p5408
I94
sstp5409
a(I1
V2017:08:01 18:18:32
p5410
(dp5411
V1
p5412
(dp5413
Vcoords
p5414
(lp5415
I160
aI224
aI208
aI352
asVprob
p5416
I87
sstp5417
a(I1
V2017:08:01 18:18:48
p5418
(dp5419
V1
p5420
(dp5421
Vcoords
p5422
(lp5423
I208
aI224
aI256
aI352
asVprob
p5424
I94
sstp5425
a(I1
V2017:08:01 18:18:52
p5426
(dp5427
V2
p5428
(dp5429
Vcoords
p5430
(lp5431
I288
aI240
aI336
aI336
asVprob
p5432
I84
sstp5433
a(I1
V2017:08:01 18:19:10
p5434
(dp5435
V2
p5436
(dp5437
Vcoords
p5438
(lp5439
I288
aI256
aI336
aI352
asVprob
p5440
I83
sstp5441
a(I1
V2017:08:01 18:19:20
p5442
(dp5443
V1
p5444
(dp5445
Vcoords
p5446
(lp5447
I208
aI240
aI256
aI368
asVprob
p5448
I95
sstp5449
a(I2
V2017:08:01 18:23:30
p5450
(dp5451
V1
p5452
(dp5453
Vcoords
p5454
(lp5455
I80
aI224
aI128
aI384
asVprob
p5456
I95
ssV2
p5457
(dp5458
Vcoords
p5459
(lp5460
I96
aI224
aI144
aI384
asVprob
p5461
I88
sstp5462
a(I1
V2017:08:01 18:24:28
p5463
(dp5464
V1
p5465
(dp5466
Vcoords
p5467
(lp5468
I128
aI224
aI176
aI384
asVprob
p5469
I92
sstp5470
a(I1
V2017:08:01 18:34:20
p5471
(dp5472
V1
p5473
(dp5474
Vcoords
p5475
(lp5476
I272
aI192
aI352
aI384
asVprob
p5477
I98
sstp5478
a(I1
V2017:08:01 18:34:24
p5479
(dp5480
V1
p5481
(dp5482
Vcoords
p5483
(lp5484
I416
aI240
aI464
aI320
asVprob
p5485
I87
sstp5486
a(I1
V2017:08:01 18:37:36
p5487
(dp5488
V1
p5489
(dp5490
Vcoords
p5491
(lp5492
I384
aI208
aI432
aI336
asVprob
p5493
I86
sstp5494
a(I1
V2017:08:01 18:38:42
p5495
(dp5496
V1
p5497
(dp5498
Vcoords
p5499
(lp5500
I384
aI176
aI480
aI400
asVprob
p5501
I99
sstp5502
a(I2
V2017:08:01 18:39:50
p5503
(dp5504
V1
p5505
(dp5506
Vcoords
p5507
(lp5508
I592
aI224
aI640
aI368
asVprob
p5509
I96
ssV2
p5510
(dp5511
Vcoords
p5512
(lp5513
I672
aI224
aI720
aI336
asVprob
p5514
I92
sstp5515
a(I1
V2017:08:01 18:40:38
p5516
(dp5517
V1
p5518
(dp5519
Vcoords
p5520
(lp5521
I592
aI224
aI656
aI368
asVprob
p5522
I94
sstp5523
a(I1
V2017:08:01 18:58:42
p5524
(dp5525
V1
p5526
(dp5527
Vcoords
p5528
(lp5529
I400
aI208
aI480
aI384
asVprob
p5530
I97
sstp5531
a(I1
V2017:08:01 19:01:50
p5532
(dp5533
V1
p5534
(dp5535
Vcoords
p5536
(lp5537
I368
aI208
aI416
aI368
asVprob
p5538
I96
sstp5539
a(I1
V2017:08:01 19:02:18
p5540
(dp5541
V1
p5542
(dp5543
Vcoords
p5544
(lp5545
I432
aI240
aI480
aI320
asVprob
p5546
I85
sstp5547
a(I1
V2017:08:01 19:02:50
p5548
(dp5549
V1
p5550
(dp5551
Vcoords
p5552
(lp5553
I624
aI176
aI720
aI400
asVprob
p5554
I94
sstp5555
a(I3
V2017:08:01 19:07:36
p5556
(dp5557
V1
p5558
(dp5559
Vcoords
p5560
(lp5561
I256
aI176
aI416
aI480
asVprob
p5562
I97
ssV3
p5563
(dp5564
Vcoords
p5565
(lp5566
I672
aI224
aI720
aI336
asVprob
p5567
I95
ssV2
p5568
(dp5569
Vcoords
p5570
(lp5571
I432
aI240
aI480
aI352
asVprob
p5572
I95
sstp5573
a(I1
V2017:08:01 19:11:00
p5574
(dp5575
V2
p5576
(dp5577
Vcoords
p5578
(lp5579
I240
aI192
aI288
aI368
asVprob
p5580
I88
sstp5581
a(I1
V2017:08:01 19:11:06
p5582
(dp5583
V1
p5584
(dp5585
Vcoords
p5586
(lp5587
I400
aI224
aI448
aI352
asVprob
p5588
I92
sstp5589
a(I1
V2017:08:01 19:13:12
p5590
(dp5591
V1
p5592
(dp5593
Vcoords
p5594
(lp5595
I416
aI224
aI464
aI336
asVprob
p5596
I82
sstp5597
a(I1
V2017:08:01 19:16:42
p5598
(dp5599
V1
p5600
(dp5601
Vcoords
p5602
(lp5603
I448
aI64
aI704
aI544
asVprob
p5604
I98
sstp5605
a(I1
V2017:08:01 19:17:18
p5606
(dp5607
V1
p5608
(dp5609
Vcoords
p5610
(lp5611
I704
aI224
aI768
aI368
asVprob
p5612
I96
sstp5613
a(I1
V2017:08:01 19:19:36
p5614
(dp5615
V1
p5616
(dp5617
Vcoords
p5618
(lp5619
I256
aI208
aI304
aI368
asVprob
p5620
I96
sstp5621
a(I2
V2017:08:01 19:19:52
p5622
(dp5623
V1
p5624
(dp5625
Vcoords
p5626
(lp5627
I384
aI224
aI432
aI352
asVprob
p5628
I88
ssV2
p5629
(dp5630
Vcoords
p5631
(lp5632
I304
aI208
aI352
aI352
asVprob
p5633
I84
sstp5634
a(I2
V2017:08:01 19:20:06
p5635
(dp5636
V1
p5637
(dp5638
Vcoords
p5639
(lp5640
I592
aI176
aI704
aI384
asVprob
p5641
I98
ssV2
p5642
(dp5643
Vcoords
p5644
(lp5645
I512
aI208
aI576
aI352
asVprob
p5646
I94
sstp5647
a(I1
V2017:08:01 19:20:14
p5648
(dp5649
V4
p5650
(dp5651
Vcoords
p5652
(lp5653
I752
aI192
aI800
aI352
asVprob
p5654
I80
sstp5655
a(I1
V2017:08:01 19:20:30
p5656
(dp5657
V1
p5658
(dp5659
Vcoords
p5660
(lp5661
I288
aI272
aI336
aI352
asVprob
p5662
I85
sstp5663
a.