(lp0
(I1
V2017:07:28 10:18:38
p1
(dp2
V1
p3
(dp4
Vcoords
p5
(lp6
I720
aI16
aI800
aI432
asVprob
p7
I83
sstp8
a(I1
V2017:07:28 10:19:26
p9
(dp10
V1
p11
(dp12
Vcoords
p13
(lp14
I208
aI-32
aI560
aI592
asVprob
p15
I98
sstp16
a(I1
V2017:07:28 10:19:56
p17
(dp18
V2
p19
(dp20
Vcoords
p21
(lp22
I304
aI240
aI336
aI320
asVprob
p23
I92
sstp24
a(I1
V2017:07:28 10:20:02
p25
(dp26
V1
p27
(dp28
Vcoords
p29
(lp30
I624
aI160
aI800
aI624
asVprob
p31
I84
sstp32
a(I2
V2017:07:28 10:20:58
p33
(dp34
V1
p35
(dp36
Vcoords
p37
(lp38
I304
aI224
aI352
aI352
asVprob
p39
I94
ssV2
p40
(dp41
Vcoords
p42
(lp43
I272
aI240
aI304
aI336
asVprob
p44
I87
sstp45
a(I1
V2017:07:28 10:21:20
p46
(dp47
V1
p48
(dp49
Vcoords
p50
(lp51
I96
aI-16
aI272
aI592
asVprob
p52
I87
sstp53
a(I1
V2017:07:28 10:22:36
p54
(dp55
V1
p56
(dp57
Vcoords
p58
(lp59
I224
aI192
aI288
aI368
asVprob
p60
I92
sstp61
a(I1
V2017:07:28 10:22:42
p62
(dp63
V1
p64
(dp65
Vcoords
p66
(lp67
I384
aI256
aI416
aI320
asVprob
p68
I87
sstp69
a(I1
V2017:07:28 10:23:50
p70
(dp71
V1
p72
(dp73
Vcoords
p74
(lp75
I144
aI176
aI240
aI432
asVprob
p76
I92
sstp77
a(I1
V2017:07:28 10:28:20
p78
(dp79
V1
p80
(dp81
Vcoords
p82
(lp83
I352
aI256
aI384
aI320
asVprob
p84
I86
sstp85
a(I1
V2017:07:28 10:29:52
p86
(dp87
V1
p88
(dp89
Vcoords
p90
(lp91
I304
aI240
aI336
aI320
asVprob
p92
I92
sstp93
a(I2
V2017:07:28 10:30:22
p94
(dp95
V1
p96
(dp97
Vcoords
p98
(lp99
I272
aI224
aI320
aI336
asVprob
p100
I95
ssV2
p101
(dp102
Vcoords
p103
(lp104
I320
aI224
aI368
aI336
asVprob
p105
I87
sstp106
a(I1
V2017:07:28 10:38:02
p107
(dp108
V1
p109
(dp110
Vcoords
p111
(lp112
I352
aI240
aI384
aI336
asVprob
p113
I88
sstp114
a(I1
V2017:07:28 10:38:56
p115
(dp116
V1
p117
(dp118
Vcoords
p119
(lp120
I336
aI240
aI368
aI320
asVprob
p121
I94
sstp122
a(I1
V2017:07:28 10:42:10
p123
(dp124
V1
p125
(dp126
Vcoords
p127
(lp128
I240
aI160
aI336
aI416
asVprob
p129
I99
sstp130
a(I1
V2017:07:28 10:42:40
p131
(dp132
V1
p133
(dp134
Vcoords
p135
(lp136
I208
aI144
aI304
aI448
asVprob
p137
I97
sstp138
a(I1
V2017:07:28 10:42:52
p139
(dp140
V1
p141
(dp142
Vcoords
p143
(lp144
I352
aI256
aI384
aI320
asVprob
p145
I88
sstp146
a(I1
V2017:07:28 10:44:28
p147
(dp148
V1
p149
(dp150
Vcoords
p151
(lp152
I352
aI240
aI384
aI320
asVprob
p153
I88
sstp154
a(I2
V2017:07:28 10:44:54
p155
(dp156
V1
p157
(dp158
Vcoords
p159
(lp160
I256
aI224
aI304
aI336
asVprob
p161
I94
ssV2
p162
(dp163
Vcoords
p164
(lp165
I240
aI224
aI288
aI336
asVprob
p166
I88
sstp167
a(I1
V2017:07:28 10:45:18
p168
(dp169
V1
p170
(dp171
Vcoords
p172
(lp173
I160
aI192
aI240
aI400
asVprob
p174
I97
sstp175
a(I1
V2017:07:28 10:46:08
p176
(dp177
V1
p178
(dp179
Vcoords
p180
(lp181
I352
aI224
aI400
aI336
asVprob
p182
I98
sstp183
a(I2
V2017:07:28 10:47:24
p184
(dp185
V1
p186
(dp187
Vcoords
p188
(lp189
I96
aI80
aI240
aI448
asVprob
p190
I98
ssV2
p191
(dp192
Vcoords
p193
(lp194
I272
aI240
aI320
aI336
asVprob
p195
I94
sstp196
a(I2
V2017:07:28 10:48:30
p197
(dp198
V1
p199
(dp200
Vcoords
p201
(lp202
I272
aI224
aI320
aI336
asVprob
p203
I97
ssV3
p204
(dp205
Vcoords
p206
(lp207
I352
aI240
aI400
aI336
asVprob
p208
I87
sstp209
a(I1
V2017:07:28 10:49:12
p210
(dp211
V1
p212
(dp213
Vcoords
p214
(lp215
I240
aI240
aI288
aI336
asVprob
p216
I90
sstp217
a(I1
V2017:07:28 10:49:26
p218
(dp219
V1
p220
(dp221
Vcoords
p222
(lp223
I608
aI240
aI656
aI368
asVprob
p224
I96
sstp225
a(I1
V2017:07:28 10:49:30
p226
(dp227
V1
p228
(dp229
Vcoords
p230
(lp231
I272
aI224
aI304
aI336
asVprob
p232
I93
sstp233
a(I1
V2017:07:28 10:49:38
p234
(dp235
V1
p236
(dp237
Vcoords
p238
(lp239
I448
aI224
aI496
aI352
asVprob
p240
I96
sstp241
a(I1
V2017:07:28 10:49:46
p242
(dp243
V1
p244
(dp245
Vcoords
p246
(lp247
I640
aI224
aI688
aI352
asVprob
p248
I95
sstp249
a(I1
V2017:07:28 10:49:58
p250
(dp251
V2
p252
(dp253
Vcoords
p254
(lp255
I672
aI240
aI720
aI368
asVprob
p256
I82
sstp257
a(I1
V2017:07:28 10:50:28
p258
(dp259
V1
p260
(dp261
Vcoords
p262
(lp263
I352
aI240
aI384
aI304
asVprob
p264
I94
sstp265
a(I1
V2017:07:28 10:50:42
p266
(dp267
V1
p268
(dp269
Vcoords
p270
(lp271
I320
aI224
aI368
aI336
asVprob
p272
I88
sstp273
a(I1
V2017:07:28 10:51:24
p274
(dp275
V1
p276
(dp277
Vcoords
p278
(lp279
I256
aI144
aI352
aI432
asVprob
p280
I97
sstp281
a(I1
V2017:07:28 10:52:40
p282
(dp283
V1
p284
(dp285
Vcoords
p286
(lp287
I336
aI240
aI368
aI320
asVprob
p288
I97
sstp289
a(I1
V2017:07:28 10:53:18
p290
(dp291
V1
p292
(dp293
Vcoords
p294
(lp295
I288
aI240
aI336
aI336
asVprob
p296
I89
sstp297
a(I1
V2017:07:28 10:53:34
p298
(dp299
V1
p300
(dp301
Vcoords
p302
(lp303
I256
aI112
aI352
aI432
asVprob
p304
I95
sstp305
a(I1
V2017:07:28 10:54:40
p306
(dp307
V1
p308
(dp309
Vcoords
p310
(lp311
I240
aI224
aI304
aI352
asVprob
p312
I97
sstp313
a(I2
V2017:07:28 10:55:58
p314
(dp315
V1
p316
(dp317
Vcoords
p318
(lp319
I368
aI208
aI432
aI368
asVprob
p320
I96
ssV2
p321
(dp322
Vcoords
p323
(lp324
I320
aI224
aI368
aI352
asVprob
p325
I94
sstp326
a(I1
V2017:07:28 10:57:02
p327
(dp328
V1
p329
(dp330
Vcoords
p331
(lp332
I320
aI240
aI368
aI352
asVprob
p333
I95
sstp334
a(I1
V2017:07:28 10:57:48
p335
(dp336
V1
p337
(dp338
Vcoords
p339
(lp340
I368
aI240
aI400
aI320
asVprob
p341
I90
sstp342
a(I1
V2017:07:28 10:58:24
p343
(dp344
V1
p345
(dp346
Vcoords
p347
(lp348
I288
aI192
aI352
aI384
asVprob
p349
I98
sstp350
a(I2
V2017:07:28 11:00:00
p351
(dp352
V1
p353
(dp354
Vcoords
p355
(lp356
I544
aI208
aI592
aI368
asVprob
p357
I99
ssV2
p358
(dp359
Vcoords
p360
(lp361
I672
aI240
aI720
aI368
asVprob
p362
I85
sstp363
a(I2
V2017:07:28 11:00:08
p364
(dp365
V1
p366
(dp367
Vcoords
p368
(lp369
I432
aI224
aI480
aI352
asVprob
p370
I97
ssV2
p371
(dp372
Vcoords
p373
(lp374
I608
aI224
aI656
aI384
asVprob
p375
I96
sstp376
a(I1
V2017:07:28 11:00:36
p377
(dp378
V1
p379
(dp380
Vcoords
p381
(lp382
I384
aI256
aI416
aI320
asVprob
p383
I95
sstp384
a(I1
V2017:07:28 11:00:50
p385
(dp386
V1
p387
(dp388
Vcoords
p389
(lp390
I320
aI224
aI368
aI368
asVprob
p391
I95
sstp392
a(I1
V2017:07:28 11:01:26
p393
(dp394
V1
p395
(dp396
Vcoords
p397
(lp398
I128
aI128
aI256
aI480
asVprob
p399
I98
sstp400
a(I1
V2017:07:28 11:01:54
p401
(dp402
V1
p403
(dp404
Vcoords
p405
(lp406
I96
aI160
aI208
aI432
asVprob
p407
I98
sstp408
a(I1
V2017:07:28 11:02:02
p409
(dp410
V1
p411
(dp412
Vcoords
p413
(lp414
I272
aI224
aI304
aI336
asVprob
p415
I83
sstp416
a(I1
V2017:07:28 11:04:42
p417
(dp418
V1
p419
(dp420
Vcoords
p421
(lp422
I144
aI192
aI208
aI384
asVprob
p423
I98
sstp424
a(I2
V2017:07:28 11:04:48
p425
(dp426
V1
p427
(dp428
Vcoords
p429
(lp430
I320
aI256
aI352
aI320
asVprob
p431
I87
ssV2
p432
(dp433
Vcoords
p434
(lp435
I336
aI256
aI368
aI320
asVprob
p436
I87
sstp437
a(I2
V2017:07:28 11:05:44
p438
(dp439
V1
p440
(dp441
Vcoords
p442
(lp443
I272
aI176
aI352
aI400
asVprob
p444
I98
ssV2
p445
(dp446
Vcoords
p447
(lp448
I80
aI112
aI192
aI480
asVprob
p449
I95
sstp450
a(I1
V2017:07:28 11:06:58
p451
(dp452
V1
p453
(dp454
Vcoords
p455
(lp456
I320
aI224
aI368
aI368
asVprob
p457
I98
sstp458
a(I2
V2017:07:28 11:07:18
p459
(dp460
V1
p461
(dp462
Vcoords
p463
(lp464
I304
aI224
aI352
aI352
asVprob
p465
I95
ssV2
p466
(dp467
Vcoords
p468
(lp469
I320
aI224
aI368
aI352
asVprob
p470
I87
sstp471
a(I1
V2017:07:28 11:07:40
p472
(dp473
V1
p474
(dp475
Vcoords
p476
(lp477
I16
aI0
aI224
aI640
asVprob
p478
I83
sstp479
a(I1
V2017:07:28 11:07:52
p480
(dp481
V1
p482
(dp483
Vcoords
p484
(lp485
I272
aI160
aI352
aI432
asVprob
p486
I98
sstp487
a(I2
V2017:07:28 11:08:14
p488
(dp489
V1
p490
(dp491
Vcoords
p492
(lp493
I304
aI240
aI336
aI320
asVprob
p494
I93
ssV2
p495
(dp496
Vcoords
p497
(lp498
I352
aI240
aI384
aI320
asVprob
p499
I85
sstp500
a(I1
V2017:07:28 11:09:10
p501
(dp502
V1
p503
(dp504
Vcoords
p505
(lp506
I336
aI240
aI368
aI320
asVprob
p507
I83
sstp508
a(I1
V2017:07:28 11:09:20
p509
(dp510
V1
p511
(dp512
Vcoords
p513
(lp514
I176
aI208
aI240
aI368
asVprob
p515
I91
sstp516
a(I1
V2017:07:28 11:09:50
p517
(dp518
V1
p519
(dp520
Vcoords
p521
(lp522
I400
aI128
aI528
aI464
asVprob
p523
I98
sstp524
a(I2
V2017:07:28 11:10:16
p525
(dp526
V1
p527
(dp528
Vcoords
p529
(lp530
I352
aI224
aI400
aI352
asVprob
p531
I96
ssV2
p532
(dp533
Vcoords
p534
(lp535
I368
aI224
aI416
aI336
asVprob
p536
I90
sstp537
a(I1
V2017:07:28 11:10:32
p538
(dp539
V1
p540
(dp541
Vcoords
p542
(lp543
I400
aI256
aI432
aI320
asVprob
p544
I83
sstp545
a(I1
V2017:07:28 11:11:00
p546
(dp547
V2
p548
(dp549
Vcoords
p550
(lp551
I688
aI224
aI736
aI368
asVprob
p552
I81
sstp553
a(I1
V2017:07:28 11:15:36
p554
(dp555
V1
p556
(dp557
Vcoords
p558
(lp559
I352
aI256
aI384
aI320
asVprob
p560
I92
sstp561
a(I1
V2017:07:28 11:16:52
p562
(dp563
V1
p564
(dp565
Vcoords
p566
(lp567
I192
aI176
aI272
aI384
asVprob
p568
I98
sstp569
a(I1
V2017:07:28 11:17:58
p570
(dp571
V1
p572
(dp573
Vcoords
p574
(lp575
I288
aI144
aI384
aI416
asVprob
p576
I99
sstp577
a(I1
V2017:07:28 11:18:10
p578
(dp579
V1
p580
(dp581
Vcoords
p582
(lp583
I352
aI224
aI400
aI336
asVprob
p584
I91
sstp585
a(I1
V2017:07:28 11:19:24
p586
(dp587
V1
p588
(dp589
Vcoords
p590
(lp591
I304
aI240
aI336
aI336
asVprob
p592
I94
sstp593
a(I1
V2017:07:28 11:20:06
p594
(dp595
V1
p596
(dp597
Vcoords
p598
(lp599
I272
aI176
aI352
aI384
asVprob
p600
I98
sstp601
a(I2
V2017:07:28 11:24:34
p602
(dp603
V1
p604
(dp605
Vcoords
p606
(lp607
I432
aI256
aI464
aI336
asVprob
p608
I91
ssV2
p609
(dp610
Vcoords
p611
(lp612
I368
aI240
aI400
aI304
asVprob
p613
I86
sstp614
a(I2
V2017:07:28 11:24:38
p615
(dp616
V1
p617
(dp618
Vcoords
p619
(lp620
I256
aI224
aI304
aI336
asVprob
p621
I90
ssV2
p622
(dp623
Vcoords
p624
(lp625
I320
aI240
aI352
aI320
asVprob
p626
I80
sstp627
a(I2
V2017:07:28 11:25:00
p628
(dp629
V1
p630
(dp631
Vcoords
p632
(lp633
I272
aI224
aI320
aI336
asVprob
p634
I90
ssV2
p635
(dp636
Vcoords
p637
(lp638
I256
aI224
aI304
aI336
asVprob
p639
I84
sstp640
a(I1
V2017:07:28 11:25:08
p641
(dp642
V1
p643
(dp644
Vcoords
p645
(lp646
I256
aI224
aI304
aI352
asVprob
p647
I95
sstp648
a(I2
V2017:07:28 11:25:30
p649
(dp650
V1
p651
(dp652
Vcoords
p653
(lp654
I416
aI240
aI464
aI352
asVprob
p655
I94
ssV2
p656
(dp657
Vcoords
p658
(lp659
I272
aI240
aI320
aI336
asVprob
p660
I91
sstp661
a(I1
V2017:07:28 11:25:50
p662
(dp663
V1
p664
(dp665
Vcoords
p666
(lp667
I256
aI224
aI304
aI336
asVprob
p668
I91
sstp669
a(I2
V2017:07:28 11:26:12
p670
(dp671
V1
p672
(dp673
Vcoords
p674
(lp675
I256
aI224
aI304
aI336
asVprob
p676
I92
ssV3
p677
(dp678
Vcoords
p679
(lp680
I272
aI224
aI320
aI336
asVprob
p681
I81
sstp682
a(I1
V2017:07:28 11:26:24
p683
(dp684
V1
p685
(dp686
Vcoords
p687
(lp688
I272
aI224
aI320
aI336
asVprob
p689
I89
sstp690
a(I2
V2017:07:28 11:26:32
p691
(dp692
V1
p693
(dp694
Vcoords
p695
(lp696
I304
aI256
aI352
aI336
asVprob
p697
I85
ssV2
p698
(dp699
Vcoords
p700
(lp701
I304
aI272
aI336
aI352
asVprob
p702
I82
sstp703
a(I1
V2017:07:28 11:26:44
p704
(dp705
V1
p706
(dp707
Vcoords
p708
(lp709
I304
aI272
aI336
aI336
asVprob
p710
I88
sstp711
a(I1
V2017:07:28 11:26:56
p712
(dp713
V2
p714
(dp715
Vcoords
p716
(lp717
I304
aI272
aI336
aI336
asVprob
p718
I81
sstp719
a(I2
V2017:07:28 11:27:10
p720
(dp721
V1
p722
(dp723
Vcoords
p724
(lp725
I160
aI128
aI256
aI416
asVprob
p726
I98
ssV2
p727
(dp728
Vcoords
p729
(lp730
I288
aI272
aI320
aI336
asVprob
p731
I82
sstp732
a(I2
V2017:07:28 11:27:38
p733
(dp734
V3
p735
(dp736
Vcoords
p737
(lp738
I304
aI240
aI336
aI336
asVprob
p739
I87
ssV2
p740
(dp741
Vcoords
p742
(lp743
I384
aI240
aI416
aI320
asVprob
p744
I91
sstp745
a(I2
V2017:07:28 11:27:50
p746
(dp747
V1
p748
(dp749
Vcoords
p750
(lp751
I352
aI240
aI384
aI320
asVprob
p752
I96
ssV2
p753
(dp754
Vcoords
p755
(lp756
I304
aI224
aI336
aI304
asVprob
p757
I87
sstp758
a(I1
V2017:07:28 11:33:02
p759
(dp760
V1
p761
(dp762
Vcoords
p763
(lp764
I128
aI176
aI208
aI400
asVprob
p765
I96
sstp766
a(I2
V2017:07:28 11:33:22
p767
(dp768
V1
p769
(dp770
Vcoords
p771
(lp772
I240
aI160
aI352
aI432
asVprob
p773
I98
ssV2
p774
(dp775
Vcoords
p776
(lp777
I192
aI144
aI288
aI416
asVprob
p778
I80
sstp779
a(I1
V2017:07:28 11:33:30
p780
(dp781
V1
p782
(dp783
Vcoords
p784
(lp785
I368
aI256
aI400
aI320
asVprob
p786
I95
sstp787
a(I1
V2017:07:28 11:33:46
p788
(dp789
V1
p790
(dp791
Vcoords
p792
(lp793
I112
aI144
aI208
aI432
asVprob
p794
I98
sstp795
a(I1
V2017:07:28 11:34:54
p796
(dp797
V1
p798
(dp799
Vcoords
p800
(lp801
I128
aI144
aI208
aI448
asVprob
p802
I98
sstp803
a(I1
V2017:07:28 11:35:02
p804
(dp805
V2
p806
(dp807
Vcoords
p808
(lp809
I320
aI240
aI368
aI336
asVprob
p810
I81
sstp811
a(I1
V2017:07:28 11:35:06
p812
(dp813
V2
p814
(dp815
Vcoords
p816
(lp817
I368
aI256
aI400
aI320
asVprob
p818
I89
sstp819
a(I1
V2017:07:28 11:37:08
p820
(dp821
V1
p822
(dp823
Vcoords
p824
(lp825
I320
aI176
aI400
aI400
asVprob
p826
I99
sstp827
a(I3
V2017:07:28 11:38:32
p828
(dp829
V1
p830
(dp831
Vcoords
p832
(lp833
I112
aI176
aI192
aI384
asVprob
p834
I94
ssV3
p835
(dp836
Vcoords
p837
(lp838
I304
aI224
aI352
aI352
asVprob
p839
I90
ssV2
p840
(dp841
Vcoords
p842
(lp843
I688
aI144
aI800
aI448
asVprob
p844
I93
sstp845
a(I1
V2017:07:28 11:39:36
p846
(dp847
V1
p848
(dp849
Vcoords
p850
(lp851
I352
aI240
aI384
aI352
asVprob
p852
I92
sstp853
a(I1
V2017:07:28 11:40:02
p854
(dp855
V1
p856
(dp857
Vcoords
p858
(lp859
I272
aI176
aI336
aI384
asVprob
p860
I99
sstp861
a(I1
V2017:07:28 11:42:34
p862
(dp863
V1
p864
(dp865
Vcoords
p866
(lp867
I288
aI176
aI352
aI384
asVprob
p868
I97
sstp869
a(I1
V2017:07:28 11:43:06
p870
(dp871
V1
p872
(dp873
Vcoords
p874
(lp875
I336
aI240
aI368
aI304
asVprob
p876
I92
sstp877
a(I1
V2017:07:28 11:45:02
p878
(dp879
V1
p880
(dp881
Vcoords
p882
(lp883
I288
aI208
aI352
aI384
asVprob
p884
I96
sstp885
a(I1
V2017:07:28 11:45:58
p886
(dp887
V1
p888
(dp889
Vcoords
p890
(lp891
I336
aI240
aI384
aI336
asVprob
p892
I82
sstp893
a(I1
V2017:07:28 11:46:30
p894
(dp895
V1
p896
(dp897
Vcoords
p898
(lp899
I304
aI240
aI352
aI336
asVprob
p900
I96
sstp901
a(I1
V2017:07:28 11:48:00
p902
(dp903
V1
p904
(dp905
Vcoords
p906
(lp907
I368
aI256
aI400
aI320
asVprob
p908
I86
sstp909
a(I1
V2017:07:28 11:49:34
p910
(dp911
V1
p912
(dp913
Vcoords
p914
(lp915
I256
aI208
aI336
aI384
asVprob
p916
I98
sstp917
a(I1
V2017:07:28 11:50:26
p918
(dp919
V1
p920
(dp921
Vcoords
p922
(lp923
I384
aI80
aI528
aI480
asVprob
p924
I97
sstp925
a(I1
V2017:07:28 11:50:40
p926
(dp927
V1
p928
(dp929
Vcoords
p930
(lp931
I272
aI192
aI336
aI368
asVprob
p932
I95
sstp933
a(I1
V2017:07:28 11:51:54
p934
(dp935
V1
p936
(dp937
Vcoords
p938
(lp939
I240
aI208
aI288
aI368
asVprob
p940
I94
sstp941
a(I1
V2017:07:28 11:52:56
p942
(dp943
V1
p944
(dp945
Vcoords
p946
(lp947
I352
aI176
aI432
aI432
asVprob
p948
I99
sstp949
a(I1
V2017:07:28 11:53:16
p950
(dp951
V1
p952
(dp953
Vcoords
p954
(lp955
I352
aI32
aI544
aI592
asVprob
p956
I92
sstp957
a(I1
V2017:07:28 11:54:56
p958
(dp959
V1
p960
(dp961
Vcoords
p962
(lp963
I320
aI96
aI512
aI480
asVprob
p964
I98
sstp965
a(I2
V2017:07:28 11:55:10
p966
(dp967
V1
p968
(dp969
Vcoords
p970
(lp971
I208
aI208
aI272
aI368
asVprob
p972
I94
ssV2
p973
(dp974
Vcoords
p975
(lp976
I224
aI208
aI304
aI368
asVprob
p977
I93
sstp978
a(I1
V2017:07:28 11:57:14
p979
(dp980
V1
p981
(dp982
Vcoords
p983
(lp984
I272
aI192
aI352
aI368
asVprob
p985
I97
sstp986
a(I1
V2017:07:28 11:58:20
p987
(dp988
V1
p989
(dp990
Vcoords
p991
(lp992
I336
aI240
aI368
aI320
asVprob
p993
I93
sstp994
a(I1
V2017:07:28 11:59:26
p995
(dp996
V1
p997
(dp998
Vcoords
p999
(lp1000
I240
aI0
aI576
aI576
asVprob
p1001
I99
sstp1002
a(I2
V2017:07:28 11:59:34
p1003
(dp1004
V1
p1005
(dp1006
Vcoords
p1007
(lp1008
I672
aI176
aI736
aI400
asVprob
p1009
I95
ssV2
p1010
(dp1011
Vcoords
p1012
(lp1013
I528
aI208
aI592
aI368
asVprob
p1014
I95
sstp1015
a(I2
V2017:07:28 12:01:00
p1016
(dp1017
V1
p1018
(dp1019
Vcoords
p1020
(lp1021
I688
aI192
aI768
aI416
asVprob
p1022
I97
ssV2
p1023
(dp1024
Vcoords
p1025
(lp1026
I544
aI80
aI672
aI496
asVprob
p1027
I97
sstp1028
a(I2
V2017:07:28 12:02:40
p1029
(dp1030
V1
p1031
(dp1032
Vcoords
p1033
(lp1034
I160
aI144
aI256
aI416
asVprob
p1035
I98
ssV2
p1036
(dp1037
Vcoords
p1038
(lp1039
I96
aI144
aI176
aI432
asVprob
p1040
I84
sstp1041
a(I3
V2017:07:28 12:03:04
p1042
(dp1043
V1
p1044
(dp1045
Vcoords
p1046
(lp1047
I384
aI240
aI416
aI336
asVprob
p1048
I92
ssV3
p1049
(dp1050
Vcoords
p1051
(lp1052
I336
aI240
aI368
aI336
asVprob
p1053
I81
ssV2
p1054
(dp1055
Vcoords
p1056
(lp1057
I352
aI240
aI384
aI336
asVprob
p1058
I86
sstp1059
a(I1
V2017:07:28 12:04:18
p1060
(dp1061
V1
p1062
(dp1063
Vcoords
p1064
(lp1065
I336
aI224
aI368
aI336
asVprob
p1066
I92
sstp1067
a(I1
V2017:07:28 12:04:48
p1068
(dp1069
V1
p1070
(dp1071
Vcoords
p1072
(lp1073
I384
aI192
aI480
aI416
asVprob
p1074
I98
sstp1075
a(I1
V2017:07:28 12:04:52
p1076
(dp1077
V1
p1078
(dp1079
Vcoords
p1080
(lp1081
I144
aI208
aI208
aI368
asVprob
p1082
I96
sstp1083
a(I1
V2017:07:28 12:05:00
p1084
(dp1085
V1
p1086
(dp1087
Vcoords
p1088
(lp1089
I144
aI208
aI208
aI368
asVprob
p1090
I92
sstp1091
a(I1
V2017:07:28 12:05:36
p1092
(dp1093
V1
p1094
(dp1095
Vcoords
p1096
(lp1097
I384
aI240
aI416
aI320
asVprob
p1098
I92
sstp1099
a(I2
V2017:07:28 12:05:44
p1100
(dp1101
V1
p1102
(dp1103
Vcoords
p1104
(lp1105
I384
aI240
aI416
aI320
asVprob
p1106
I94
ssV3
p1107
(dp1108
Vcoords
p1109
(lp1110
I368
aI240
aI400
aI336
asVprob
p1111
I82
sstp1112
a(I1
V2017:07:28 12:07:54
p1113
(dp1114
V1
p1115
(dp1116
Vcoords
p1117
(lp1118
I416
aI240
aI448
aI336
asVprob
p1119
I80
sstp1120
a(I1
V2017:07:28 12:08:08
p1121
(dp1122
V1
p1123
(dp1124
Vcoords
p1125
(lp1126
I752
aI256
aI784
aI320
asVprob
p1127
I87
sstp1128
a(I1
V2017:07:28 12:08:30
p1129
(dp1130
V1
p1131
(dp1132
Vcoords
p1133
(lp1134
I336
aI240
aI368
aI320
asVprob
p1135
I95
sstp1136
a(I1
V2017:07:28 12:08:50
p1137
(dp1138
V1
p1139
(dp1140
Vcoords
p1141
(lp1142
I304
aI208
aI368
aI384
asVprob
p1143
I98
sstp1144
a(I1
V2017:07:28 12:09:10
p1145
(dp1146
V1
p1147
(dp1148
Vcoords
p1149
(lp1150
I304
aI240
aI336
aI336
asVprob
p1151
I81
sstp1152
a(I1
V2017:07:28 12:09:22
p1153
(dp1154
V1
p1155
(dp1156
Vcoords
p1157
(lp1158
I368
aI240
aI400
aI352
asVprob
p1159
I93
sstp1160
a(I1
V2017:07:28 12:10:16
p1161
(dp1162
V1
p1163
(dp1164
Vcoords
p1165
(lp1166
I240
aI208
aI304
aI400
asVprob
p1167
I95
sstp1168
a(I1
V2017:07:28 12:10:40
p1169
(dp1170
V1
p1171
(dp1172
Vcoords
p1173
(lp1174
I288
aI192
aI368
aI432
asVprob
p1175
I98
sstp1176
a(I2
V2017:07:28 12:12:20
p1177
(dp1178
V1
p1179
(dp1180
Vcoords
p1181
(lp1182
I176
aI176
aI256
aI400
asVprob
p1183
I98
ssV2
p1184
(dp1185
Vcoords
p1186
(lp1187
I256
aI160
aI352
aI320
asVprob
p1188
I91
sstp1189
a(I1
V2017:07:28 12:12:44
p1190
(dp1191
V1
p1192
(dp1193
Vcoords
p1194
(lp1195
I352
aI224
aI416
aI384
asVprob
p1196
I90
sstp1197
a(I1
V2017:07:28 12:12:50
p1198
(dp1199
V1
p1200
(dp1201
Vcoords
p1202
(lp1203
I528
aI240
aI576
aI368
asVprob
p1204
I90
sstp1205
a(I1
V2017:07:28 12:12:54
p1206
(dp1207
V1
p1208
(dp1209
Vcoords
p1210
(lp1211
I544
aI224
aI592
aI352
asVprob
p1212
I88
sstp1213
a(I1
V2017:07:28 12:13:48
p1214
(dp1215
V1
p1216
(dp1217
Vcoords
p1218
(lp1219
I304
aI240
aI352
aI352
asVprob
p1220
I94
sstp1221
a(I2
V2017:07:28 12:14:44
p1222
(dp1223
V1
p1224
(dp1225
Vcoords
p1226
(lp1227
I304
aI224
aI352
aI352
asVprob
p1228
I94
ssV3
p1229
(dp1230
Vcoords
p1231
(lp1232
I720
aI256
aI768
aI384
asVprob
p1233
I85
sstp1234
a(I4
V2017:07:28 12:15:00
p1235
(dp1236
V1
p1237
(dp1238
Vcoords
p1239
(lp1240
I592
aI160
aI704
aI448
asVprob
p1241
I98
ssV2
p1242
(dp1243
Vcoords
p1244
(lp1245
I352
aI256
aI384
aI320
asVprob
p1246
I96
ssV5
p1247
(dp1248
Vcoords
p1249
(lp1250
I272
aI272
aI304
aI336
asVprob
p1251
I83
ssV4
p1252
(dp1253
Vcoords
p1254
(lp1255
I432
aI208
aI496
aI384
asVprob
p1256
I93
sstp1257
a(I2
V2017:07:28 12:15:18
p1258
(dp1259
V1
p1260
(dp1261
Vcoords
p1262
(lp1263
I256
aI240
aI288
aI336
asVprob
p1264
I89
ssV2
p1265
(dp1266
Vcoords
p1267
(lp1268
I288
aI256
aI320
aI320
asVprob
p1269
I82
sstp1270
a(I2
V2017:07:28 12:15:34
p1271
(dp1272
V1
p1273
(dp1274
Vcoords
p1275
(lp1276
I304
aI256
aI336
aI320
asVprob
p1277
I86
ssV2
p1278
(dp1279
Vcoords
p1280
(lp1281
I320
aI256
aI352
aI320
asVprob
p1282
I82
sstp1283
a(I1
V2017:07:28 12:15:52
p1284
(dp1285
V1
p1286
(dp1287
Vcoords
p1288
(lp1289
I384
aI240
aI416
aI320
asVprob
p1290
I98
sstp1291
a(I1
V2017:07:28 12:16:22
p1292
(dp1293
V2
p1294
(dp1295
Vcoords
p1296
(lp1297
I304
aI256
aI336
aI320
asVprob
p1298
I88
sstp1299
a(I2
V2017:07:28 12:17:20
p1300
(dp1301
V1
p1302
(dp1303
Vcoords
p1304
(lp1305
I352
aI192
aI416
aI384
asVprob
p1306
I98
ssV2
p1307
(dp1308
Vcoords
p1309
(lp1310
I272
aI192
aI336
aI384
asVprob
p1311
I98
sstp1312
a(I1
V2017:07:28 12:17:42
p1313
(dp1314
V1
p1315
(dp1316
Vcoords
p1317
(lp1318
I192
aI208
aI256
aI384
asVprob
p1319
I98
sstp1320
a(I1
V2017:07:28 12:18:56
p1321
(dp1322
V2
p1323
(dp1324
Vcoords
p1325
(lp1326
I352
aI256
aI384
aI320
asVprob
p1327
I89
sstp1328
a(I2
V2017:07:28 12:19:08
p1329
(dp1330
V1
p1331
(dp1332
Vcoords
p1333
(lp1334
I272
aI224
aI368
aI448
asVprob
p1335
I98
ssV2
p1336
(dp1337
Vcoords
p1338
(lp1339
I96
aI176
aI192
aI416
asVprob
p1340
I97
sstp1341
a(I2
V2017:07:28 12:19:12
p1342
(dp1343
V3
p1344
(dp1345
Vcoords
p1346
(lp1347
I368
aI256
aI400
aI320
asVprob
p1348
I84
ssV2
p1349
(dp1350
Vcoords
p1351
(lp1352
I384
aI256
aI416
aI320
asVprob
p1353
I91
sstp1354
a(I1
V2017:07:28 12:19:24
p1355
(dp1356
V1
p1357
(dp1358
Vcoords
p1359
(lp1360
I336
aI240
aI384
aI320
asVprob
p1361
I96
sstp1362
a(I2
V2017:07:28 12:19:36
p1363
(dp1364
V1
p1365
(dp1366
Vcoords
p1367
(lp1368
I368
aI256
aI400
aI320
asVprob
p1369
I94
ssV2
p1370
(dp1371
Vcoords
p1372
(lp1373
I320
aI240
aI352
aI304
asVprob
p1374
I88
sstp1375
a(I1
V2017:07:28 12:20:50
p1376
(dp1377
V1
p1378
(dp1379
Vcoords
p1380
(lp1381
I256
aI208
aI320
aI384
asVprob
p1382
I97
sstp1383
a(I2
V2017:07:28 12:23:06
p1384
(dp1385
V1
p1386
(dp1387
Vcoords
p1388
(lp1389
I288
aI256
aI320
aI336
asVprob
p1390
I90
ssV2
p1391
(dp1392
Vcoords
p1393
(lp1394
I240
aI224
aI288
aI352
asVprob
p1395
I82
sstp1396
a(I1
V2017:07:28 12:25:30
p1397
(dp1398
V1
p1399
(dp1400
Vcoords
p1401
(lp1402
I384
aI240
aI416
aI304
asVprob
p1403
I93
sstp1404
a(I2
V2017:07:28 12:26:24
p1405
(dp1406
V1
p1407
(dp1408
Vcoords
p1409
(lp1410
I160
aI176
aI240
aI416
asVprob
p1411
I97
ssV2
p1412
(dp1413
Vcoords
p1414
(lp1415
I80
aI176
aI144
aI400
asVprob
p1416
I89
sstp1417
a(I1
V2017:07:28 12:26:42
p1418
(dp1419
V1
p1420
(dp1421
Vcoords
p1422
(lp1423
I336
aI240
aI368
aI320
asVprob
p1424
I95
sstp1425
a(I1
V2017:07:28 12:26:46
p1426
(dp1427
V1
p1428
(dp1429
Vcoords
p1430
(lp1431
I192
aI208
aI256
aI368
asVprob
p1432
I95
sstp1433
a(I2
V2017:07:28 12:27:14
p1434
(dp1435
V1
p1436
(dp1437
Vcoords
p1438
(lp1439
I208
aI176
aI272
aI400
asVprob
p1440
I94
ssV2
p1441
(dp1442
Vcoords
p1443
(lp1444
I128
aI192
aI192
aI400
asVprob
p1445
I93
sstp1446
a(I2
V2017:07:28 12:28:34
p1447
(dp1448
V1
p1449
(dp1450
Vcoords
p1451
(lp1452
I320
aI224
aI368
aI352
asVprob
p1453
I93
ssV6
p1454
(dp1455
Vcoords
p1456
(lp1457
I368
aI240
aI416
aI352
asVprob
p1458
I83
sstp1459
a(I1
V2017:07:28 12:28:52
p1460
(dp1461
V1
p1462
(dp1463
Vcoords
p1464
(lp1465
I160
aI208
aI224
aI368
asVprob
p1466
I92
sstp1467
a(I2
V2017:07:28 12:30:48
p1468
(dp1469
V1
p1470
(dp1471
Vcoords
p1472
(lp1473
I320
aI224
aI368
aI320
asVprob
p1474
I91
ssV3
p1475
(dp1476
Vcoords
p1477
(lp1478
I336
aI240
aI368
aI336
asVprob
p1479
I80
sstp1480
a(I1
V2017:07:28 12:31:30
p1481
(dp1482
V1
p1483
(dp1484
Vcoords
p1485
(lp1486
I384
aI256
aI416
aI336
asVprob
p1487
I91
sstp1488
a(I1
V2017:07:28 12:31:36
p1489
(dp1490
V1
p1491
(dp1492
Vcoords
p1493
(lp1494
I192
aI144
aI288
aI416
asVprob
p1495
I95
sstp1496
a(I2
V2017:07:28 12:32:54
p1497
(dp1498
V1
p1499
(dp1500
Vcoords
p1501
(lp1502
I320
aI208
aI384
aI368
asVprob
p1503
I97
ssV2
p1504
(dp1505
Vcoords
p1506
(lp1507
I128
aI128
aI272
aI496
asVprob
p1508
I94
sstp1509
a(I3
V2017:07:28 12:33:02
p1510
(dp1511
V1
p1512
(dp1513
Vcoords
p1514
(lp1515
I432
aI224
aI480
aI352
asVprob
p1516
I98
ssV3
p1517
(dp1518
Vcoords
p1519
(lp1520
I368
aI240
aI416
aI336
asVprob
p1521
I88
ssV2
p1522
(dp1523
Vcoords
p1524
(lp1525
I384
aI240
aI432
aI336
asVprob
p1526
I89
sstp1527
a(I2
V2017:07:28 12:33:18
p1528
(dp1529
V1
p1530
(dp1531
Vcoords
p1532
(lp1533
I432
aI224
aI480
aI352
asVprob
p1534
I94
ssV2
p1535
(dp1536
Vcoords
p1537
(lp1538
I368
aI240
aI416
aI352
asVprob
p1539
I91
sstp1540
a(I1
V2017:07:28 12:37:32
p1541
(dp1542
V1
p1543
(dp1544
Vcoords
p1545
(lp1546
I336
aI256
aI368
aI320
asVprob
p1547
I83
sstp1548
a(I1
V2017:07:28 12:37:36
p1549
(dp1550
V2
p1551
(dp1552
Vcoords
p1553
(lp1554
I400
aI256
aI432
aI320
asVprob
p1555
I85
sstp1556
a(I2
V2017:07:28 12:38:38
p1557
(dp1558
V1
p1559
(dp1560
Vcoords
p1561
(lp1562
I352
aI256
aI384
aI320
asVprob
p1563
I88
ssV2
p1564
(dp1565
Vcoords
p1566
(lp1567
I368
aI256
aI400
aI320
asVprob
p1568
I83
sstp1569
a(I1
V2017:07:28 12:38:42
p1570
(dp1571
V1
p1572
(dp1573
Vcoords
p1574
(lp1575
I352
aI240
aI384
aI304
asVprob
p1576
I92
sstp1577
a(I2
V2017:07:28 12:40:24
p1578
(dp1579
V1
p1580
(dp1581
Vcoords
p1582
(lp1583
I304
aI240
aI352
aI352
asVprob
p1584
I95
ssV3
p1585
(dp1586
Vcoords
p1587
(lp1588
I352
aI224
aI400
aI336
asVprob
p1589
I94
sstp1590
a(I1
V2017:07:28 12:40:28
p1591
(dp1592
V2
p1593
(dp1594
Vcoords
p1595
(lp1596
I368
aI256
aI400
aI320
asVprob
p1597
I90
sstp1598
a(I1
V2017:07:28 12:40:46
p1599
(dp1600
V2
p1601
(dp1602
Vcoords
p1603
(lp1604
I272
aI240
aI320
aI352
asVprob
p1605
I93
sstp1606
a(I1
V2017:07:28 12:41:04
p1607
(dp1608
V2
p1609
(dp1610
Vcoords
p1611
(lp1612
I336
aI256
aI368
aI320
asVprob
p1613
I91
sstp1614
a(I2
V2017:07:28 12:42:24
p1615
(dp1616
V1
p1617
(dp1618
Vcoords
p1619
(lp1620
I352
aI240
aI384
aI320
asVprob
p1621
I97
ssV3
p1622
(dp1623
Vcoords
p1624
(lp1625
I304
aI240
aI336
aI320
asVprob
p1626
I88
sstp1627
a(I1
V2017:07:28 12:43:00
p1628
(dp1629
V1
p1630
(dp1631
Vcoords
p1632
(lp1633
I304
aI224
aI336
aI320
asVprob
p1634
I88
sstp1635
a(I1
V2017:07:28 12:43:36
p1636
(dp1637
V1
p1638
(dp1639
Vcoords
p1640
(lp1641
I352
aI256
aI384
aI320
asVprob
p1642
I97
sstp1643
a(I3
V2017:07:28 12:44:06
p1644
(dp1645
V1
p1646
(dp1647
Vcoords
p1648
(lp1649
I352
aI224
aI400
aI368
asVprob
p1650
I98
ssV3
p1651
(dp1652
Vcoords
p1653
(lp1654
I192
aI208
aI256
aI368
asVprob
p1655
I96
ssV2
p1656
(dp1657
Vcoords
p1658
(lp1659
I272
aI192
aI336
aI368
asVprob
p1660
I96
sstp1661
a(I3
V2017:07:28 12:45:10
p1662
(dp1663
V1
p1664
(dp1665
Vcoords
p1666
(lp1667
I304
aI208
aI368
aI352
asVprob
p1668
I96
ssV3
p1669
(dp1670
Vcoords
p1671
(lp1672
I384
aI240
aI416
aI336
asVprob
p1673
I89
ssV2
p1674
(dp1675
Vcoords
p1676
(lp1677
I240
aI224
aI288
aI368
asVprob
p1678
I95
sstp1679
a(I3
V2017:07:28 12:45:36
p1680
(dp1681
V1
p1682
(dp1683
Vcoords
p1684
(lp1685
I272
aI240
aI304
aI336
asVprob
p1686
I90
ssV3
p1687
(dp1688
Vcoords
p1689
(lp1690
I384
aI256
aI416
aI320
asVprob
p1691
I83
ssV2
p1692
(dp1693
Vcoords
p1694
(lp1695
I320
aI224
aI368
aI336
asVprob
p1696
I88
sstp1697
a(I1
V2017:07:28 12:45:54
p1698
(dp1699
V1
p1700
(dp1701
Vcoords
p1702
(lp1703
I64
aI16
aI256
aI608
asVprob
p1704
I87
sstp1705
a(I2
V2017:07:28 12:46:48
p1706
(dp1707
V1
p1708
(dp1709
Vcoords
p1710
(lp1711
I224
aI192
aI288
aI400
asVprob
p1712
I91
ssV3
p1713
(dp1714
Vcoords
p1715
(lp1716
I160
aI192
aI224
aI368
asVprob
p1717
I87
sstp1718
a(I1
V2017:07:28 12:46:54
p1719
(dp1720
V1
p1721
(dp1722
Vcoords
p1723
(lp1724
I336
aI224
aI384
aI352
asVprob
p1725
I96
sstp1726
a(I1
V2017:07:28 12:47:14
p1727
(dp1728
V1
p1729
(dp1730
Vcoords
p1731
(lp1732
I96
aI144
aI176
aI416
asVprob
p1733
I98
sstp1734
a(I2
V2017:07:28 12:49:10
p1735
(dp1736
V1
p1737
(dp1738
Vcoords
p1739
(lp1740
I352
aI240
aI384
aI336
asVprob
p1741
I92
ssV3
p1742
(dp1743
Vcoords
p1744
(lp1745
I368
aI240
aI400
aI320
asVprob
p1746
I80
sstp1747
a(I3
V2017:07:28 12:49:24
p1748
(dp1749
V1
p1750
(dp1751
Vcoords
p1752
(lp1753
I192
aI192
aI256
aI368
asVprob
p1754
I95
ssV3
p1755
(dp1756
Vcoords
p1757
(lp1758
I96
aI176
aI160
aI400
asVprob
p1759
I94
ssV2
p1760
(dp1761
Vcoords
p1762
(lp1763
I288
aI240
aI336
aI336
asVprob
p1764
I94
sstp1765
a(I1
V2017:07:28 12:50:52
p1766
(dp1767
V1
p1768
(dp1769
Vcoords
p1770
(lp1771
I208
aI208
aI272
aI384
asVprob
p1772
I96
sstp1773
a(I2
V2017:07:28 12:52:56
p1774
(dp1775
V1
p1776
(dp1777
Vcoords
p1778
(lp1779
I304
aI192
aI368
aI368
asVprob
p1780
I96
ssV2
p1781
(dp1782
Vcoords
p1783
(lp1784
I192
aI192
aI256
aI368
asVprob
p1785
I93
sstp1786
a(I2
V2017:07:28 12:53:08
p1787
(dp1788
V1
p1789
(dp1790
Vcoords
p1791
(lp1792
I256
aI176
aI336
aI432
asVprob
p1793
I96
ssV3
p1794
(dp1795
Vcoords
p1796
(lp1797
I336
aI208
aI384
aI368
asVprob
p1798
I86
sstp1799
a(I1
V2017:07:28 12:54:02
p1800
(dp1801
V1
p1802
(dp1803
Vcoords
p1804
(lp1805
I272
aI208
aI320
aI368
asVprob
p1806
I96
sstp1807
a(I1
V2017:07:28 12:54:16
p1808
(dp1809
V1
p1810
(dp1811
Vcoords
p1812
(lp1813
I368
aI256
aI400
aI320
asVprob
p1814
I93
sstp1815
a(I1
V2017:07:28 12:54:48
p1816
(dp1817
V1
p1818
(dp1819
Vcoords
p1820
(lp1821
I192
aI160
aI320
aI480
asVprob
p1822
I99
sstp1823
a(I1
V2017:07:28 12:55:14
p1824
(dp1825
V1
p1826
(dp1827
Vcoords
p1828
(lp1829
I96
aI48
aI224
aI512
asVprob
p1830
I88
sstp1831
a(I3
V2017:07:28 12:55:36
p1832
(dp1833
V1
p1834
(dp1835
Vcoords
p1836
(lp1837
I336
aI208
aI416
aI384
asVprob
p1838
I96
ssV3
p1839
(dp1840
Vcoords
p1841
(lp1842
I256
aI208
aI304
aI352
asVprob
p1843
I93
ssV4
p1844
(dp1845
Vcoords
p1846
(lp1847
I240
aI208
aI288
aI368
asVprob
p1848
I91
sstp1849
a(I1
V2017:07:28 12:56:02
p1850
(dp1851
V2
p1852
(dp1853
Vcoords
p1854
(lp1855
I352
aI256
aI384
aI320
asVprob
p1856
I86
sstp1857
a(I1
V2017:07:28 12:57:32
p1858
(dp1859
V1
p1860
(dp1861
Vcoords
p1862
(lp1863
I160
aI176
aI240
aI384
asVprob
p1864
I98
sstp1865
a(I1
V2017:07:28 12:57:36
p1866
(dp1867
V1
p1868
(dp1869
Vcoords
p1870
(lp1871
I336
aI240
aI368
aI304
asVprob
p1872
I88
sstp1873
a(I1
V2017:07:28 12:57:42
p1874
(dp1875
V1
p1876
(dp1877
Vcoords
p1878
(lp1879
I128
aI176
aI192
aI400
asVprob
p1880
I97
sstp1881
a(I1
V2017:07:28 12:57:48
p1882
(dp1883
V1
p1884
(dp1885
Vcoords
p1886
(lp1887
I608
aI240
aI656
aI368
asVprob
p1888
I89
sstp1889
a(I2
V2017:07:28 12:59:22
p1890
(dp1891
V1
p1892
(dp1893
Vcoords
p1894
(lp1895
I288
aI208
aI336
aI336
asVprob
p1896
I89
ssV2
p1897
(dp1898
Vcoords
p1899
(lp1900
I304
aI208
aI352
aI336
asVprob
p1901
I81
sstp1902
a(I3
V2017:07:28 13:00:48
p1903
(dp1904
V1
p1905
(dp1906
Vcoords
p1907
(lp1908
I240
aI144
aI384
aI464
asVprob
p1909
I99
ssV3
p1910
(dp1911
Vcoords
p1912
(lp1913
I112
aI160
aI208
aI448
asVprob
p1914
I89
ssV2
p1915
(dp1916
Vcoords
p1917
(lp1918
I352
aI224
aI400
aI368
asVprob
p1919
I96
sstp1920
a(I4
V2017:07:28 13:01:30
p1921
(dp1922
V3
p1923
(dp1924
Vcoords
p1925
(lp1926
I256
aI224
aI288
aI336
asVprob
p1927
I87
ssV2
p1928
(dp1929
Vcoords
p1930
(lp1931
I272
aI240
aI304
aI352
asVprob
p1932
I91
ssV5
p1933
(dp1934
Vcoords
p1935
(lp1936
I352
aI240
aI384
aI336
asVprob
p1937
I81
ssV4
p1938
(dp1939
Vcoords
p1940
(lp1941
I304
aI224
aI352
aI320
asVprob
p1942
I84
sstp1943
a(I3
V2017:07:28 13:02:14
p1944
(dp1945
V1
p1946
(dp1947
Vcoords
p1948
(lp1949
I272
aI240
aI304
aI336
asVprob
p1950
I83
ssV3
p1951
(dp1952
Vcoords
p1953
(lp1954
I384
aI240
aI416
aI320
asVprob
p1955
I81
ssV2
p1956
(dp1957
Vcoords
p1958
(lp1959
I336
aI240
aI368
aI320
asVprob
p1960
I82
sstp1961
a(I4
V2017:07:28 13:03:08
p1962
(dp1963
V1
p1964
(dp1965
Vcoords
p1966
(lp1967
I544
aI176
aI624
aI416
asVprob
p1968
I91
ssV3
p1969
(dp1970
Vcoords
p1971
(lp1972
I368
aI240
aI400
aI320
asVprob
p1973
I82
ssV2
p1974
(dp1975
Vcoords
p1976
(lp1977
I496
aI192
aI576
aI400
asVprob
p1978
I88
ssV4
p1979
(dp1980
Vcoords
p1981
(lp1982
I288
aI224
aI336
aI320
asVprob
p1983
I82
sstp1984
a(I3
V2017:07:28 13:03:38
p1985
(dp1986
V1
p1987
(dp1988
Vcoords
p1989
(lp1990
I352
aI240
aI384
aI320
asVprob
p1991
I92
ssV3
p1992
(dp1993
Vcoords
p1994
(lp1995
I368
aI240
aI400
aI320
asVprob
p1996
I81
ssV2
p1997
(dp1998
Vcoords
p1999
(lp2000
I304
aI224
aI336
aI320
asVprob
p2001
I88
sstp2002
a(I3
V2017:07:28 13:04:00
p2003
(dp2004
V1
p2005
(dp2006
Vcoords
p2007
(lp2008
I368
aI256
aI400
aI336
asVprob
p2009
I93
ssV3
p2010
(dp2011
Vcoords
p2012
(lp2013
I304
aI240
aI336
aI320
asVprob
p2014
I82
ssV2
p2015
(dp2016
Vcoords
p2017
(lp2018
I336
aI240
aI368
aI320
asVprob
p2019
I86
sstp2020
a(I1
V2017:07:28 13:06:24
p2021
(dp2022
V1
p2023
(dp2024
Vcoords
p2025
(lp2026
I352
aI256
aI384
aI320
asVprob
p2027
I94
sstp2028
a(I1
V2017:07:28 13:06:34
p2029
(dp2030
V1
p2031
(dp2032
Vcoords
p2033
(lp2034
I16
aI-32
aI224
aI624
asVprob
p2035
I83
sstp2036
a(I1
V2017:07:28 13:07:52
p2037
(dp2038
V1
p2039
(dp2040
Vcoords
p2041
(lp2042
I320
aI224
aI352
aI336
asVprob
p2043
I90
sstp2044
a(I1
V2017:07:28 13:10:52
p2045
(dp2046
V1
p2047
(dp2048
Vcoords
p2049
(lp2050
I368
aI224
aI416
aI336
asVprob
p2051
I96
sstp2052
a(I1
V2017:07:28 13:12:20
p2053
(dp2054
V3
p2055
(dp2056
Vcoords
p2057
(lp2058
I384
aI240
aI416
aI336
asVprob
p2059
I88
sstp2060
a(I1
V2017:07:28 13:13:00
p2061
(dp2062
V1
p2063
(dp2064
Vcoords
p2065
(lp2066
I176
aI128
aI304
aI448
asVprob
p2067
I99
sstp2068
a(I1
V2017:07:28 13:13:16
p2069
(dp2070
V1
p2071
(dp2072
Vcoords
p2073
(lp2074
I352
aI256
aI384
aI320
asVprob
p2075
I95
sstp2076
a(I1
V2017:07:28 13:13:38
p2077
(dp2078
V1
p2079
(dp2080
Vcoords
p2081
(lp2082
I336
aI112
aI464
aI432
asVprob
p2083
I98
sstp2084
a(I1
V2017:07:28 13:13:46
p2085
(dp2086
V1
p2087
(dp2088
Vcoords
p2089
(lp2090
I416
aI192
aI480
aI384
asVprob
p2091
I95
sstp2092
a(I1
V2017:07:28 13:14:10
p2093
(dp2094
V1
p2095
(dp2096
Vcoords
p2097
(lp2098
I320
aI240
aI352
aI320
asVprob
p2099
I96
sstp2100
a(I1
V2017:07:28 13:14:54
p2101
(dp2102
V1
p2103
(dp2104
Vcoords
p2105
(lp2106
I320
aI256
aI352
aI320
asVprob
p2107
I83
sstp2108
a(I2
V2017:07:28 13:15:14
p2109
(dp2110
V1
p2111
(dp2112
Vcoords
p2113
(lp2114
I448
aI208
aI512
aI384
asVprob
p2115
I98
ssV2
p2116
(dp2117
Vcoords
p2118
(lp2119
I544
aI224
aI608
aI384
asVprob
p2120
I85
sstp2121
a(I2
V2017:07:28 13:15:28
p2122
(dp2123
V1
p2124
(dp2125
Vcoords
p2126
(lp2127
I560
aI224
aI608
aI368
asVprob
p2128
I97
ssV3
p2129
(dp2130
Vcoords
p2131
(lp2132
I352
aI224
aI400
aI320
asVprob
p2133
I81
sstp2134
a(I1
V2017:07:28 13:16:44
p2135
(dp2136
V1
p2137
(dp2138
Vcoords
p2139
(lp2140
I192
aI176
aI272
aI416
asVprob
p2141
I96
sstp2142
a(I2
V2017:07:28 13:17:24
p2143
(dp2144
V1
p2145
(dp2146
Vcoords
p2147
(lp2148
I432
aI96
aI544
aI464
asVprob
p2149
I95
ssV2
p2150
(dp2151
Vcoords
p2152
(lp2153
I544
aI160
aI640
aI416
asVprob
p2154
I95
sstp2155
a(I4
V2017:07:28 13:17:46
p2156
(dp2157
V1
p2158
(dp2159
Vcoords
p2160
(lp2161
I208
aI192
aI288
aI384
asVprob
p2162
I98
ssV2
p2163
(dp2164
Vcoords
p2165
(lp2166
I336
aI224
aI368
aI336
asVprob
p2167
I91
ssV4
p2168
(dp2169
Vcoords
p2170
(lp2171
I352
aI240
aI384
aI336
asVprob
p2172
I88
ssV8
p2173
(dp2174
Vcoords
p2175
(lp2176
I368
aI224
aI416
aI336
asVprob
p2177
I80
sstp2178
a(I1
V2017:07:28 13:17:52
p2179
(dp2180
V2
p2181
(dp2182
Vcoords
p2183
(lp2184
I352
aI256
aI384
aI320
asVprob
p2185
I93
sstp2186
a(I1
V2017:07:28 13:18:08
p2187
(dp2188
V1
p2189
(dp2190
Vcoords
p2191
(lp2192
I416
aI144
aI528
aI496
asVprob
p2193
I96
sstp2194
a(I1
V2017:07:28 13:19:22
p2195
(dp2196
V2
p2197
(dp2198
Vcoords
p2199
(lp2200
I384
aI256
aI416
aI336
asVprob
p2201
I83
sstp2202
a(I1
V2017:07:28 13:19:30
p2203
(dp2204
V1
p2205
(dp2206
Vcoords
p2207
(lp2208
I368
aI240
aI400
aI320
asVprob
p2209
I93
sstp2210
a(I2
V2017:07:28 13:21:34
p2211
(dp2212
V1
p2213
(dp2214
Vcoords
p2215
(lp2216
I352
aI224
aI400
aI336
asVprob
p2217
I98
ssV2
p2218
(dp2219
Vcoords
p2220
(lp2221
I304
aI224
aI352
aI320
asVprob
p2222
I92
sstp2223
a(I1
V2017:07:28 13:22:22
p2224
(dp2225
V1
p2226
(dp2227
Vcoords
p2228
(lp2229
I336
aI256
aI368
aI320
asVprob
p2230
I88
sstp2231
a(I2
V2017:07:28 13:22:28
p2232
(dp2233
V1
p2234
(dp2235
Vcoords
p2236
(lp2237
I112
aI176
aI192
aI384
asVprob
p2238
I98
ssV2
p2239
(dp2240
Vcoords
p2241
(lp2242
I288
aI176
aI368
aI400
asVprob
p2243
I97
sstp2244
a(I1
V2017:07:28 13:22:40
p2245
(dp2246
V1
p2247
(dp2248
Vcoords
p2249
(lp2250
I256
aI208
aI304
aI368
asVprob
p2251
I97
sstp2252
a(I1
V2017:07:28 13:23:40
p2253
(dp2254
V2
p2255
(dp2256
Vcoords
p2257
(lp2258
I752
aI240
aI784
aI320
asVprob
p2259
I88
sstp2260
a(I1
V2017:07:28 13:24:06
p2261
(dp2262
V2
p2263
(dp2264
Vcoords
p2265
(lp2266
I560
aI256
aI608
aI384
asVprob
p2267
I88
sstp2268
a(I2
V2017:07:28 13:24:22
p2269
(dp2270
V1
p2271
(dp2272
Vcoords
p2273
(lp2274
I480
aI240
aI528
aI368
asVprob
p2275
I96
ssV5
p2276
(dp2277
Vcoords
p2278
(lp2279
I544
aI240
aI592
aI368
asVprob
p2280
I80
sstp2281
a(I2
V2017:07:28 13:24:30
p2282
(dp2283
V1
p2284
(dp2285
Vcoords
p2286
(lp2287
I592
aI240
aI640
aI368
asVprob
p2288
I92
ssV2
p2289
(dp2290
Vcoords
p2291
(lp2292
I464
aI224
aI512
aI368
asVprob
p2293
I92
sstp2294
a(I1
V2017:07:28 13:24:50
p2295
(dp2296
V1
p2297
(dp2298
Vcoords
p2299
(lp2300
I304
aI224
aI352
aI368
asVprob
p2301
I92
sstp2302
a(I1
V2017:07:28 13:26:08
p2303
(dp2304
V2
p2305
(dp2306
Vcoords
p2307
(lp2308
I608
aI208
aI656
aI368
asVprob
p2309
I90
sstp2310
a(I4
V2017:07:28 13:26:22
p2311
(dp2312
V1
p2313
(dp2314
Vcoords
p2315
(lp2316
I144
aI160
aI240
aI400
asVprob
p2317
I98
ssV3
p2318
(dp2319
Vcoords
p2320
(lp2321
I512
aI240
aI560
aI368
asVprob
p2322
I94
ssV2
p2323
(dp2324
Vcoords
p2325
(lp2326
I224
aI176
aI320
aI448
asVprob
p2327
I98
ssV4
p2328
(dp2329
Vcoords
p2330
(lp2331
I528
aI240
aI576
aI368
asVprob
p2332
I80
sstp2333
a(I1
V2017:07:28 13:26:36
p2334
(dp2335
V1
p2336
(dp2337
Vcoords
p2338
(lp2339
I544
aI208
aI608
aI400
asVprob
p2340
I98
sstp2341
a(I2
V2017:07:28 13:26:54
p2342
(dp2343
V1
p2344
(dp2345
Vcoords
p2346
(lp2347
I256
aI224
aI304
aI352
asVprob
p2348
I95
ssV2
p2349
(dp2350
Vcoords
p2351
(lp2352
I96
aI112
aI256
aI528
asVprob
p2353
I91
sstp2354
a(I2
V2017:07:28 13:26:58
p2355
(dp2356
V1
p2357
(dp2358
Vcoords
p2359
(lp2360
I384
aI256
aI416
aI320
asVprob
p2361
I93
ssV2
p2362
(dp2363
Vcoords
p2364
(lp2365
I352
aI256
aI384
aI320
asVprob
p2366
I91
sstp2367
a(I1
V2017:07:28 13:27:28
p2368
(dp2369
V1
p2370
(dp2371
Vcoords
p2372
(lp2373
I96
aI80
aI272
aI512
asVprob
p2374
I94
sstp2375
a(I1
V2017:07:28 13:29:34
p2376
(dp2377
V1
p2378
(dp2379
Vcoords
p2380
(lp2381
I336
aI256
aI368
aI320
asVprob
p2382
I89
sstp2383
a(I1
V2017:07:28 13:32:08
p2384
(dp2385
V2
p2386
(dp2387
Vcoords
p2388
(lp2389
I336
aI256
aI368
aI320
asVprob
p2390
I85
sstp2391
a(I1
V2017:07:28 13:32:50
p2392
(dp2393
V1
p2394
(dp2395
Vcoords
p2396
(lp2397
I368
aI240
aI400
aI320
asVprob
p2398
I90
sstp2399
a(I1
V2017:07:28 13:35:02
p2400
(dp2401
V1
p2402
(dp2403
Vcoords
p2404
(lp2405
I304
aI256
aI336
aI320
asVprob
p2406
I93
sstp2407
a(I1
V2017:07:28 13:35:06
p2408
(dp2409
V1
p2410
(dp2411
Vcoords
p2412
(lp2413
I176
aI176
aI256
aI416
asVprob
p2414
I94
sstp2415
a(I1
V2017:07:28 13:35:44
p2416
(dp2417
V1
p2418
(dp2419
Vcoords
p2420
(lp2421
I688
aI224
aI736
aI368
asVprob
p2422
I89
sstp2423
a(I1
V2017:07:28 13:37:08
p2424
(dp2425
V1
p2426
(dp2427
Vcoords
p2428
(lp2429
I224
aI192
aI288
aI384
asVprob
p2430
I95
sstp2431
a(I1
V2017:07:28 13:39:38
p2432
(dp2433
V1
p2434
(dp2435
Vcoords
p2436
(lp2437
I128
aI176
aI208
aI416
asVprob
p2438
I95
sstp2439
a(I1
V2017:07:28 13:42:42
p2440
(dp2441
V1
p2442
(dp2443
Vcoords
p2444
(lp2445
I352
aI240
aI400
aI336
asVprob
p2446
I90
sstp2447
a(I1
V2017:07:28 13:43:58
p2448
(dp2449
V1
p2450
(dp2451
Vcoords
p2452
(lp2453
I176
aI208
aI240
aI400
asVprob
p2454
I97
sstp2455
a(I1
V2017:07:28 13:44:54
p2456
(dp2457
V1
p2458
(dp2459
Vcoords
p2460
(lp2461
I384
aI240
aI416
aI320
asVprob
p2462
I91
sstp2463
a(I1
V2017:07:28 13:45:30
p2464
(dp2465
V1
p2466
(dp2467
Vcoords
p2468
(lp2469
I352
aI224
aI400
aI352
asVprob
p2470
I94
sstp2471
a(I1
V2017:07:28 13:46:06
p2472
(dp2473
V1
p2474
(dp2475
Vcoords
p2476
(lp2477
I352
aI176
aI448
aI416
asVprob
p2478
I98
sstp2479
a(I1
V2017:07:28 13:46:14
p2480
(dp2481
V1
p2482
(dp2483
Vcoords
p2484
(lp2485
I544
aI224
aI608
aI384
asVprob
p2486
I94
sstp2487
a(I1
V2017:07:28 13:46:22
p2488
(dp2489
V1
p2490
(dp2491
Vcoords
p2492
(lp2493
I736
aI224
aI784
aI368
asVprob
p2494
I96
sstp2495
a(I1
V2017:07:28 13:46:52
p2496
(dp2497
V1
p2498
(dp2499
Vcoords
p2500
(lp2501
I384
aI240
aI416
aI304
asVprob
p2502
I86
sstp2503
a(I1
V2017:07:28 13:46:56
p2504
(dp2505
V1
p2506
(dp2507
Vcoords
p2508
(lp2509
I384
aI240
aI416
aI336
asVprob
p2510
I93
sstp2511
a(I2
V2017:07:28 13:47:14
p2512
(dp2513
V1
p2514
(dp2515
Vcoords
p2516
(lp2517
I512
aI192
aI576
aI368
asVprob
p2518
I98
ssV2
p2519
(dp2520
Vcoords
p2521
(lp2522
I336
aI240
aI368
aI320
asVprob
p2523
I85
sstp2524
a(I1
V2017:07:28 13:47:18
p2525
(dp2526
V1
p2527
(dp2528
Vcoords
p2529
(lp2530
I480
aI208
aI528
aI368
asVprob
p2531
I98
sstp2532
a(I3
V2017:07:28 13:48:30
p2533
(dp2534
V1
p2535
(dp2536
Vcoords
p2537
(lp2538
I288
aI240
aI320
aI320
asVprob
p2539
I94
ssV3
p2540
(dp2541
Vcoords
p2542
(lp2543
I368
aI256
aI400
aI336
asVprob
p2544
I81
ssV2
p2545
(dp2546
Vcoords
p2547
(lp2548
I352
aI256
aI384
aI320
asVprob
p2549
I89
sstp2550
a(I1
V2017:07:28 13:48:36
p2551
(dp2552
V1
p2553
(dp2554
Vcoords
p2555
(lp2556
I96
aI176
aI160
aI384
asVprob
p2557
I91
sstp2558
a(I3
V2017:07:28 13:48:46
p2559
(dp2560
V1
p2561
(dp2562
Vcoords
p2563
(lp2564
I208
aI128
aI320
aI496
asVprob
p2565
I97
ssV3
p2566
(dp2567
Vcoords
p2568
(lp2569
I96
aI128
aI208
aI480
asVprob
p2570
I94
ssV4
p2571
(dp2572
Vcoords
p2573
(lp2574
I384
aI256
aI416
aI320
asVprob
p2575
I90
sstp2576
a(I2
V2017:07:28 13:49:38
p2577
(dp2578
V1
p2579
(dp2580
Vcoords
p2581
(lp2582
I592
aI176
aI672
aI416
asVprob
p2583
I97
ssV2
p2584
(dp2585
Vcoords
p2586
(lp2587
I368
aI256
aI400
aI320
asVprob
p2588
I96
sstp2589
a(I1
V2017:07:28 13:49:54
p2590
(dp2591
V1
p2592
(dp2593
Vcoords
p2594
(lp2595
I288
aI192
aI336
aI368
asVprob
p2596
I97
sstp2597
a(I2
V2017:07:28 13:50:52
p2598
(dp2599
V1
p2600
(dp2601
Vcoords
p2602
(lp2603
I96
aI176
aI160
aI416
asVprob
p2604
I96
ssV2
p2605
(dp2606
Vcoords
p2607
(lp2608
I352
aI240
aI384
aI320
asVprob
p2609
I87
sstp2610
a(I1
V2017:07:28 13:50:56
p2611
(dp2612
V1
p2613
(dp2614
Vcoords
p2615
(lp2616
I144
aI176
aI224
aI400
asVprob
p2617
I98
sstp2618
a(I1
V2017:07:28 13:51:07
p2619
(dp2620
V2
p2621
(dp2622
Vcoords
p2623
(lp2624
I608
aI-16
aI816
aI640
asVprob
p2625
I81
sstp2626
a(I1
V2017:07:28 13:51:14
p2627
(dp2628
V1
p2629
(dp2630
Vcoords
p2631
(lp2632
I352
aI240
aI384
aI304
asVprob
p2633
I91
sstp2634
a(I2
V2017:07:28 13:52:04
p2635
(dp2636
V1
p2637
(dp2638
Vcoords
p2639
(lp2640
I480
aI144
aI576
aI448
asVprob
p2641
I97
ssV2
p2642
(dp2643
Vcoords
p2644
(lp2645
I688
aI224
aI736
aI352
asVprob
p2646
I81
sstp2647
a(I2
V2017:07:28 13:52:14
p2648
(dp2649
V1
p2650
(dp2651
Vcoords
p2652
(lp2653
I640
aI224
aI688
aI352
asVprob
p2654
I91
ssV2
p2655
(dp2656
Vcoords
p2657
(lp2658
I624
aI224
aI672
aI352
asVprob
p2659
I85
sstp2660
a(I2
V2017:07:28 13:54:04
p2661
(dp2662
V1
p2663
(dp2664
Vcoords
p2665
(lp2666
I96
aI144
aI176
aI448
asVprob
p2667
I95
ssV2
p2668
(dp2669
Vcoords
p2670
(lp2671
I368
aI224
aI416
aI336
asVprob
p2672
I84
sstp2673
a(I2
V2017:07:28 13:54:22
p2674
(dp2675
V1
p2676
(dp2677
Vcoords
p2678
(lp2679
I224
aI192
aI320
aI416
asVprob
p2680
I98
ssV2
p2681
(dp2682
Vcoords
p2683
(lp2684
I336
aI208
aI400
aI384
asVprob
p2685
I98
sstp2686
a(I1
V2017:07:28 13:55:09
p2687
(dp2688
V1
p2689
(dp2690
Vcoords
p2691
(lp2692
I704
aI144
aI800
aI464
asVprob
p2693
I82
sstp2694
a(I1
V2017:07:28 13:55:13
p2695
(dp2696
V1
p2697
(dp2698
Vcoords
p2699
(lp2700
I48
aI128
aI256
aI624
asVprob
p2701
I85
sstp2702
a(I1
V2017:07:28 13:57:51
p2703
(dp2704
V1
p2705
(dp2706
Vcoords
p2707
(lp2708
I96
aI192
aI160
aI400
asVprob
p2709
I98
sstp2710
a(I2
V2017:07:28 13:59:11
p2711
(dp2712
V1
p2713
(dp2714
Vcoords
p2715
(lp2716
I400
aI240
aI464
aI336
asVprob
p2717
I93
ssV2
p2718
(dp2719
Vcoords
p2720
(lp2721
I304
aI256
aI336
aI320
asVprob
p2722
I89
sstp2723
a(I1
V2017:07:28 13:59:25
p2724
(dp2725
V2
p2726
(dp2727
Vcoords
p2728
(lp2729
I432
aI240
aI464
aI336
asVprob
p2730
I86
sstp2731
a(I2
V2017:07:28 13:59:31
p2732
(dp2733
V3
p2734
(dp2735
Vcoords
p2736
(lp2737
I272
aI208
aI320
aI368
asVprob
p2738
I91
ssV2
p2739
(dp2740
Vcoords
p2741
(lp2742
I208
aI224
aI272
aI384
asVprob
p2743
I94
sstp2744
a(I1
V2017:07:28 13:59:55
p2745
(dp2746
V1
p2747
(dp2748
Vcoords
p2749
(lp2750
I688
aI208
aI736
aI368
asVprob
p2751
I90
sstp2752
a(I1
V2017:07:28 14:00:03
p2753
(dp2754
V3
p2755
(dp2756
Vcoords
p2757
(lp2758
I704
aI224
aI752
aI384
asVprob
p2759
I82
sstp2760
a(I2
V2017:07:28 14:00:35
p2761
(dp2762
V1
p2763
(dp2764
Vcoords
p2765
(lp2766
I704
aI160
aI784
aI416
asVprob
p2767
I97
ssV2
p2768
(dp2769
Vcoords
p2770
(lp2771
I96
aI208
aI160
aI384
asVprob
p2772
I96
sstp2773
a(I1
V2017:07:28 14:00:49
p2774
(dp2775
V1
p2776
(dp2777
Vcoords
p2778
(lp2779
I352
aI256
aI384
aI320
asVprob
p2780
I94
sstp2781
a(I1
V2017:07:28 14:02:35
p2782
(dp2783
V1
p2784
(dp2785
Vcoords
p2786
(lp2787
I352
aI256
aI384
aI320
asVprob
p2788
I90
sstp2789
a(I1
V2017:07:28 14:02:39
p2790
(dp2791
V1
p2792
(dp2793
Vcoords
p2794
(lp2795
I368
aI256
aI400
aI320
asVprob
p2796
I84
sstp2797
a(I1
V2017:07:28 14:02:57
p2798
(dp2799
V1
p2800
(dp2801
Vcoords
p2802
(lp2803
I240
aI208
aI288
aI352
asVprob
p2804
I98
sstp2805
a(I2
V2017:07:28 14:04:17
p2806
(dp2807
V1
p2808
(dp2809
Vcoords
p2810
(lp2811
I320
aI192
aI384
aI384
asVprob
p2812
I99
ssV3
p2813
(dp2814
Vcoords
p2815
(lp2816
I240
aI176
aI304
aI416
asVprob
p2817
I94
sstp2818
a(I1
V2017:07:28 14:04:37
p2819
(dp2820
V1
p2821
(dp2822
Vcoords
p2823
(lp2824
I160
aI176
aI240
aI400
asVprob
p2825
I98
sstp2826
a(I1
V2017:07:28 14:05:15
p2827
(dp2828
V1
p2829
(dp2830
Vcoords
p2831
(lp2832
I96
aI176
aI192
aI416
asVprob
p2833
I96
sstp2834
a(I1
V2017:07:28 14:05:49
p2835
(dp2836
V1
p2837
(dp2838
Vcoords
p2839
(lp2840
I96
aI80
aI208
aI480
asVprob
p2841
I93
sstp2842
a(I1
V2017:07:28 14:06:25
p2843
(dp2844
V1
p2845
(dp2846
Vcoords
p2847
(lp2848
I336
aI256
aI368
aI336
asVprob
p2849
I93
sstp2850
a(I1
V2017:07:28 14:08:57
p2851
(dp2852
V1
p2853
(dp2854
Vcoords
p2855
(lp2856
I256
aI192
aI336
aI352
asVprob
p2857
I98
sstp2858
a(I1
V2017:07:28 14:10:31
p2859
(dp2860
V1
p2861
(dp2862
Vcoords
p2863
(lp2864
I96
aI64
aI224
aI496
asVprob
p2865
I92
sstp2866
a(I1
V2017:07:28 14:10:53
p2867
(dp2868
V2
p2869
(dp2870
Vcoords
p2871
(lp2872
I416
aI240
aI448
aI320
asVprob
p2873
I89
sstp2874
a(I2
V2017:07:28 14:14:07
p2875
(dp2876
V1
p2877
(dp2878
Vcoords
p2879
(lp2880
I272
aI208
aI320
aI352
asVprob
p2881
I93
ssV2
p2882
(dp2883
Vcoords
p2884
(lp2885
I256
aI208
aI304
aI352
asVprob
p2886
I91
sstp2887
a(I1
V2017:07:28 14:14:59
p2888
(dp2889
V1
p2890
(dp2891
Vcoords
p2892
(lp2893
I112
aI16
aI336
aI560
asVprob
p2894
I97
sstp2895
a(I2
V2017:07:28 14:15:39
p2896
(dp2897
V1
p2898
(dp2899
Vcoords
p2900
(lp2901
I144
aI176
aI208
aI384
asVprob
p2902
I98
ssV2
p2903
(dp2904
Vcoords
p2905
(lp2906
I208
aI176
aI288
aI400
asVprob
p2907
I95
sstp2908
a(I1
V2017:07:28 14:17:49
p2909
(dp2910
V1
p2911
(dp2912
Vcoords
p2913
(lp2914
I336
aI224
aI384
aI352
asVprob
p2915
I92
sstp2916
a(I1
V2017:07:28 14:17:55
p2917
(dp2918
V1
p2919
(dp2920
Vcoords
p2921
(lp2922
I320
aI240
aI352
aI304
asVprob
p2923
I86
sstp2924
a(I3
V2017:07:28 14:22:11
p2925
(dp2926
V1
p2927
(dp2928
Vcoords
p2929
(lp2930
I320
aI208
aI368
aI352
asVprob
p2931
I97
ssV3
p2932
(dp2933
Vcoords
p2934
(lp2935
I368
aI208
aI416
aI368
asVprob
p2936
I87
ssV2
p2937
(dp2938
Vcoords
p2939
(lp2940
I240
aI192
aI288
aI352
asVprob
p2941
I95
sstp2942
a(I1
V2017:07:28 14:23:09
p2943
(dp2944
V1
p2945
(dp2946
Vcoords
p2947
(lp2948
I272
aI256
aI304
aI320
asVprob
p2949
I88
sstp2950
a(I1
V2017:07:28 14:23:39
p2951
(dp2952
V1
p2953
(dp2954
Vcoords
p2955
(lp2956
I160
aI192
aI224
aI400
asVprob
p2957
I97
sstp2958
a(I2
V2017:07:28 14:27:35
p2959
(dp2960
V1
p2961
(dp2962
Vcoords
p2963
(lp2964
I368
aI240
aI400
aI320
asVprob
p2965
I96
ssV2
p2966
(dp2967
Vcoords
p2968
(lp2969
I304
aI240
aI336
aI320
asVprob
p2970
I88
sstp2971
a(I2
V2017:07:28 14:28:09
p2972
(dp2973
V1
p2974
(dp2975
Vcoords
p2976
(lp2977
I192
aI176
aI256
aI400
asVprob
p2978
I98
ssV2
p2979
(dp2980
Vcoords
p2981
(lp2982
I256
aI160
aI336
aI416
asVprob
p2983
I96
sstp2984
a(I2
V2017:07:28 14:30:09
p2985
(dp2986
V1
p2987
(dp2988
Vcoords
p2989
(lp2990
I336
aI208
aI400
aI368
asVprob
p2991
I96
ssV2
p2992
(dp2993
Vcoords
p2994
(lp2995
I256
aI208
aI320
aI384
asVprob
p2996
I96
sstp2997
a(I1
V2017:07:28 14:31:41
p2998
(dp2999
V1
p3000
(dp3001
Vcoords
p3002
(lp3003
I240
aI208
aI304
aI352
asVprob
p3004
I89
sstp3005
a(I2
V2017:07:28 14:31:55
p3006
(dp3007
V1
p3008
(dp3009
Vcoords
p3010
(lp3011
I288
aI208
aI336
aI352
asVprob
p3012
I97
ssV2
p3013
(dp3014
Vcoords
p3015
(lp3016
I272
aI208
aI320
aI352
asVprob
p3017
I87
sstp3018
a(I1
V2017:07:28 14:36:11
p3019
(dp3020
V1
p3021
(dp3022
Vcoords
p3023
(lp3024
I288
aI208
aI336
aI368
asVprob
p3025
I94
sstp3026
a(I1
V2017:07:28 14:36:53
p3027
(dp3028
V1
p3029
(dp3030
Vcoords
p3031
(lp3032
I304
aI240
aI336
aI336
asVprob
p3033
I94
sstp3034
a(I1
V2017:07:28 14:37:39
p3035
(dp3036
V1
p3037
(dp3038
Vcoords
p3039
(lp3040
I320
aI240
aI352
aI320
asVprob
p3041
I84
sstp3042
a(I1
V2017:07:28 14:37:55
p3043
(dp3044
V1
p3045
(dp3046
Vcoords
p3047
(lp3048
I304
aI176
aI384
aI400
asVprob
p3049
I98
sstp3050
a(I3
V2017:07:28 14:38:59
p3051
(dp3052
V1
p3053
(dp3054
Vcoords
p3055
(lp3056
I96
aI160
aI192
aI416
asVprob
p3057
I98
ssV3
p3058
(dp3059
Vcoords
p3060
(lp3061
I336
aI224
aI384
aI336
asVprob
p3062
I80
ssV2
p3063
(dp3064
Vcoords
p3065
(lp3066
I256
aI192
aI304
aI352
asVprob
p3067
I90
sstp3068
a(I1
V2017:07:28 14:39:17
p3069
(dp3070
V1
p3071
(dp3072
Vcoords
p3073
(lp3074
I96
aI160
aI160
aI432
asVprob
p3075
I97
sstp3076
a(I2
V2017:07:28 14:39:27
p3077
(dp3078
V1
p3079
(dp3080
Vcoords
p3081
(lp3082
I272
aI224
aI320
aI352
asVprob
p3083
I88
ssV2
p3084
(dp3085
Vcoords
p3086
(lp3087
I256
aI224
aI304
aI352
asVprob
p3088
I83
sstp3089
a(I1
V2017:07:28 14:39:47
p3090
(dp3091
V1
p3092
(dp3093
Vcoords
p3094
(lp3095
I96
aI112
aI208
aI448
asVprob
p3096
I99
sstp3097
a(I1
V2017:07:28 14:39:55
p3098
(dp3099
V1
p3100
(dp3101
Vcoords
p3102
(lp3103
I96
aI-16
aI288
aI624
asVprob
p3104
I90
sstp3105
a(I1
V2017:07:28 14:39:59
p3106
(dp3107
V1
p3108
(dp3109
Vcoords
p3110
(lp3111
I272
aI208
aI320
aI368
asVprob
p3112
I98
sstp3113
a(I1
V2017:07:28 14:40:21
p3114
(dp3115
V1
p3116
(dp3117
Vcoords
p3118
(lp3119
I128
aI64
aI304
aI560
asVprob
p3120
I96
sstp3121
a(I1
V2017:07:28 14:41:11
p3122
(dp3123
V1
p3124
(dp3125
Vcoords
p3126
(lp3127
I80
aI80
aI208
aI544
asVprob
p3128
I84
sstp3129
a(I2
V2017:07:28 14:41:23
p3130
(dp3131
V1
p3132
(dp3133
Vcoords
p3134
(lp3135
I176
aI160
aI240
aI400
asVprob
p3136
I92
ssV2
p3137
(dp3138
Vcoords
p3139
(lp3140
I320
aI256
aI352
aI320
asVprob
p3141
I86
sstp3142
a(I1
V2017:07:28 14:41:51
p3143
(dp3144
V1
p3145
(dp3146
Vcoords
p3147
(lp3148
I272
aI240
aI320
aI336
asVprob
p3149
I87
sstp3150
a(I1
V2017:07:28 14:41:59
p3151
(dp3152
V1
p3153
(dp3154
Vcoords
p3155
(lp3156
I224
aI208
aI288
aI368
asVprob
p3157
I97
sstp3158
a(I3
V2017:07:28 14:42:21
p3159
(dp3160
V1
p3161
(dp3162
Vcoords
p3163
(lp3164
I416
aI192
aI496
aI400
asVprob
p3165
I99
ssV3
p3166
(dp3167
Vcoords
p3168
(lp3169
I240
aI208
aI288
aI336
asVprob
p3170
I97
ssV2
p3171
(dp3172
Vcoords
p3173
(lp3174
I320
aI176
aI400
aI384
asVprob
p3175
I98
sstp3176
a(I1
V2017:07:28 14:44:55
p3177
(dp3178
V1
p3179
(dp3180
Vcoords
p3181
(lp3182
I160
aI160
aI240
aI416
asVprob
p3183
I95
sstp3184
a(I1
V2017:07:28 14:45:01
p3185
(dp3186
V1
p3187
(dp3188
Vcoords
p3189
(lp3190
I368
aI224
aI416
aI320
asVprob
p3191
I92
sstp3192
a(I1
V2017:07:28 14:45:23
p3193
(dp3194
V1
p3195
(dp3196
Vcoords
p3197
(lp3198
I288
aI208
aI336
aI352
asVprob
p3199
I97
sstp3200
a(I3
V2017:07:28 14:47:47
p3201
(dp3202
V1
p3203
(dp3204
Vcoords
p3205
(lp3206
I96
aI176
aI176
aI400
asVprob
p3207
I98
ssV3
p3208
(dp3209
Vcoords
p3210
(lp3211
I192
aI176
aI272
aI384
asVprob
p3212
I91
ssV2
p3213
(dp3214
Vcoords
p3215
(lp3216
I288
aI176
aI368
aI416
asVprob
p3217
I97
sstp3218
a(I1
V2017:07:28 14:48:01
p3219
(dp3220
V1
p3221
(dp3222
Vcoords
p3223
(lp3224
I352
aI240
aI384
aI304
asVprob
p3225
I92
sstp3226
a(I1
V2017:07:28 14:49:13
p3227
(dp3228
V2
p3229
(dp3230
Vcoords
p3231
(lp3232
I368
aI240
aI400
aI320
asVprob
p3233
I80
sstp3234
a(I1
V2017:07:28 14:50:11
p3235
(dp3236
V1
p3237
(dp3238
Vcoords
p3239
(lp3240
I224
aI176
aI288
aI384
asVprob
p3241
I99
sstp3242
a(I3
V2017:07:28 14:50:49
p3243
(dp3244
V1
p3245
(dp3246
Vcoords
p3247
(lp3248
I192
aI224
aI256
aI384
asVprob
p3249
I96
ssV3
p3250
(dp3251
Vcoords
p3252
(lp3253
I208
aI208
aI272
aI368
asVprob
p3254
I87
ssV2
p3255
(dp3256
Vcoords
p3257
(lp3258
I288
aI208
aI352
aI368
asVprob
p3259
I90
sstp3260
a(I1
V2017:07:28 14:51:31
p3261
(dp3262
V1
p3263
(dp3264
Vcoords
p3265
(lp3266
I128
aI128
aI240
aI448
asVprob
p3267
I99
sstp3268
a(I1
V2017:07:28 14:51:41
p3269
(dp3270
V2
p3271
(dp3272
Vcoords
p3273
(lp3274
I336
aI240
aI384
aI336
asVprob
p3275
I82
sstp3276
a(I1
V2017:07:28 14:53:17
p3277
(dp3278
V1
p3279
(dp3280
Vcoords
p3281
(lp3282
I208
aI208
aI272
aI368
asVprob
p3283
I83
sstp3284
a(I4
V2017:07:28 14:55:59
p3285
(dp3286
V1
p3287
(dp3288
Vcoords
p3289
(lp3290
I448
aI208
aI496
aI352
asVprob
p3291
I97
ssV3
p3292
(dp3293
Vcoords
p3294
(lp3295
I576
aI224
aI624
aI368
asVprob
p3296
I96
ssV2
p3297
(dp3298
Vcoords
p3299
(lp3300
I320
aI208
aI368
aI336
asVprob
p3301
I96
ssV4
p3302
(dp3303
Vcoords
p3304
(lp3305
I464
aI208
aI512
aI352
asVprob
p3306
I90
sstp3307
a(I1
V2017:07:28 14:57:27
p3308
(dp3309
V1
p3310
(dp3311
Vcoords
p3312
(lp3313
I592
aI224
aI640
aI368
asVprob
p3314
I94
sstp3315
a(I3
V2017:07:28 14:57:37
p3316
(dp3317
V1
p3318
(dp3319
Vcoords
p3320
(lp3321
I240
aI208
aI288
aI336
asVprob
p3322
I96
ssV3
p3323
(dp3324
Vcoords
p3325
(lp3326
I576
aI240
aI624
aI368
asVprob
p3327
I81
ssV2
p3328
(dp3329
Vcoords
p3330
(lp3331
I592
aI224
aI640
aI352
asVprob
p3332
I91
sstp3333
a(I1
V2017:07:28 14:59:27
p3334
(dp3335
V1
p3336
(dp3337
Vcoords
p3338
(lp3339
I592
aI224
aI640
aI368
asVprob
p3340
I88
sstp3341
a(I4
V2017:07:28 15:01:47
p3342
(dp3343
V1
p3344
(dp3345
Vcoords
p3346
(lp3347
I192
aI176
aI288
aI416
asVprob
p3348
I99
ssV3
p3349
(dp3350
Vcoords
p3351
(lp3352
I96
aI144
aI176
aI416
asVprob
p3353
I97
ssV2
p3354
(dp3355
Vcoords
p3356
(lp3357
I336
aI176
aI416
aI400
asVprob
p3358
I98
ssV5
p3359
(dp3360
Vcoords
p3361
(lp3362
I576
aI224
aI624
aI368
asVprob
p3363
I88
sstp3364
a(I2
V2017:07:28 15:02:09
p3365
(dp3366
V3
p3367
(dp3368
Vcoords
p3369
(lp3370
I576
aI224
aI624
aI368
asVprob
p3371
I81
ssV2
p3372
(dp3373
Vcoords
p3374
(lp3375
I592
aI224
aI640
aI368
asVprob
p3376
I85
sstp3377
a(I3
V2017:07:28 15:03:09
p3378
(dp3379
V1
p3380
(dp3381
Vcoords
p3382
(lp3383
I320
aI224
aI368
aI336
asVprob
p3384
I98
ssV3
p3385
(dp3386
Vcoords
p3387
(lp3388
I576
aI224
aI624
aI384
asVprob
p3389
I88
ssV4
p3390
(dp3391
Vcoords
p3392
(lp3393
I272
aI256
aI304
aI336
asVprob
p3394
I84
sstp3395
a(I2
V2017:07:28 15:03:35
p3396
(dp3397
V1
p3398
(dp3399
Vcoords
p3400
(lp3401
I592
aI224
aI640
aI368
asVprob
p3402
I93
ssV3
p3403
(dp3404
Vcoords
p3405
(lp3406
I272
aI208
aI352
aI432
asVprob
p3407
I92
sstp3408
a(I2
V2017:07:28 15:04:05
p3409
(dp3410
V1
p3411
(dp3412
Vcoords
p3413
(lp3414
I592
aI224
aI640
aI368
asVprob
p3415
I92
ssV3
p3416
(dp3417
Vcoords
p3418
(lp3419
I544
aI240
aI592
aI368
asVprob
p3420
I80
sstp3421
a(I3
V2017:07:28 15:04:25
p3422
(dp3423
V1
p3424
(dp3425
Vcoords
p3426
(lp3427
I224
aI208
aI288
aI384
asVprob
p3428
I98
ssV3
p3429
(dp3430
Vcoords
p3431
(lp3432
I480
aI192
aI528
aI368
asVprob
p3433
I94
ssV2
p3434
(dp3435
Vcoords
p3436
(lp3437
I592
aI224
aI640
aI368
asVprob
p3438
I97
sstp3439
a(I1
V2017:07:28 15:04:57
p3440
(dp3441
V1
p3442
(dp3443
Vcoords
p3444
(lp3445
I368
aI240
aI400
aI304
asVprob
p3446
I88
sstp3447
a(I1
V2017:07:28 15:05:17
p3448
(dp3449
V1
p3450
(dp3451
Vcoords
p3452
(lp3453
I512
aI224
aI560
aI352
asVprob
p3454
I95
sstp3455
a(I2
V2017:07:28 15:05:59
p3456
(dp3457
V1
p3458
(dp3459
Vcoords
p3460
(lp3461
I336
aI256
aI368
aI336
asVprob
p3462
I89
ssV2
p3463
(dp3464
Vcoords
p3465
(lp3466
I368
aI224
aI416
aI320
asVprob
p3467
I88
sstp3468
a(I5
V2017:07:28 15:09:11
p3469
(dp3470
V1
p3471
(dp3472
Vcoords
p3473
(lp3474
I352
aI224
aI400
aI336
asVprob
p3475
I94
ssV3
p3476
(dp3477
Vcoords
p3478
(lp3479
I288
aI192
aI336
aI368
asVprob
p3480
I85
ssV2
p3481
(dp3482
Vcoords
p3483
(lp3484
I224
aI176
aI304
aI448
asVprob
p3485
I88
ssV5
p3486
(dp3487
Vcoords
p3488
(lp3489
I304
aI192
aI352
aI368
asVprob
p3490
I80
ssV4
p3491
(dp3492
Vcoords
p3493
(lp3494
I160
aI160
aI256
aI432
asVprob
p3495
I81
sstp3496
a(I2
V2017:07:28 15:12:03
p3497
(dp3498
V1
p3499
(dp3500
Vcoords
p3501
(lp3502
I352
aI240
aI384
aI320
asVprob
p3503
I92
ssV2
p3504
(dp3505
Vcoords
p3506
(lp3507
I368
aI240
aI400
aI320
asVprob
p3508
I80
sstp3509
a(I1
V2017:07:28 15:13:17
p3510
(dp3511
V1
p3512
(dp3513
Vcoords
p3514
(lp3515
I320
aI256
aI352
aI320
asVprob
p3516
I94
sstp3517
a(I2
V2017:07:28 15:13:59
p3518
(dp3519
V1
p3520
(dp3521
Vcoords
p3522
(lp3523
I496
aI240
aI544
aI368
asVprob
p3524
I96
ssV2
p3525
(dp3526
Vcoords
p3527
(lp3528
I224
aI176
aI304
aI400
asVprob
p3529
I92
sstp3530
a(I1
V2017:07:28 15:14:11
p3531
(dp3532
V1
p3533
(dp3534
Vcoords
p3535
(lp3536
I160
aI192
aI240
aI400
asVprob
p3537
I95
sstp3538
a(I1
V2017:07:28 15:14:17
p3539
(dp3540
V1
p3541
(dp3542
Vcoords
p3543
(lp3544
I352
aI240
aI384
aI304
asVprob
p3545
I89
sstp3546
a(I1
V2017:07:28 15:14:23
p3547
(dp3548
V1
p3549
(dp3550
Vcoords
p3551
(lp3552
I592
aI112
aI704
aI528
asVprob
p3553
I96
sstp3554
a(I1
V2017:07:28 15:14:53
p3555
(dp3556
V1
p3557
(dp3558
Vcoords
p3559
(lp3560
I256
aI160
aI352
aI432
asVprob
p3561
I98
sstp3562
a(I1
V2017:07:28 15:15:01
p3563
(dp3564
V1
p3565
(dp3566
Vcoords
p3567
(lp3568
I416
aI256
aI448
aI320
asVprob
p3569
I90
sstp3570
a(I1
V2017:07:28 15:15:47
p3571
(dp3572
V1
p3573
(dp3574
Vcoords
p3575
(lp3576
I384
aI256
aI416
aI320
asVprob
p3577
I89
sstp3578
a(I1
V2017:07:28 15:16:01
p3579
(dp3580
V1
p3581
(dp3582
Vcoords
p3583
(lp3584
I160
aI128
aI288
aI464
asVprob
p3585
I92
sstp3586
a(I1
V2017:07:28 15:16:07
p3587
(dp3588
V1
p3589
(dp3590
Vcoords
p3591
(lp3592
I416
aI240
aI464
aI352
asVprob
p3593
I97
sstp3594
a(I1
V2017:07:28 15:17:21
p3595
(dp3596
V1
p3597
(dp3598
Vcoords
p3599
(lp3600
I256
aI144
aI384
aI448
asVprob
p3601
I87
sstp3602
a(I2
V2017:07:28 15:17:35
p3603
(dp3604
V1
p3605
(dp3606
Vcoords
p3607
(lp3608
I240
aI192
aI304
aI384
asVprob
p3609
I94
ssV2
p3610
(dp3611
Vcoords
p3612
(lp3613
I432
aI240
aI464
aI336
asVprob
p3614
I93
sstp3615
a(I1
V2017:07:28 15:19:19
p3616
(dp3617
V1
p3618
(dp3619
Vcoords
p3620
(lp3621
I160
aI256
aI224
aI400
asVprob
p3622
I96
sstp3623
a(I1
V2017:07:28 15:19:41
p3624
(dp3625
V1
p3626
(dp3627
Vcoords
p3628
(lp3629
I336
aI240
aI368
aI304
asVprob
p3630
I95
sstp3631
a(I1
V2017:07:28 15:20:05
p3632
(dp3633
V1
p3634
(dp3635
Vcoords
p3636
(lp3637
I176
aI192
aI240
aI384
asVprob
p3638
I94
sstp3639
a(I1
V2017:07:28 15:20:07
p3640
(dp3641
V1
p3642
(dp3643
Vcoords
p3644
(lp3645
I288
aI224
aI336
aI352
asVprob
p3646
I96
sstp3647
a(I1
V2017:07:28 15:20:51
p3648
(dp3649
V1
p3650
(dp3651
Vcoords
p3652
(lp3653
I528
aI256
aI576
aI384
asVprob
p3654
I84
sstp3655
a(I1
V2017:07:28 15:20:57
p3656
(dp3657
V1
p3658
(dp3659
Vcoords
p3660
(lp3661
I384
aI240
aI416
aI336
asVprob
p3662
I88
sstp3663
a(I5
V2017:07:28 15:21:55
p3664
(dp3665
V1
p3666
(dp3667
Vcoords
p3668
(lp3669
I448
aI208
aI512
aI368
asVprob
p3670
I97
ssV3
p3671
(dp3672
Vcoords
p3673
(lp3674
I224
aI192
aI288
aI384
asVprob
p3675
I94
ssV2
p3676
(dp3677
Vcoords
p3678
(lp3679
I112
aI144
aI192
aI384
asVprob
p3680
I94
ssV5
p3681
(dp3682
Vcoords
p3683
(lp3684
I272
aI192
aI320
aI368
asVprob
p3685
I89
ssV4
p3686
(dp3687
Vcoords
p3688
(lp3689
I384
aI192
aI448
aI416
asVprob
p3690
I91
sstp3691
a(I1
V2017:07:28 15:25:01
p3692
(dp3693
V1
p3694
(dp3695
Vcoords
p3696
(lp3697
I240
aI80
aI400
aI512
asVprob
p3698
I98
sstp3699
a(I2
V2017:07:28 15:26:17
p3700
(dp3701
V1
p3702
(dp3703
Vcoords
p3704
(lp3705
I160
aI176
aI240
aI400
asVprob
p3706
I96
ssV2
p3707
(dp3708
Vcoords
p3709
(lp3710
I144
aI176
aI208
aI384
asVprob
p3711
I93
sstp3712
a(I1
V2017:07:28 15:27:23
p3713
(dp3714
V1
p3715
(dp3716
Vcoords
p3717
(lp3718
I560
aI144
aI656
aI448
asVprob
p3719
I95
sstp3720
a(I3
V2017:07:28 15:27:49
p3721
(dp3722
V1
p3723
(dp3724
Vcoords
p3725
(lp3726
I96
aI176
aI160
aI416
asVprob
p3727
I96
ssV2
p3728
(dp3729
Vcoords
p3730
(lp3731
I352
aI224
aI400
aI336
asVprob
p3732
I93
ssV5
p3733
(dp3734
Vcoords
p3735
(lp3736
I368
aI240
aI416
aI336
asVprob
p3737
I87
sstp3738
a(I1
V2017:07:28 15:31:41
p3739
(dp3740
V1
p3741
(dp3742
Vcoords
p3743
(lp3744
I352
aI240
aI384
aI304
asVprob
p3745
I91
sstp3746
a(I1
V2017:07:28 15:36:07
p3747
(dp3748
V1
p3749
(dp3750
Vcoords
p3751
(lp3752
I96
aI112
aI224
aI480
asVprob
p3753
I97
sstp3754
a(I1
V2017:07:28 15:37:19
p3755
(dp3756
V1
p3757
(dp3758
Vcoords
p3759
(lp3760
I320
aI240
aI352
aI320
asVprob
p3761
I94
sstp3762
a(I1
V2017:07:28 15:38:21
p3763
(dp3764
V1
p3765
(dp3766
Vcoords
p3767
(lp3768
I176
aI176
aI240
aI368
asVprob
p3769
I97
sstp3770
a(I1
V2017:07:28 15:38:43
p3771
(dp3772
V1
p3773
(dp3774
Vcoords
p3775
(lp3776
I656
aI0
aI800
aI608
asVprob
p3777
I89
sstp3778
a(I1
V2017:07:28 15:41:47
p3779
(dp3780
V1
p3781
(dp3782
Vcoords
p3783
(lp3784
I368
aI240
aI416
aI336
asVprob
p3785
I92
sstp3786
a(I1
V2017:07:28 15:41:55
p3787
(dp3788
V1
p3789
(dp3790
Vcoords
p3791
(lp3792
I336
aI224
aI384
aI336
asVprob
p3793
I91
sstp3794
a(I2
V2017:07:28 15:43:35
p3795
(dp3796
V1
p3797
(dp3798
Vcoords
p3799
(lp3800
I384
aI240
aI416
aI304
asVprob
p3801
I90
ssV2
p3802
(dp3803
Vcoords
p3804
(lp3805
I288
aI224
aI336
aI320
asVprob
p3806
I80
sstp3807
a(I1
V2017:07:28 15:45:09
p3808
(dp3809
V1
p3810
(dp3811
Vcoords
p3812
(lp3813
I368
aI240
aI400
aI320
asVprob
p3814
I96
sstp3815
a(I1
V2017:07:28 15:46:39
p3816
(dp3817
V1
p3818
(dp3819
Vcoords
p3820
(lp3821
I128
aI96
aI256
aI480
asVprob
p3822
I98
sstp3823
a(I1
V2017:07:28 15:47:25
p3824
(dp3825
V1
p3826
(dp3827
Vcoords
p3828
(lp3829
I272
aI224
aI320
aI336
asVprob
p3830
I89
sstp3831
a(I1
V2017:07:28 15:48:17
p3832
(dp3833
V1
p3834
(dp3835
Vcoords
p3836
(lp3837
I352
aI240
aI384
aI320
asVprob
p3838
I95
sstp3839
a(I1
V2017:07:28 15:48:45
p3840
(dp3841
V1
p3842
(dp3843
Vcoords
p3844
(lp3845
I240
aI192
aI304
aI384
asVprob
p3846
I98
sstp3847
a(I3
V2017:07:28 15:49:15
p3848
(dp3849
V1
p3850
(dp3851
Vcoords
p3852
(lp3853
I272
aI128
aI384
aI448
asVprob
p3854
I96
ssV3
p3855
(dp3856
Vcoords
p3857
(lp3858
I384
aI240
aI416
aI320
asVprob
p3859
I82
ssV2
p3860
(dp3861
Vcoords
p3862
(lp3863
I208
aI128
aI304
aI464
asVprob
p3864
I95
sstp3865
a(I2
V2017:07:28 15:49:31
p3866
(dp3867
V1
p3868
(dp3869
Vcoords
p3870
(lp3871
I240
aI176
aI320
aI400
asVprob
p3872
I98
ssV2
p3873
(dp3874
Vcoords
p3875
(lp3876
I352
aI224
aI400
aI336
asVprob
p3877
I96
sstp3878
a(I1
V2017:07:28 15:51:15
p3879
(dp3880
V1
p3881
(dp3882
Vcoords
p3883
(lp3884
I272
aI256
aI304
aI320
asVprob
p3885
I85
sstp3886
a(I3
V2017:07:28 15:51:23
p3887
(dp3888
V1
p3889
(dp3890
Vcoords
p3891
(lp3892
I272
aI208
aI336
aI352
asVprob
p3893
I95
ssV3
p3894
(dp3895
Vcoords
p3896
(lp3897
I352
aI240
aI384
aI352
asVprob
p3898
I88
ssV2
p3899
(dp3900
Vcoords
p3901
(lp3902
I192
aI192
aI256
aI384
asVprob
p3903
I91
sstp3904
a(I1
V2017:07:28 15:51:37
p3905
(dp3906
V1
p3907
(dp3908
Vcoords
p3909
(lp3910
I288
aI192
aI352
aI368
asVprob
p3911
I98
sstp3912
a(I1
V2017:07:28 15:52:17
p3913
(dp3914
V1
p3915
(dp3916
Vcoords
p3917
(lp3918
I672
aI96
aI800
aI528
asVprob
p3919
I97
sstp3920
a(I1
V2017:07:28 15:52:31
p3921
(dp3922
V1
p3923
(dp3924
Vcoords
p3925
(lp3926
I240
aI224
aI304
aI368
asVprob
p3927
I94
sstp3928
a(I1
V2017:07:28 15:53:21
p3929
(dp3930
V1
p3931
(dp3932
Vcoords
p3933
(lp3934
I320
aI240
aI352
aI320
asVprob
p3935
I91
sstp3936
a(I1
V2017:07:28 15:53:25
p3937
(dp3938
V1
p3939
(dp3940
Vcoords
p3941
(lp3942
I96
aI208
aI160
aI384
asVprob
p3943
I91
sstp3944
a(I2
V2017:07:28 15:53:47
p3945
(dp3946
V1
p3947
(dp3948
Vcoords
p3949
(lp3950
I352
aI208
aI400
aI368
asVprob
p3951
I93
ssV2
p3952
(dp3953
Vcoords
p3954
(lp3955
I448
aI224
aI496
aI368
asVprob
p3956
I92
sstp3957
a(I1
V2017:07:28 15:53:53
p3958
(dp3959
V2
p3960
(dp3961
Vcoords
p3962
(lp3963
I528
aI240
aI576
aI368
asVprob
p3964
I87
sstp3965
a(I1
V2017:07:28 15:53:57
p3966
(dp3967
V1
p3968
(dp3969
Vcoords
p3970
(lp3971
I496
aI224
aI544
aI352
asVprob
p3972
I95
sstp3973
a(I2
V2017:07:28 15:54:09
p3974
(dp3975
V1
p3976
(dp3977
Vcoords
p3978
(lp3979
I480
aI224
aI528
aI352
asVprob
p3980
I91
ssV2
p3981
(dp3982
Vcoords
p3983
(lp3984
I496
aI224
aI544
aI352
asVprob
p3985
I88
sstp3986
a(I1
V2017:07:28 15:54:17
p3987
(dp3988
V1
p3989
(dp3990
Vcoords
p3991
(lp3992
I432
aI224
aI464
aI352
asVprob
p3993
I95
sstp3994
a(I1
V2017:07:28 15:54:25
p3995
(dp3996
V1
p3997
(dp3998
Vcoords
p3999
(lp4000
I208
aI176
aI288
aI416
asVprob
p4001
I98
sstp4002
a(I1
V2017:07:28 15:54:49
p4003
(dp4004
V1
p4005
(dp4006
Vcoords
p4007
(lp4008
I208
aI176
aI272
aI368
asVprob
p4009
I84
sstp4010
a(I2
V2017:07:28 15:55:15
p4011
(dp4012
V1
p4013
(dp4014
Vcoords
p4015
(lp4016
I320
aI240
aI352
aI304
asVprob
p4017
I91
ssV2
p4018
(dp4019
Vcoords
p4020
(lp4021
I384
aI240
aI416
aI304
asVprob
p4022
I90
sstp4023
a(I1
V2017:07:28 15:56:13
p4024
(dp4025
V1
p4026
(dp4027
Vcoords
p4028
(lp4029
I256
aI192
aI336
aI384
asVprob
p4030
I96
sstp4031
a(I1
V2017:07:28 15:56:53
p4032
(dp4033
V1
p4034
(dp4035
Vcoords
p4036
(lp4037
I368
aI256
aI400
aI320
asVprob
p4038
I81
sstp4039
a(I1
V2017:07:28 15:56:59
p4040
(dp4041
V1
p4042
(dp4043
Vcoords
p4044
(lp4045
I320
aI240
aI352
aI320
asVprob
p4046
I91
sstp4047
a(I1
V2017:07:28 15:57:07
p4048
(dp4049
V1
p4050
(dp4051
Vcoords
p4052
(lp4053
I288
aI208
aI336
aI336
asVprob
p4054
I98
sstp4055
a(I1
V2017:07:28 15:57:29
p4056
(dp4057
V1
p4058
(dp4059
Vcoords
p4060
(lp4061
I336
aI224
aI384
aI352
asVprob
p4062
I91
sstp4063
a(I2
V2017:07:28 15:57:49
p4064
(dp4065
V1
p4066
(dp4067
Vcoords
p4068
(lp4069
I336
aI240
aI368
aI320
asVprob
p4070
I87
ssV2
p4071
(dp4072
Vcoords
p4073
(lp4074
I352
aI240
aI384
aI320
asVprob
p4075
I86
sstp4076
a(I1
V2017:07:28 15:58:21
p4077
(dp4078
V1
p4079
(dp4080
Vcoords
p4081
(lp4082
I320
aI208
aI368
aI336
asVprob
p4083
I98
sstp4084
a(I1
V2017:07:28 15:59:39
p4085
(dp4086
V1
p4087
(dp4088
Vcoords
p4089
(lp4090
I560
aI192
aI640
aI384
asVprob
p4091
I96
sstp4092
a(I1
V2017:07:28 16:00:01
p4093
(dp4094
V1
p4095
(dp4096
Vcoords
p4097
(lp4098
I256
aI208
aI336
aI368
asVprob
p4099
I98
sstp4100
a(I1
V2017:07:28 16:00:49
p4101
(dp4102
V1
p4103
(dp4104
Vcoords
p4105
(lp4106
I368
aI240
aI400
aI320
asVprob
p4107
I95
sstp4108
a(I1
V2017:07:28 16:01:25
p4109
(dp4110
V1
p4111
(dp4112
Vcoords
p4113
(lp4114
I288
aI128
aI480
aI528
asVprob
p4115
I97
sstp4116
a(I1
V2017:07:28 16:01:33
p4117
(dp4118
V1
p4119
(dp4120
Vcoords
p4121
(lp4122
I624
aI208
aI688
aI368
asVprob
p4123
I90
sstp4124
a(I1
V2017:07:28 16:01:37
p4125
(dp4126
V1
p4127
(dp4128
Vcoords
p4129
(lp4130
I560
aI224
aI608
aI352
asVprob
p4131
I80
sstp4132
a(I2
V2017:07:28 16:01:41
p4133
(dp4134
V1
p4135
(dp4136
Vcoords
p4137
(lp4138
I560
aI224
aI608
aI368
asVprob
p4139
I95
ssV2
p4140
(dp4141
Vcoords
p4142
(lp4143
I576
aI224
aI624
aI368
asVprob
p4144
I86
sstp4145
a(I2
V2017:07:28 16:01:49
p4146
(dp4147
V1
p4148
(dp4149
Vcoords
p4150
(lp4151
I576
aI208
aI624
aI368
asVprob
p4152
I94
ssV2
p4153
(dp4154
Vcoords
p4155
(lp4156
I560
aI208
aI608
aI368
asVprob
p4157
I80
sstp4158
a(I1
V2017:07:28 16:02:01
p4159
(dp4160
V2
p4161
(dp4162
Vcoords
p4163
(lp4164
I608
aI224
aI656
aI352
asVprob
p4165
I84
sstp4166
a(I1
V2017:07:28 16:02:09
p4167
(dp4168
V1
p4169
(dp4170
Vcoords
p4171
(lp4172
I752
aI240
aI784
aI320
asVprob
p4173
I85
sstp4174
a(I1
V2017:07:28 16:03:51
p4175
(dp4176
V1
p4177
(dp4178
Vcoords
p4179
(lp4180
I240
aI176
aI336
aI432
asVprob
p4181
I98
sstp4182
a(I2
V2017:07:28 16:05:23
p4183
(dp4184
V1
p4185
(dp4186
Vcoords
p4187
(lp4188
I336
aI240
aI384
aI320
asVprob
p4189
I97
ssV2
p4190
(dp4191
Vcoords
p4192
(lp4193
I336
aI256
aI368
aI336
asVprob
p4194
I90
sstp4195
a(I2
V2017:07:28 16:05:51
p4196
(dp4197
V1
p4198
(dp4199
Vcoords
p4200
(lp4201
I240
aI208
aI304
aI384
asVprob
p4202
I98
ssV2
p4203
(dp4204
Vcoords
p4205
(lp4206
I304
aI192
aI384
aI384
asVprob
p4207
I95
sstp4208
a(I1
V2017:07:28 16:07:25
p4209
(dp4210
V1
p4211
(dp4212
Vcoords
p4213
(lp4214
I96
aI144
aI208
aI464
asVprob
p4215
I98
sstp4216
a(I1
V2017:07:28 16:09:33
p4217
(dp4218
V1
p4219
(dp4220
Vcoords
p4221
(lp4222
I304
aI224
aI352
aI320
asVprob
p4223
I95
sstp4224
a(I8
V2017:07:28 16:10:31
p4225
(dp4226
V1
p4227
(dp4228
Vcoords
p4229
(lp4230
I128
aI144
aI224
aI480
asVprob
p4231
I98
ssV3
p4232
(dp4233
Vcoords
p4234
(lp4235
I320
aI224
aI368
aI384
asVprob
p4236
I95
ssV2
p4237
(dp4238
Vcoords
p4239
(lp4240
I480
aI112
aI592
aI480
asVprob
p4241
I97
ssV5
p4242
(dp4243
Vcoords
p4244
(lp4245
I384
aI256
aI416
aI352
asVprob
p4246
I91
ssV4
p4247
(dp4248
Vcoords
p4249
(lp4250
I576
aI112
aI672
aI496
asVprob
p4251
I94
ssV7
p4252
(dp4253
Vcoords
p4254
(lp4255
I400
aI240
aI432
aI336
asVprob
p4256
I84
ssV6
p4257
(dp4258
Vcoords
p4259
(lp4260
I240
aI208
aI288
aI352
asVprob
p4261
I91
ssV8
p4262
(dp4263
Vcoords
p4264
(lp4265
I272
aI224
aI320
aI384
asVprob
p4266
I83
sstp4267
a(I1
V2017:07:28 16:10:55
p4268
(dp4269
V1
p4270
(dp4271
Vcoords
p4272
(lp4273
I336
aI224
aI384
aI336
asVprob
p4274
I87
sstp4275
a(I1
V2017:07:28 16:11:53
p4276
(dp4277
V1
p4278
(dp4279
Vcoords
p4280
(lp4281
I304
aI176
aI368
aI368
asVprob
p4282
I97
sstp4283
a(I4
V2017:07:28 16:12:31
p4284
(dp4285
V1
p4286
(dp4287
Vcoords
p4288
(lp4289
I432
aI160
aI528
aI416
asVprob
p4290
I98
ssV3
p4291
(dp4292
Vcoords
p4293
(lp4294
I320
aI160
aI416
aI384
asVprob
p4295
I97
ssV2
p4296
(dp4297
Vcoords
p4298
(lp4299
I96
aI128
aI208
aI480
asVprob
p4300
I97
ssV4
p4301
(dp4302
Vcoords
p4303
(lp4304
I240
aI160
aI336
aI432
asVprob
p4305
I96
sstp4306
a(I3
V2017:07:28 16:12:51
p4307
(dp4308
V1
p4309
(dp4310
Vcoords
p4311
(lp4312
I288
aI256
aI320
aI320
asVprob
p4313
I94
ssV2
p4314
(dp4315
Vcoords
p4316
(lp4317
I336
aI240
aI368
aI320
asVprob
p4318
I85
ssV4
p4319
(dp4320
Vcoords
p4321
(lp4322
I352
aI240
aI384
aI320
asVprob
p4323
I81
sstp4324
a(I1
V2017:07:28 16:12:57
p4325
(dp4326
V2
p4327
(dp4328
Vcoords
p4329
(lp4330
I336
aI240
aI368
aI304
asVprob
p4331
I87
sstp4332
a(I1
V2017:07:28 16:16:09
p4333
(dp4334
V1
p4335
(dp4336
Vcoords
p4337
(lp4338
I256
aI208
aI304
aI352
asVprob
p4339
I98
sstp4340
a(I2
V2017:07:28 16:21:39
p4341
(dp4342
V1
p4343
(dp4344
Vcoords
p4345
(lp4346
I368
aI256
aI400
aI320
asVprob
p4347
I83
ssV2
p4348
(dp4349
Vcoords
p4350
(lp4351
I416
aI240
aI448
aI336
asVprob
p4352
I80
sstp4353
a(I1
V2017:07:28 16:22:01
p4354
(dp4355
V2
p4356
(dp4357
Vcoords
p4358
(lp4359
I656
aI32
aI784
aI640
asVprob
p4360
I90
sstp4361
a.