(lp0
(I1
V2017:07:31 10:16:40
p1
(dp2
V1
p3
(dp4
Vcoords
p5
(lp6
I624
aI0
aI800
aI608
asVprob
p7
I92
sstp8
a(I1
V2017:07:31 10:22:46
p9
(dp10
V2
p11
(dp12
Vcoords
p13
(lp14
I272
aI240
aI320
aI336
asVprob
p15
I93
sstp16
a(I2
V2017:07:31 10:24:24
p17
(dp18
V1
p19
(dp20
Vcoords
p21
(lp22
I240
aI192
aI320
aI400
asVprob
p23
I95
ssV2
p24
(dp25
Vcoords
p26
(lp27
I144
aI176
aI208
aI400
asVprob
p28
I95
sstp29
a(I1
V2017:07:31 10:24:38
p30
(dp31
V1
p32
(dp33
Vcoords
p34
(lp35
I160
aI192
aI240
aI400
asVprob
p36
I96
sstp37
a(I1
V2017:07:31 10:25:20
p38
(dp39
V1
p40
(dp41
Vcoords
p42
(lp43
I112
aI176
aI192
aI384
asVprob
p44
I95
sstp45
a(I1
V2017:07:31 10:26:46
p46
(dp47
V1
p48
(dp49
Vcoords
p50
(lp51
I80
aI64
aI240
aI480
asVprob
p52
I94
sstp53
a(I3
V2017:07:31 10:41:00
p54
(dp55
V1
p56
(dp57
Vcoords
p58
(lp59
I224
aI192
aI288
aI368
asVprob
p60
I96
ssV3
p61
(dp62
Vcoords
p63
(lp64
I48
aI64
aI240
aI544
asVprob
p65
I94
ssV2
p66
(dp67
Vcoords
p68
(lp69
I288
aI208
aI368
aI400
asVprob
p70
I95
sstp71
a(I1
V2017:07:31 10:52:22
p72
(dp73
V1
p74
(dp75
Vcoords
p76
(lp77
I336
aI256
aI368
aI320
asVprob
p78
I87
sstp79
a(I1
V2017:07:31 10:57:34
p80
(dp81
V1
p82
(dp83
Vcoords
p84
(lp85
I128
aI128
aI256
aI432
asVprob
p86
I98
sstp87
a(I1
V2017:07:31 10:59:58
p88
(dp89
V1
p90
(dp91
Vcoords
p92
(lp93
I256
aI224
aI304
aI352
asVprob
p94
I94
sstp95
a(I1
V2017:07:31 11:00:12
p96
(dp97
V1
p98
(dp99
Vcoords
p100
(lp101
I128
aI176
aI192
aI384
asVprob
p102
I98
sstp103
a(I1
V2017:07:31 11:01:46
p104
(dp105
V1
p106
(dp107
Vcoords
p108
(lp109
I208
aI240
aI240
aI304
asVprob
p110
I81
sstp111
a(I1
V2017:07:31 11:05:54
p112
(dp113
V1
p114
(dp115
Vcoords
p116
(lp117
I176
aI144
aI288
aI432
asVprob
p118
I98
sstp119
a(I1
V2017:07:31 11:17:04
p120
(dp121
V1
p122
(dp123
Vcoords
p124
(lp125
I464
aI160
aI608
aI528
asVprob
p126
I92
sstp127
a(I1
V2017:07:31 11:23:50
p128
(dp129
V1
p130
(dp131
Vcoords
p132
(lp133
I208
aI208
aI256
aI352
asVprob
p134
I95
sstp135
a(I1
V2017:07:31 11:29:22
p136
(dp137
V1
p138
(dp139
Vcoords
p140
(lp141
I176
aI80
aI320
aI496
asVprob
p142
I92
sstp143
a(I1
V2017:07:31 11:35:08
p144
(dp145
V1
p146
(dp147
Vcoords
p148
(lp149
I160
aI80
aI320
aI480
asVprob
p150
I95
sstp151
a(I1
V2017:07:31 11:38:02
p152
(dp153
V1
p154
(dp155
Vcoords
p156
(lp157
I112
aI32
aI320
aI528
asVprob
p158
I98
sstp159
a(I1
V2017:07:31 11:44:56
p160
(dp161
V1
p162
(dp163
Vcoords
p164
(lp165
I384
aI-16
aI656
aI640
asVprob
p166
I94
sstp167
a(I1
V2017:07:31 11:46:16
p168
(dp169
V1
p170
(dp171
Vcoords
p172
(lp173
I336
aI224
aI368
aI320
asVprob
p174
I92
sstp175
a(I1
V2017:07:31 11:48:14
p176
(dp177
V2
p178
(dp179
Vcoords
p180
(lp181
I464
aI208
aI528
aI352
asVprob
p182
I92
sstp183
a(I1
V2017:07:31 11:48:48
p184
(dp185
V2
p186
(dp187
Vcoords
p188
(lp189
I400
aI240
aI432
aI304
asVprob
p190
I91
sstp191
a(I1
V2017:07:31 11:51:24
p192
(dp193
V1
p194
(dp195
Vcoords
p196
(lp197
I464
aI112
aI560
aI448
asVprob
p198
I95
sstp199
a(I1
V2017:07:31 11:52:54
p200
(dp201
V1
p202
(dp203
Vcoords
p204
(lp205
I240
aI144
aI336
aI400
asVprob
p206
I99
sstp207
a(I1
V2017:07:31 11:53:34
p208
(dp209
V2
p210
(dp211
Vcoords
p212
(lp213
I384
aI240
aI416
aI304
asVprob
p214
I86
sstp215
a(I1
V2017:07:31 11:53:54
p216
(dp217
V1
p218
(dp219
Vcoords
p220
(lp221
I112
aI160
aI224
aI416
asVprob
p222
I95
sstp223
a(I1
V2017:07:31 11:56:46
p224
(dp225
V1
p226
(dp227
Vcoords
p228
(lp229
I320
aI224
aI352
aI304
asVprob
p230
I89
sstp231
a(I1
V2017:07:31 12:01:18
p232
(dp233
V1
p234
(dp235
Vcoords
p236
(lp237
I336
aI240
aI384
aI384
asVprob
p238
I96
sstp239
a(I1
V2017:07:31 12:05:18
p240
(dp241
V1
p242
(dp243
Vcoords
p244
(lp245
I320
aI240
aI352
aI352
asVprob
p246
I88
sstp247
a(I2
V2017:07:31 12:06:04
p248
(dp249
V1
p250
(dp251
Vcoords
p252
(lp253
I112
aI160
aI208
aI432
asVprob
p254
I97
ssV2
p255
(dp256
Vcoords
p257
(lp258
I208
aI128
aI304
aI480
asVprob
p259
I92
sstp260
a(I1
V2017:07:31 12:06:36
p261
(dp262
V1
p263
(dp264
Vcoords
p265
(lp266
I304
aI272
aI336
aI336
asVprob
p267
I81
sstp268
a(I2
V2017:07:31 12:07:10
p269
(dp270
V1
p271
(dp272
Vcoords
p273
(lp274
I320
aI256
aI368
aI368
asVprob
p275
I92
ssV2
p276
(dp277
Vcoords
p278
(lp279
I304
aI256
aI352
aI368
asVprob
p280
I83
sstp281
a(I1
V2017:07:31 12:08:48
p282
(dp283
V1
p284
(dp285
Vcoords
p286
(lp287
I320
aI240
aI384
aI368
asVprob
p288
I92
sstp289
a(I1
V2017:07:31 12:13:06
p290
(dp291
V1
p292
(dp293
Vcoords
p294
(lp295
I352
aI240
aI400
aI368
asVprob
p296
I97
sstp297
a(I1
V2017:07:31 12:13:56
p298
(dp299
V1
p300
(dp301
Vcoords
p302
(lp303
I272
aI192
aI368
aI432
asVprob
p304
I97
sstp305
a(I2
V2017:07:31 12:14:28
p306
(dp307
V1
p308
(dp309
Vcoords
p310
(lp311
I416
aI144
aI528
aI480
asVprob
p312
I99
ssV2
p313
(dp314
Vcoords
p315
(lp316
I224
aI144
aI336
aI448
asVprob
p317
I97
sstp318
a(I1
V2017:07:31 12:14:58
p319
(dp320
V2
p321
(dp322
Vcoords
p323
(lp324
I480
aI256
aI528
aI368
asVprob
p325
I81
sstp326
a(I1
V2017:07:31 12:15:12
p327
(dp328
V1
p329
(dp330
Vcoords
p331
(lp332
I320
aI272
aI352
aI336
asVprob
p333
I86
sstp334
a(I2
V2017:07:31 12:15:30
p335
(dp336
V1
p337
(dp338
Vcoords
p339
(lp340
I512
aI224
aI576
aI384
asVprob
p341
I98
ssV2
p342
(dp343
Vcoords
p344
(lp345
I352
aI224
aI416
aI384
asVprob
p346
I95
sstp347
a(I1
V2017:07:31 12:15:40
p348
(dp349
V1
p350
(dp351
Vcoords
p352
(lp353
I480
aI288
aI512
aI368
asVprob
p354
I82
sstp355
a(I2
V2017:07:31 12:16:26
p356
(dp357
V1
p358
(dp359
Vcoords
p360
(lp361
I480
aI288
aI528
aI368
asVprob
p362
I87
ssV2
p363
(dp364
Vcoords
p365
(lp366
I544
aI288
aI576
aI352
asVprob
p367
I81
sstp368
a(I1
V2017:07:31 12:16:34
p369
(dp370
V1
p371
(dp372
Vcoords
p373
(lp374
I480
aI288
aI528
aI368
asVprob
p375
I85
sstp376
a(I1
V2017:07:31 12:17:08
p377
(dp378
V1
p379
(dp380
Vcoords
p381
(lp382
I544
aI288
aI576
aI352
asVprob
p383
I84
sstp384
a(I1
V2017:07:31 12:17:28
p385
(dp386
V1
p387
(dp388
Vcoords
p389
(lp390
I544
aI288
aI576
aI352
asVprob
p391
I87
sstp392
a(I1
V2017:07:31 12:17:50
p393
(dp394
V2
p395
(dp396
Vcoords
p397
(lp398
I544
aI288
aI576
aI352
asVprob
p399
I81
sstp400
a(I1
V2017:07:31 12:18:48
p401
(dp402
V1
p403
(dp404
Vcoords
p405
(lp406
I544
aI288
aI576
aI352
asVprob
p407
I83
sstp408
a(I1
V2017:07:31 12:19:08
p409
(dp410
V1
p411
(dp412
Vcoords
p413
(lp414
I544
aI288
aI576
aI352
asVprob
p415
I81
sstp416
a(I1
V2017:07:31 12:19:24
p417
(dp418
V1
p419
(dp420
Vcoords
p421
(lp422
I480
aI288
aI528
aI368
asVprob
p423
I81
sstp424
a(I2
V2017:07:31 12:20:46
p425
(dp426
V1
p427
(dp428
Vcoords
p429
(lp430
I160
aI224
aI240
aI400
asVprob
p431
I97
ssV2
p432
(dp433
Vcoords
p434
(lp435
I512
aI304
aI544
aI368
asVprob
p436
I88
sstp437
a(I1
V2017:07:31 12:23:16
p438
(dp439
V1
p440
(dp441
Vcoords
p442
(lp443
I320
aI256
aI352
aI352
asVprob
p444
I94
sstp445
a(I1
V2017:07:31 12:24:10
p446
(dp447
V1
p448
(dp449
Vcoords
p450
(lp451
I288
aI208
aI368
aI400
asVprob
p452
I97
sstp453
a(I1
V2017:07:31 12:25:46
p454
(dp455
V1
p456
(dp457
Vcoords
p458
(lp459
I288
aI224
aI336
aI368
asVprob
p460
I92
sstp461
a(I1
V2017:07:31 12:26:30
p462
(dp463
V1
p464
(dp465
Vcoords
p466
(lp467
I512
aI288
aI544
aI368
asVprob
p468
I81
sstp469
a(I1
V2017:07:31 12:27:22
p470
(dp471
V1
p472
(dp473
Vcoords
p474
(lp475
I112
aI160
aI224
aI448
asVprob
p476
I98
sstp477
a(I2
V2017:07:31 12:28:12
p478
(dp479
V1
p480
(dp481
Vcoords
p482
(lp483
I576
aI304
aI608
aI368
asVprob
p484
I92
ssV2
p485
(dp486
Vcoords
p487
(lp488
I512
aI304
aI544
aI368
asVprob
p489
I80
sstp490
a(I1
V2017:07:31 12:31:06
p491
(dp492
V1
p493
(dp494
Vcoords
p495
(lp496
I96
aI176
aI192
aI448
asVprob
p497
I96
sstp498
a(I2
V2017:07:31 12:31:52
p499
(dp500
V1
p501
(dp502
Vcoords
p503
(lp504
I128
aI160
aI240
aI480
asVprob
p505
I98
ssV2
p506
(dp507
Vcoords
p508
(lp509
I240
aI160
aI368
aI496
asVprob
p510
I97
sstp511
a(I1
V2017:07:31 12:32:28
p512
(dp513
V1
p514
(dp515
Vcoords
p516
(lp517
I576
aI304
aI608
aI368
asVprob
p518
I89
sstp519
a(I1
V2017:07:31 12:33:02
p520
(dp521
V1
p522
(dp523
Vcoords
p524
(lp525
I256
aI256
aI304
aI336
asVprob
p526
I93
sstp527
a(I1
V2017:07:31 12:35:46
p528
(dp529
V1
p530
(dp531
Vcoords
p532
(lp533
I368
aI272
aI400
aI336
asVprob
p534
I96
sstp535
a(I2
V2017:07:31 12:35:50
p536
(dp537
V1
p538
(dp539
Vcoords
p540
(lp541
I288
aI272
aI336
aI352
asVprob
p542
I89
ssV2
p543
(dp544
Vcoords
p545
(lp546
I352
aI256
aI384
aI336
asVprob
p547
I85
sstp548
a(I1
V2017:07:31 12:37:00
p549
(dp550
V1
p551
(dp552
Vcoords
p553
(lp554
I160
aI176
aI288
aI480
asVprob
p555
I98
sstp556
a(I1
V2017:07:31 12:37:18
p557
(dp558
V1
p559
(dp560
Vcoords
p561
(lp562
I384
aI256
aI416
aI336
asVprob
p563
I95
sstp564
a(I3
V2017:07:31 12:38:16
p565
(dp566
V1
p567
(dp568
Vcoords
p569
(lp570
I224
aI208
aI272
aI384
asVprob
p571
I96
ssV3
p572
(dp573
Vcoords
p574
(lp575
I592
aI304
aI624
aI368
asVprob
p576
I88
ssV4
p577
(dp578
Vcoords
p579
(lp580
I576
aI304
aI608
aI368
asVprob
p581
I84
sstp582
a(I2
V2017:07:31 12:39:08
p583
(dp584
V1
p585
(dp586
Vcoords
p587
(lp588
I64
aI48
aI224
aI544
asVprob
p589
I96
ssV2
p590
(dp591
Vcoords
p592
(lp593
I176
aI48
aI240
aI272
asVprob
p594
I89
sstp595
a(I1
V2017:07:31 12:40:16
p596
(dp597
V1
p598
(dp599
Vcoords
p600
(lp601
I256
aI208
aI352
aI384
asVprob
p602
I95
sstp603
a(I1
V2017:07:31 12:40:50
p604
(dp605
V1
p606
(dp607
Vcoords
p608
(lp609
I64
aI80
aI208
aI528
asVprob
p610
I94
sstp611
a(I4
V2017:07:31 12:43:30
p612
(dp613
V1
p614
(dp615
Vcoords
p616
(lp617
I288
aI256
aI336
aI352
asVprob
p618
I96
ssV3
p619
(dp620
Vcoords
p621
(lp622
I608
aI240
aI656
aI368
asVprob
p623
I87
ssV2
p624
(dp625
Vcoords
p626
(lp627
I336
aI256
aI368
aI352
asVprob
p628
I93
ssV4
p629
(dp630
Vcoords
p631
(lp632
I624
aI240
aI672
aI368
asVprob
p633
I82
sstp634
a(I3
V2017:07:31 12:44:16
p635
(dp636
V1
p637
(dp638
Vcoords
p639
(lp640
I288
aI256
aI336
aI368
asVprob
p641
I98
ssV3
p642
(dp643
Vcoords
p644
(lp645
I336
aI224
aI384
aI368
asVprob
p646
I90
ssV2
p647
(dp648
Vcoords
p649
(lp650
I608
aI240
aI656
aI368
asVprob
p651
I93
sstp652
a(I1
V2017:07:31 12:45:00
p653
(dp654
V1
p655
(dp656
Vcoords
p657
(lp658
I640
aI240
aI688
aI384
asVprob
p659
I81
sstp660
a(I2
V2017:07:31 12:45:38
p661
(dp662
V1
p663
(dp664
Vcoords
p665
(lp666
I640
aI224
aI688
aI368
asVprob
p667
I97
ssV2
p668
(dp669
Vcoords
p670
(lp671
I32
aI176
aI128
aI480
asVprob
p672
I94
sstp673
a(I2
V2017:07:31 12:47:06
p674
(dp675
V1
p676
(dp677
Vcoords
p678
(lp679
I640
aI240
aI688
aI384
asVprob
p680
I86
ssV2
p681
(dp682
Vcoords
p683
(lp684
I288
aI256
aI320
aI336
asVprob
p685
I85
sstp686
a(I2
V2017:07:31 12:48:14
p687
(dp688
V1
p689
(dp690
Vcoords
p691
(lp692
I176
aI192
aI256
aI416
asVprob
p693
I97
ssV2
p694
(dp695
Vcoords
p696
(lp697
I112
aI224
aI176
aI384
asVprob
p698
I91
sstp699
a(I1
V2017:07:31 12:49:38
p700
(dp701
V1
p702
(dp703
Vcoords
p704
(lp705
I608
aI256
aI656
aI352
asVprob
p706
I86
sstp707
a(I1
V2017:07:31 12:50:16
p708
(dp709
V1
p710
(dp711
Vcoords
p712
(lp713
I400
aI160
aI496
aI448
asVprob
p714
I98
sstp715
a(I1
V2017:07:31 12:50:28
p716
(dp717
V1
p718
(dp719
Vcoords
p720
(lp721
I576
aI272
aI624
aI368
asVprob
p722
I88
sstp723
a(I1
V2017:07:31 12:50:42
p724
(dp725
V1
p726
(dp727
Vcoords
p728
(lp729
I576
aI288
aI624
aI368
asVprob
p730
I88
sstp731
a(I1
V2017:07:31 12:52:12
p732
(dp733
V1
p734
(dp735
Vcoords
p736
(lp737
I192
aI176
aI288
aI432
asVprob
p738
I99
sstp739
a(I2
V2017:07:31 12:53:42
p740
(dp741
V1
p742
(dp743
Vcoords
p744
(lp745
I384
aI256
aI416
aI320
asVprob
p746
I89
ssV2
p747
(dp748
Vcoords
p749
(lp750
I336
aI272
aI368
aI336
asVprob
p751
I84
sstp752
a(I2
V2017:07:31 12:54:22
p753
(dp754
V1
p755
(dp756
Vcoords
p757
(lp758
I304
aI256
aI352
aI352
asVprob
p759
I88
ssV2
p760
(dp761
Vcoords
p762
(lp763
I352
aI240
aI400
aI352
asVprob
p764
I84
sstp765
a(I1
V2017:07:31 12:55:20
p766
(dp767
V1
p768
(dp769
Vcoords
p770
(lp771
I288
aI240
aI336
aI352
asVprob
p772
I97
sstp773
a(I2
V2017:07:31 12:56:12
p774
(dp775
V1
p776
(dp777
Vcoords
p778
(lp779
I688
aI256
aI720
aI352
asVprob
p780
I82
ssV2
p781
(dp782
Vcoords
p783
(lp784
I736
aI272
aI768
aI352
asVprob
p785
I80
sstp786
a(I1
V2017:07:31 12:56:18
p787
(dp788
V2
p789
(dp790
Vcoords
p791
(lp792
I576
aI256
aI624
aI368
asVprob
p793
I91
sstp794
a(I1
V2017:07:31 12:56:36
p795
(dp796
V1
p797
(dp798
Vcoords
p799
(lp800
I320
aI256
aI352
aI336
asVprob
p801
I94
sstp802
a(I1
V2017:07:31 12:56:46
p803
(dp804
V1
p805
(dp806
Vcoords
p807
(lp808
I528
aI240
aI576
aI352
asVprob
p809
I92
sstp810
a(I6
V2017:07:31 12:57:00
p811
(dp812
V1
p813
(dp814
Vcoords
p815
(lp816
I352
aI112
aI528
aI512
asVprob
p817
I96
ssV3
p818
(dp819
Vcoords
p820
(lp821
I192
aI192
aI256
aI400
asVprob
p822
I94
ssV2
p823
(dp824
Vcoords
p825
(lp826
I112
aI208
aI192
aI384
asVprob
p827
I95
ssV5
p828
(dp829
Vcoords
p830
(lp831
I592
aI240
aI640
aI368
asVprob
p832
I87
ssV4
p833
(dp834
Vcoords
p835
(lp836
I304
aI256
aI336
aI352
asVprob
p837
I92
ssV6
p838
(dp839
Vcoords
p840
(lp841
I576
aI256
aI624
aI384
asVprob
p842
I80
sstp843
a(I1
V2017:07:31 12:57:34
p844
(dp845
V1
p846
(dp847
Vcoords
p848
(lp849
I528
aI240
aI576
aI368
asVprob
p850
I97
sstp851
a(I2
V2017:07:31 12:57:48
p852
(dp853
V1
p854
(dp855
Vcoords
p856
(lp857
I528
aI256
aI576
aI368
asVprob
p858
I94
ssV2
p859
(dp860
Vcoords
p861
(lp862
I304
aI272
aI336
aI336
asVprob
p863
I84
sstp864
a(I3
V2017:07:31 13:01:04
p865
(dp866
V1
p867
(dp868
Vcoords
p869
(lp870
I560
aI128
aI688
aI480
asVprob
p871
I98
ssV3
p872
(dp873
Vcoords
p874
(lp875
I320
aI224
aI384
aI416
asVprob
p876
I97
ssV2
p877
(dp878
Vcoords
p879
(lp880
I240
aI192
aI320
aI432
asVprob
p881
I97
sstp882
a(I1
V2017:07:31 13:01:16
p883
(dp884
V2
p885
(dp886
Vcoords
p887
(lp888
I528
aI256
aI592
aI400
asVprob
p889
I86
sstp890
a(I2
V2017:07:31 13:01:42
p891
(dp892
V1
p893
(dp894
Vcoords
p895
(lp896
I560
aI288
aI592
aI352
asVprob
p897
I93
ssV5
p898
(dp899
Vcoords
p900
(lp901
I480
aI288
aI512
aI352
asVprob
p902
I83
sstp903
a(I3
V2017:07:31 13:02:14
p904
(dp905
V1
p906
(dp907
Vcoords
p908
(lp909
I592
aI16
aI784
aI576
asVprob
p910
I97
ssV3
p911
(dp912
Vcoords
p913
(lp914
I256
aI256
aI288
aI320
asVprob
p915
I83
ssV2
p916
(dp917
Vcoords
p918
(lp919
I112
aI176
aI192
aI400
asVprob
p920
I96
sstp921
a(I2
V2017:07:31 13:04:00
p922
(dp923
V1
p924
(dp925
Vcoords
p926
(lp927
I32
aI48
aI240
aI592
asVprob
p928
I98
ssV2
p929
(dp930
Vcoords
p931
(lp932
I208
aI176
aI272
aI368
asVprob
p933
I89
sstp934
a(I3
V2017:07:31 13:04:40
p935
(dp936
V1
p937
(dp938
Vcoords
p939
(lp940
I304
aI208
aI352
aI352
asVprob
p941
I97
ssV3
p942
(dp943
Vcoords
p944
(lp945
I560
aI-16
aI816
aI640
asVprob
p946
I90
ssV2
p947
(dp948
Vcoords
p949
(lp950
I320
aI208
aI368
aI352
asVprob
p951
I93
sstp952
a(I3
V2017:07:31 13:08:04
p953
(dp954
V1
p955
(dp956
Vcoords
p957
(lp958
I720
aI256
aI752
aI320
asVprob
p959
I90
ssV3
p960
(dp961
Vcoords
p962
(lp963
I656
aI240
aI688
aI320
asVprob
p964
I83
ssV2
p965
(dp966
Vcoords
p967
(lp968
I352
aI224
aI400
aI336
asVprob
p969
I86
sstp970
a(I1
V2017:07:31 13:15:04
p971
(dp972
V1
p973
(dp974
Vcoords
p975
(lp976
I352
aI224
aI400
aI352
asVprob
p977
I98
sstp978
a(I3
V2017:07:31 13:15:42
p979
(dp980
V1
p981
(dp982
Vcoords
p983
(lp984
I320
aI208
aI384
aI368
asVprob
p985
I97
ssV3
p986
(dp987
Vcoords
p988
(lp989
I256
aI208
aI288
aI336
asVprob
p990
I88
ssV4
p991
(dp992
Vcoords
p993
(lp994
I288
aI256
aI320
aI352
asVprob
p995
I80
sstp996
a(I2
V2017:07:31 13:16:54
p997
(dp998
V1
p999
(dp1000
Vcoords
p1001
(lp1002
I96
aI144
aI208
aI448
asVprob
p1003
I98
ssV2
p1004
(dp1005
Vcoords
p1006
(lp1007
I176
aI16
aI368
aI560
asVprob
p1008
I96
sstp1009
a(I1
V2017:07:31 13:17:44
p1010
(dp1011
V1
p1012
(dp1013
Vcoords
p1014
(lp1015
I176
aI192
aI256
aI384
asVprob
p1016
I98
sstp1017
a(I1
V2017:07:31 13:18:54
p1018
(dp1019
V1
p1020
(dp1021
Vcoords
p1022
(lp1023
I32
aI0
aI256
aI608
asVprob
p1024
I96
sstp1025
a(I2
V2017:07:31 13:19:36
p1026
(dp1027
V1
p1028
(dp1029
Vcoords
p1030
(lp1031
I752
aI256
aI784
aI320
asVprob
p1032
I95
ssV2
p1033
(dp1034
Vcoords
p1035
(lp1036
I320
aI176
aI400
aI384
asVprob
p1037
I92
sstp1038
a(I1
V2017:07:31 13:20:38
p1039
(dp1040
V1
p1041
(dp1042
Vcoords
p1043
(lp1044
I320
aI208
aI384
aI320
asVprob
p1045
I96
sstp1046
a(I1
V2017:07:31 13:22:50
p1047
(dp1048
V1
p1049
(dp1050
Vcoords
p1051
(lp1052
I304
aI256
aI336
aI320
asVprob
p1053
I81
sstp1054
a(I1
V2017:07:31 13:22:58
p1055
(dp1056
V1
p1057
(dp1058
Vcoords
p1059
(lp1060
I304
aI256
aI336
aI320
asVprob
p1061
I90
sstp1062
a(I1
V2017:07:31 13:23:04
p1063
(dp1064
V2
p1065
(dp1066
Vcoords
p1067
(lp1068
I304
aI256
aI336
aI320
asVprob
p1069
I90
sstp1070
a(I3
V2017:07:31 13:24:16
p1071
(dp1072
V1
p1073
(dp1074
Vcoords
p1075
(lp1076
I496
aI112
aI640
aI512
asVprob
p1077
I96
ssV2
p1078
(dp1079
Vcoords
p1080
(lp1081
I752
aI240
aI784
aI336
asVprob
p1082
I90
ssV4
p1083
(dp1084
Vcoords
p1085
(lp1086
I736
aI256
aI784
aI352
asVprob
p1087
I85
sstp1088
a(I2
V2017:07:31 13:24:52
p1089
(dp1090
V1
p1091
(dp1092
Vcoords
p1093
(lp1094
I32
aI144
aI128
aI432
asVprob
p1095
I96
ssV3
p1096
(dp1097
Vcoords
p1098
(lp1099
I224
aI240
aI256
aI320
asVprob
p1100
I83
sstp1101
a(I1
V2017:07:31 13:25:52
p1102
(dp1103
V1
p1104
(dp1105
Vcoords
p1106
(lp1107
I224
aI240
aI256
aI304
asVprob
p1108
I83
sstp1109
a(I1
V2017:07:31 13:25:56
p1110
(dp1111
V2
p1112
(dp1113
Vcoords
p1114
(lp1115
I240
aI256
aI272
aI320
asVprob
p1116
I82
sstp1117
a(I2
V2017:07:31 13:26:18
p1118
(dp1119
V3
p1120
(dp1121
Vcoords
p1122
(lp1123
I224
aI240
aI256
aI320
asVprob
p1124
I82
ssV2
p1125
(dp1126
Vcoords
p1127
(lp1128
I272
aI224
aI336
aI336
asVprob
p1129
I90
sstp1130
a(I1
V2017:07:31 13:27:24
p1131
(dp1132
V3
p1133
(dp1134
Vcoords
p1135
(lp1136
I240
aI256
aI272
aI320
asVprob
p1137
I80
sstp1138
a(I2
V2017:07:31 13:27:42
p1139
(dp1140
V1
p1141
(dp1142
Vcoords
p1143
(lp1144
I352
aI192
aI416
aI368
asVprob
p1145
I97
ssV3
p1146
(dp1147
Vcoords
p1148
(lp1149
I240
aI256
aI272
aI320
asVprob
p1150
I84
sstp1151
a(I1
V2017:07:31 13:28:56
p1152
(dp1153
V2
p1154
(dp1155
Vcoords
p1156
(lp1157
I240
aI256
aI272
aI320
asVprob
p1158
I82
sstp1159
a(I1
V2017:07:31 13:29:54
p1160
(dp1161
V2
p1162
(dp1163
Vcoords
p1164
(lp1165
I240
aI256
aI272
aI320
asVprob
p1166
I89
sstp1167
a(I1
V2017:07:31 13:30:20
p1168
(dp1169
V2
p1170
(dp1171
Vcoords
p1172
(lp1173
I240
aI256
aI272
aI320
asVprob
p1174
I88
sstp1175
a(I1
V2017:07:31 13:30:48
p1176
(dp1177
V2
p1178
(dp1179
Vcoords
p1180
(lp1181
I240
aI256
aI272
aI320
asVprob
p1182
I81
sstp1183
a(I1
V2017:07:31 13:30:58
p1184
(dp1185
V2
p1186
(dp1187
Vcoords
p1188
(lp1189
I240
aI256
aI272
aI320
asVprob
p1190
I84
sstp1191
a(I1
V2017:07:31 13:31:54
p1192
(dp1193
V3
p1194
(dp1195
Vcoords
p1196
(lp1197
I240
aI256
aI272
aI320
asVprob
p1198
I83
sstp1199
a(I1
V2017:07:31 13:34:08
p1200
(dp1201
V1
p1202
(dp1203
Vcoords
p1204
(lp1205
I240
aI160
aI336
aI416
asVprob
p1206
I99
sstp1207
a(I1
V2017:07:31 13:36:54
p1208
(dp1209
V1
p1210
(dp1211
Vcoords
p1212
(lp1213
I256
aI208
aI304
aI320
asVprob
p1214
I95
sstp1215
a(I1
V2017:07:31 13:39:00
p1216
(dp1217
V1
p1218
(dp1219
Vcoords
p1220
(lp1221
I352
aI240
aI384
aI320
asVprob
p1222
I90
sstp1223
a(I1
V2017:07:31 13:39:34
p1224
(dp1225
V1
p1226
(dp1227
Vcoords
p1228
(lp1229
I256
aI160
aI368
aI432
asVprob
p1230
I98
sstp1231
a(I1
V2017:07:31 13:41:28
p1232
(dp1233
V2
p1234
(dp1235
Vcoords
p1236
(lp1237
I224
aI256
aI256
aI320
asVprob
p1238
I83
sstp1239
a(I1
V2017:07:31 13:42:36
p1240
(dp1241
V1
p1242
(dp1243
Vcoords
p1244
(lp1245
I48
aI80
aI208
aI496
asVprob
p1246
I91
sstp1247
a(I1
V2017:07:31 13:43:08
p1248
(dp1249
V1
p1250
(dp1251
Vcoords
p1252
(lp1253
I272
aI224
aI320
aI320
asVprob
p1254
I90
sstp1255
a(I1
V2017:07:31 13:43:36
p1256
(dp1257
V1
p1258
(dp1259
Vcoords
p1260
(lp1261
I304
aI208
aI368
aI320
asVprob
p1262
I93
sstp1263
a(I3
V2017:07:31 13:46:54
p1264
(dp1265
V1
p1266
(dp1267
Vcoords
p1268
(lp1269
I64
aI32
aI240
aI544
asVprob
p1270
I95
ssV3
p1271
(dp1272
Vcoords
p1273
(lp1274
I432
aI208
aI496
aI400
asVprob
p1275
I92
ssV2
p1276
(dp1277
Vcoords
p1278
(lp1279
I304
aI192
aI384
aI384
asVprob
p1280
I94
sstp1281
a(I1
V2017:07:31 13:57:12
p1282
(dp1283
V1
p1284
(dp1285
Vcoords
p1286
(lp1287
I224
aI208
aI304
aI400
asVprob
p1288
I95
sstp1289
a(I2
V2017:07:31 13:58:12
p1290
(dp1291
V1
p1292
(dp1293
Vcoords
p1294
(lp1295
I144
aI176
aI224
aI400
asVprob
p1296
I98
ssV2
p1297
(dp1298
Vcoords
p1299
(lp1300
I224
aI144
aI320
aI416
asVprob
p1301
I97
sstp1302
a(I4
V2017:07:31 14:03:00
p1303
(dp1304
V1
p1305
(dp1306
Vcoords
p1307
(lp1308
I352
aI240
aI400
aI368
asVprob
p1309
I96
ssV3
p1310
(dp1311
Vcoords
p1312
(lp1313
I240
aI208
aI288
aI352
asVprob
p1314
I87
ssV2
p1315
(dp1316
Vcoords
p1317
(lp1318
I160
aI160
aI240
aI400
asVprob
p1319
I95
ssV4
p1320
(dp1321
Vcoords
p1322
(lp1323
I320
aI240
aI352
aI336
asVprob
p1324
I81
sstp1325
a(I2
V2017:07:31 14:04:10
p1326
(dp1327
V1
p1328
(dp1329
Vcoords
p1330
(lp1331
I224
aI208
aI272
aI352
asVprob
p1332
I96
ssV2
p1333
(dp1334
Vcoords
p1335
(lp1336
I672
aI256
aI704
aI320
asVprob
p1337
I86
sstp1338
a(I1
V2017:07:31 14:04:22
p1339
(dp1340
V1
p1341
(dp1342
Vcoords
p1343
(lp1344
I432
aI224
aI480
aI352
asVprob
p1345
I89
sstp1346
a(I1
V2017:07:31 14:05:16
p1347
(dp1348
V1
p1349
(dp1350
Vcoords
p1351
(lp1352
I368
aI240
aI416
aI336
asVprob
p1353
I93
sstp1354
a(I1
V2017:07:31 14:05:22
p1355
(dp1356
V1
p1357
(dp1358
Vcoords
p1359
(lp1360
I432
aI224
aI480
aI336
asVprob
p1361
I80
sstp1362
a(I1
V2017:07:31 14:05:40
p1363
(dp1364
V1
p1365
(dp1366
Vcoords
p1367
(lp1368
I368
aI240
aI400
aI336
asVprob
p1369
I91
sstp1370
a(I1
V2017:07:31 14:06:08
p1371
(dp1372
V1
p1373
(dp1374
Vcoords
p1375
(lp1376
I464
aI224
aI512
aI352
asVprob
p1377
I87
sstp1378
a(I1
V2017:07:31 14:06:26
p1379
(dp1380
V1
p1381
(dp1382
Vcoords
p1383
(lp1384
I368
aI224
aI400
aI320
asVprob
p1385
I90
sstp1386
a(I1
V2017:07:31 14:06:36
p1387
(dp1388
V1
p1389
(dp1390
Vcoords
p1391
(lp1392
I480
aI208
aI528
aI336
asVprob
p1393
I97
sstp1394
a(I1
V2017:07:31 14:06:52
p1395
(dp1396
V1
p1397
(dp1398
Vcoords
p1399
(lp1400
I464
aI224
aI512
aI352
asVprob
p1401
I93
sstp1402
a(I2
V2017:07:31 14:07:52
p1403
(dp1404
V1
p1405
(dp1406
Vcoords
p1407
(lp1408
I176
aI128
aI304
aI496
asVprob
p1409
I98
ssV2
p1410
(dp1411
Vcoords
p1412
(lp1413
I48
aI144
aI160
aI480
asVprob
p1414
I94
sstp1415
a(I2
V2017:07:31 14:08:04
p1416
(dp1417
V3
p1418
(dp1419
Vcoords
p1420
(lp1421
I320
aI224
aI368
aI352
asVprob
p1422
I93
ssV2
p1423
(dp1424
Vcoords
p1425
(lp1426
I272
aI224
aI320
aI352
asVprob
p1427
I94
sstp1428
a(I2
V2017:07:31 14:09:28
p1429
(dp1430
V1
p1431
(dp1432
Vcoords
p1433
(lp1434
I240
aI144
aI352
aI400
asVprob
p1435
I98
ssV3
p1436
(dp1437
Vcoords
p1438
(lp1439
I208
aI208
aI256
aI352
asVprob
p1440
I82
sstp1441
a(I1
V2017:07:31 14:09:42
p1442
(dp1443
V1
p1444
(dp1445
Vcoords
p1446
(lp1447
I672
aI256
aI704
aI320
asVprob
p1448
I95
sstp1449
a(I1
V2017:07:31 14:09:46
p1450
(dp1451
V1
p1452
(dp1453
Vcoords
p1454
(lp1455
I160
aI96
aI304
aI480
asVprob
p1456
I98
sstp1457
a(I2
V2017:07:31 14:10:50
p1458
(dp1459
V1
p1460
(dp1461
Vcoords
p1462
(lp1463
I288
aI208
aI336
aI336
asVprob
p1464
I95
ssV3
p1465
(dp1466
Vcoords
p1467
(lp1468
I304
aI224
aI352
aI352
asVprob
p1469
I83
sstp1470
a(I4
V2017:07:31 14:13:16
p1471
(dp1472
V1
p1473
(dp1474
Vcoords
p1475
(lp1476
I240
aI208
aI304
aI368
asVprob
p1477
I96
ssV3
p1478
(dp1479
Vcoords
p1480
(lp1481
I352
aI224
aI400
aI336
asVprob
p1482
I94
ssV2
p1483
(dp1484
Vcoords
p1485
(lp1486
I576
aI208
aI640
aI400
asVprob
p1487
I95
ssV4
p1488
(dp1489
Vcoords
p1490
(lp1491
I512
aI208
aI576
aI400
asVprob
p1492
I94
sstp1493
a(I1
V2017:07:31 14:14:40
p1494
(dp1495
V1
p1496
(dp1497
Vcoords
p1498
(lp1499
I256
aI192
aI320
aI384
asVprob
p1500
I90
sstp1501
a(I2
V2017:07:31 14:16:42
p1502
(dp1503
V1
p1504
(dp1505
Vcoords
p1506
(lp1507
I304
aI80
aI480
aI496
asVprob
p1508
I91
ssV2
p1509
(dp1510
Vcoords
p1511
(lp1512
I400
aI128
aI512
aI480
asVprob
p1513
I87
sstp1514
a(I1
V2017:07:31 14:16:54
p1515
(dp1516
V1
p1517
(dp1518
Vcoords
p1519
(lp1520
I16
aI-16
aI272
aI576
asVprob
p1521
I94
sstp1522
a(I2
V2017:07:31 14:17:14
p1523
(dp1524
V1
p1525
(dp1526
Vcoords
p1527
(lp1528
I96
aI144
aI208
aI432
asVprob
p1529
I99
ssV2
p1530
(dp1531
Vcoords
p1532
(lp1533
I32
aI144
aI112
aI400
asVprob
p1534
I82
sstp1535
a(I2
V2017:07:31 14:19:16
p1536
(dp1537
V1
p1538
(dp1539
Vcoords
p1540
(lp1541
I288
aI240
aI320
aI320
asVprob
p1542
I95
ssV3
p1543
(dp1544
Vcoords
p1545
(lp1546
I240
aI240
aI272
aI320
asVprob
p1547
I86
sstp1548
a(I1
V2017:07:31 14:20:12
p1549
(dp1550
V1
p1551
(dp1552
Vcoords
p1553
(lp1554
I208
aI224
aI240
aI336
asVprob
p1555
I85
sstp1556
a(I1
V2017:07:31 14:20:16
p1557
(dp1558
V1
p1559
(dp1560
Vcoords
p1561
(lp1562
I208
aI208
aI256
aI336
asVprob
p1563
I91
sstp1564
a(I1
V2017:07:31 14:20:20
p1565
(dp1566
V2
p1567
(dp1568
Vcoords
p1569
(lp1570
I272
aI224
aI304
aI320
asVprob
p1571
I81
sstp1572
a(I1
V2017:07:31 14:20:24
p1573
(dp1574
V1
p1575
(dp1576
Vcoords
p1577
(lp1578
I272
aI224
aI304
aI320
asVprob
p1579
I90
sstp1580
a(I1
V2017:07:31 14:20:42
p1581
(dp1582
V2
p1583
(dp1584
Vcoords
p1585
(lp1586
I368
aI240
aI416
aI336
asVprob
p1587
I89
sstp1588
a(I1
V2017:07:31 14:21:12
p1589
(dp1590
V1
p1591
(dp1592
Vcoords
p1593
(lp1594
I288
aI224
aI320
aI320
asVprob
p1595
I90
sstp1596
a(I1
V2017:07:31 14:23:18
p1597
(dp1598
V1
p1599
(dp1600
Vcoords
p1601
(lp1602
I640
aI224
aI704
aI352
asVprob
p1603
I96
sstp1604
a(I1
V2017:07:31 14:25:16
p1605
(dp1606
V1
p1607
(dp1608
Vcoords
p1609
(lp1610
I320
aI192
aI384
aI384
asVprob
p1611
I98
sstp1612
a(I1
V2017:07:31 14:25:52
p1613
(dp1614
V1
p1615
(dp1616
Vcoords
p1617
(lp1618
I240
aI208
aI304
aI352
asVprob
p1619
I91
sstp1620
a(I2
V2017:07:31 14:26:00
p1621
(dp1622
V1
p1623
(dp1624
Vcoords
p1625
(lp1626
I352
aI224
aI400
aI320
asVprob
p1627
I95
ssV2
p1628
(dp1629
Vcoords
p1630
(lp1631
I368
aI240
aI400
aI336
asVprob
p1632
I88
sstp1633
a(I1
V2017:07:31 14:26:26
p1634
(dp1635
V1
p1636
(dp1637
Vcoords
p1638
(lp1639
I320
aI240
aI352
aI320
asVprob
p1640
I81
sstp1641
a(I4
V2017:07:31 14:30:38
p1642
(dp1643
V1
p1644
(dp1645
Vcoords
p1646
(lp1647
I160
aI80
aI320
aI496
asVprob
p1648
I98
ssV3
p1649
(dp1650
Vcoords
p1651
(lp1652
I320
aI160
aI368
aI384
asVprob
p1653
I93
ssV2
p1654
(dp1655
Vcoords
p1656
(lp1657
I48
aI176
aI112
aI416
asVprob
p1658
I93
ssV5
p1659
(dp1660
Vcoords
p1661
(lp1662
I96
aI176
aI176
aI432
asVprob
p1663
I83
sstp1664
a(I3
V2017:07:31 14:30:54
p1665
(dp1666
V1
p1667
(dp1668
Vcoords
p1669
(lp1670
I240
aI208
aI288
aI336
asVprob
p1671
I97
ssV3
p1672
(dp1673
Vcoords
p1674
(lp1675
I336
aI208
aI384
aI352
asVprob
p1676
I88
ssV4
p1677
(dp1678
Vcoords
p1679
(lp1680
I288
aI208
aI320
aI352
asVprob
p1681
I86
sstp1682
a(I2
V2017:07:31 14:31:28
p1683
(dp1684
V1
p1685
(dp1686
Vcoords
p1687
(lp1688
I128
aI176
aI208
aI400
asVprob
p1689
I97
ssV2
p1690
(dp1691
Vcoords
p1692
(lp1693
I192
aI176
aI272
aI432
asVprob
p1694
I94
sstp1695
a(I2
V2017:07:31 14:33:22
p1696
(dp1697
V1
p1698
(dp1699
Vcoords
p1700
(lp1701
I128
aI144
aI240
aI432
asVprob
p1702
I99
ssV2
p1703
(dp1704
Vcoords
p1705
(lp1706
I32
aI144
aI112
aI384
asVprob
p1707
I96
sstp1708
a(I1
V2017:07:31 14:42:48
p1709
(dp1710
V1
p1711
(dp1712
Vcoords
p1713
(lp1714
I256
aI144
aI368
aI400
asVprob
p1715
I99
sstp1716
a(I1
V2017:07:31 14:43:48
p1717
(dp1718
V1
p1719
(dp1720
Vcoords
p1721
(lp1722
I384
aI256
aI416
aI320
asVprob
p1723
I87
sstp1724
a(I1
V2017:07:31 14:45:44
p1725
(dp1726
V1
p1727
(dp1728
Vcoords
p1729
(lp1730
I16
aI16
aI208
aI608
asVprob
p1731
I88
sstp1732
a(I2
V2017:07:31 14:47:04
p1733
(dp1734
V1
p1735
(dp1736
Vcoords
p1737
(lp1738
I288
aI176
aI368
aI400
asVprob
p1739
I98
ssV2
p1740
(dp1741
Vcoords
p1742
(lp1743
I192
aI192
aI272
aI400
asVprob
p1744
I98
sstp1745
a(I1
V2017:07:31 14:47:10
p1746
(dp1747
V1
p1748
(dp1749
Vcoords
p1750
(lp1751
I368
aI240
aI400
aI304
asVprob
p1752
I82
sstp1753
a(I2
V2017:07:31 14:49:04
p1754
(dp1755
V1
p1756
(dp1757
Vcoords
p1758
(lp1759
I464
aI224
aI512
aI336
asVprob
p1760
I97
ssV2
p1761
(dp1762
Vcoords
p1763
(lp1764
I368
aI224
aI400
aI320
asVprob
p1765
I89
sstp1766
a(I1
V2017:07:31 14:49:12
p1767
(dp1768
V1
p1769
(dp1770
Vcoords
p1771
(lp1772
I368
aI240
aI400
aI320
asVprob
p1773
I95
sstp1774
a(I1
V2017:07:31 14:49:50
p1775
(dp1776
V1
p1777
(dp1778
Vcoords
p1779
(lp1780
I224
aI-16
aI544
aI624
asVprob
p1781
I95
sstp1782
a(I1
V2017:07:31 14:50:06
p1783
(dp1784
V1
p1785
(dp1786
Vcoords
p1787
(lp1788
I176
aI96
aI288
aI480
asVprob
p1789
I95
sstp1790
a(I3
V2017:07:31 14:51:42
p1791
(dp1792
V1
p1793
(dp1794
Vcoords
p1795
(lp1796
I80
aI208
aI160
aI384
asVprob
p1797
I95
ssV3
p1798
(dp1799
Vcoords
p1800
(lp1801
I288
aI240
aI320
aI320
asVprob
p1802
I90
ssV2
p1803
(dp1804
Vcoords
p1805
(lp1806
I720
aI240
aI752
aI352
asVprob
p1807
I94
sstp1808
a(I3
V2017:07:31 14:51:50
p1809
(dp1810
V1
p1811
(dp1812
Vcoords
p1813
(lp1814
I64
aI0
aI288
aI544
asVprob
p1815
I94
ssV3
p1816
(dp1817
Vcoords
p1818
(lp1819
I288
aI224
aI320
aI304
asVprob
p1820
I82
ssV2
p1821
(dp1822
Vcoords
p1823
(lp1824
I32
aI160
aI96
aI400
asVprob
p1825
I89
sstp1826
a(I3
V2017:07:31 14:52:04
p1827
(dp1828
V1
p1829
(dp1830
Vcoords
p1831
(lp1832
I336
aI208
aI384
aI320
asVprob
p1833
I96
ssV3
p1834
(dp1835
Vcoords
p1836
(lp1837
I416
aI192
aI480
aI352
asVprob
p1838
I86
ssV4
p1839
(dp1840
Vcoords
p1841
(lp1842
I272
aI240
aI304
aI320
asVprob
p1843
I84
sstp1844
a(I1
V2017:07:31 14:52:18
p1845
(dp1846
V1
p1847
(dp1848
Vcoords
p1849
(lp1850
I256
aI240
aI288
aI304
asVprob
p1851
I80
sstp1852
a(I1
V2017:07:31 14:52:24
p1853
(dp1854
V1
p1855
(dp1856
Vcoords
p1857
(lp1858
I256
aI240
aI288
aI304
asVprob
p1859
I83
sstp1860
a(I1
V2017:07:31 14:52:34
p1861
(dp1862
V3
p1863
(dp1864
Vcoords
p1865
(lp1866
I256
aI240
aI288
aI304
asVprob
p1867
I83
sstp1868
a(I1
V2017:07:31 14:52:38
p1869
(dp1870
V2
p1871
(dp1872
Vcoords
p1873
(lp1874
I256
aI240
aI288
aI304
asVprob
p1875
I84
sstp1876
a(I1
V2017:07:31 14:52:52
p1877
(dp1878
V1
p1879
(dp1880
Vcoords
p1881
(lp1882
I256
aI240
aI288
aI304
asVprob
p1883
I88
sstp1884
a(I1
V2017:07:31 14:53:04
p1885
(dp1886
V1
p1887
(dp1888
Vcoords
p1889
(lp1890
I256
aI240
aI288
aI304
asVprob
p1891
I84
sstp1892
a(I1
V2017:07:31 14:53:14
p1893
(dp1894
V1
p1895
(dp1896
Vcoords
p1897
(lp1898
I272
aI160
aI352
aI368
asVprob
p1899
I98
sstp1900
a(I1
V2017:07:31 14:53:34
p1901
(dp1902
V2
p1903
(dp1904
Vcoords
p1905
(lp1906
I256
aI240
aI288
aI304
asVprob
p1907
I84
sstp1908
a(I1
V2017:07:31 14:53:40
p1909
(dp1910
V1
p1911
(dp1912
Vcoords
p1913
(lp1914
I256
aI240
aI288
aI304
asVprob
p1915
I80
sstp1916
a(I1
V2017:07:31 14:53:44
p1917
(dp1918
V1
p1919
(dp1920
Vcoords
p1921
(lp1922
I256
aI240
aI288
aI304
asVprob
p1923
I84
sstp1924
a(I1
V2017:07:31 14:53:50
p1925
(dp1926
V1
p1927
(dp1928
Vcoords
p1929
(lp1930
I256
aI240
aI288
aI304
asVprob
p1931
I82
sstp1932
a(I1
V2017:07:31 14:54:06
p1933
(dp1934
V1
p1935
(dp1936
Vcoords
p1937
(lp1938
I624
aI256
aI656
aI320
asVprob
p1939
I89
sstp1940
a(I1
V2017:07:31 14:54:58
p1941
(dp1942
V2
p1943
(dp1944
Vcoords
p1945
(lp1946
I448
aI224
aI496
aI336
asVprob
p1947
I84
sstp1948
a(I2
V2017:07:31 14:55:50
p1949
(dp1950
V1
p1951
(dp1952
Vcoords
p1953
(lp1954
I352
aI240
aI384
aI304
asVprob
p1955
I90
ssV2
p1956
(dp1957
Vcoords
p1958
(lp1959
I256
aI240
aI288
aI304
asVprob
p1960
I87
sstp1961
a(I1
V2017:07:31 14:56:52
p1962
(dp1963
V1
p1964
(dp1965
Vcoords
p1966
(lp1967
I64
aI192
aI128
aI352
asVprob
p1968
I96
sstp1969
a(I1
V2017:07:31 14:58:06
p1970
(dp1971
V2
p1972
(dp1973
Vcoords
p1974
(lp1975
I224
aI208
aI272
aI304
asVprob
p1976
I85
sstp1977
a(I1
V2017:07:31 14:58:14
p1978
(dp1979
V1
p1980
(dp1981
Vcoords
p1982
(lp1983
I112
aI208
aI176
aI352
asVprob
p1984
I95
sstp1985
a(I1
V2017:07:31 14:58:18
p1986
(dp1987
V1
p1988
(dp1989
Vcoords
p1990
(lp1991
I128
aI208
aI192
aI352
asVprob
p1992
I94
sstp1993
a(I1
V2017:07:31 14:58:24
p1994
(dp1995
V1
p1996
(dp1997
Vcoords
p1998
(lp1999
I112
aI208
aI176
aI352
asVprob
p2000
I96
sstp2001
a(I1
V2017:07:31 14:58:34
p2002
(dp2003
V2
p2004
(dp2005
Vcoords
p2006
(lp2007
I192
aI208
aI256
aI352
asVprob
p2008
I92
sstp2009
a(I1
V2017:07:31 14:59:14
p2010
(dp2011
V1
p2012
(dp2013
Vcoords
p2014
(lp2015
I368
aI208
aI416
aI304
asVprob
p2016
I90
sstp2017
a(I2
V2017:07:31 14:59:30
p2018
(dp2019
V1
p2020
(dp2021
Vcoords
p2022
(lp2023
I320
aI224
aI352
aI304
asVprob
p2024
I88
ssV2
p2025
(dp2026
Vcoords
p2027
(lp2028
I384
aI224
aI416
aI304
asVprob
p2029
I87
sstp2030
a(I1
V2017:07:31 15:00:00
p2031
(dp2032
V1
p2033
(dp2034
Vcoords
p2035
(lp2036
I336
aI224
aI368
aI320
asVprob
p2037
I93
sstp2038
a(I1
V2017:07:31 15:00:50
p2039
(dp2040
V1
p2041
(dp2042
Vcoords
p2043
(lp2044
I288
aI208
aI336
aI320
asVprob
p2045
I95
sstp2046
a(I2
V2017:07:31 15:01:54
p2047
(dp2048
V1
p2049
(dp2050
Vcoords
p2051
(lp2052
I640
aI240
aI672
aI320
asVprob
p2053
I95
ssV2
p2054
(dp2055
Vcoords
p2056
(lp2057
I304
aI176
aI384
aI384
asVprob
p2058
I95
sstp2059
a(I1
V2017:07:31 15:03:18
p2060
(dp2061
V1
p2062
(dp2063
Vcoords
p2064
(lp2065
I688
aI240
aI736
aI352
asVprob
p2066
I89
sstp2067
a(I1
V2017:07:31 15:03:42
p2068
(dp2069
V1
p2070
(dp2071
Vcoords
p2072
(lp2073
I240
aI144
aI336
aI400
asVprob
p2074
I98
sstp2075
a(I4
V2017:07:31 15:05:42
p2076
(dp2077
V1
p2078
(dp2079
Vcoords
p2080
(lp2081
I464
aI208
aI528
aI368
asVprob
p2082
I97
ssV3
p2083
(dp2084
Vcoords
p2085
(lp2086
I448
aI192
aI512
aI352
asVprob
p2087
I94
ssV2
p2088
(dp2089
Vcoords
p2090
(lp2091
I352
aI224
aI400
aI320
asVprob
p2092
I97
ssV4
p2093
(dp2094
Vcoords
p2095
(lp2096
I528
aI208
aI576
aI352
asVprob
p2097
I87
sstp2098
a(I1
V2017:07:31 15:08:06
p2099
(dp2100
V1
p2101
(dp2102
Vcoords
p2103
(lp2104
I32
aI160
aI112
aI416
asVprob
p2105
I94
sstp2106
a(I2
V2017:07:31 15:12:06
p2107
(dp2108
V1
p2109
(dp2110
Vcoords
p2111
(lp2112
I192
aI176
aI256
aI352
asVprob
p2113
I92
ssV2
p2114
(dp2115
Vcoords
p2116
(lp2117
I384
aI240
aI416
aI320
asVprob
p2118
I91
sstp2119
a(I3
V2017:07:31 15:12:36
p2120
(dp2121
V1
p2122
(dp2123
Vcoords
p2124
(lp2125
I112
aI208
aI176
aI368
asVprob
p2126
I98
ssV3
p2127
(dp2128
Vcoords
p2129
(lp2130
I240
aI224
aI288
aI320
asVprob
p2131
I95
ssV2
p2132
(dp2133
Vcoords
p2134
(lp2135
I304
aI208
aI352
aI320
asVprob
p2136
I97
sstp2137
a(I1
V2017:07:31 15:13:00
p2138
(dp2139
V1
p2140
(dp2141
Vcoords
p2142
(lp2143
I64
aI208
aI128
aI368
asVprob
p2144
I97
sstp2145
a(I1
V2017:07:31 15:13:04
p2146
(dp2147
V1
p2148
(dp2149
Vcoords
p2150
(lp2151
I80
aI192
aI144
aI368
asVprob
p2152
I97
sstp2153
a(I3
V2017:07:31 15:13:14
p2154
(dp2155
V1
p2156
(dp2157
Vcoords
p2158
(lp2159
I112
aI192
aI176
aI368
asVprob
p2160
I97
ssV3
p2161
(dp2162
Vcoords
p2163
(lp2164
I336
aI208
aI400
aI416
asVprob
p2165
I95
ssV2
p2166
(dp2167
Vcoords
p2168
(lp2169
I240
aI144
aI336
aI400
asVprob
p2170
I97
sstp2171
a(I1
V2017:07:31 15:15:40
p2172
(dp2173
V1
p2174
(dp2175
Vcoords
p2176
(lp2177
I384
aI240
aI416
aI304
asVprob
p2178
I86
sstp2179
a(I2
V2017:07:31 15:15:46
p2180
(dp2181
V1
p2182
(dp2183
Vcoords
p2184
(lp2185
I224
aI208
aI272
aI320
asVprob
p2186
I88
ssV2
p2187
(dp2188
Vcoords
p2189
(lp2190
I208
aI208
aI256
aI320
asVprob
p2191
I83
sstp2192
a(I1
V2017:07:31 15:16:00
p2193
(dp2194
V1
p2195
(dp2196
Vcoords
p2197
(lp2198
I80
aI176
aI144
aI368
asVprob
p2199
I95
sstp2200
a(I2
V2017:07:31 15:17:14
p2201
(dp2202
V1
p2203
(dp2204
Vcoords
p2205
(lp2206
I80
aI80
aI208
aI432
asVprob
p2207
I96
ssV2
p2208
(dp2209
Vcoords
p2210
(lp2211
I352
aI240
aI384
aI304
asVprob
p2212
I88
sstp2213
a(I2
V2017:07:31 15:17:30
p2214
(dp2215
V1
p2216
(dp2217
Vcoords
p2218
(lp2219
I240
aI192
aI288
aI336
asVprob
p2220
I93
ssV2
p2221
(dp2222
Vcoords
p2223
(lp2224
I352
aI208
aI400
aI336
asVprob
p2225
I92
sstp2226
a(I1
V2017:07:31 15:19:14
p2227
(dp2228
V1
p2229
(dp2230
Vcoords
p2231
(lp2232
I288
aI224
aI336
aI336
asVprob
p2233
I96
sstp2234
a(I1
V2017:07:31 15:19:30
p2235
(dp2236
V1
p2237
(dp2238
Vcoords
p2239
(lp2240
I256
aI208
aI320
aI352
asVprob
p2241
I90
sstp2242
a(I2
V2017:07:31 15:22:12
p2243
(dp2244
V1
p2245
(dp2246
Vcoords
p2247
(lp2248
I224
aI208
aI272
aI336
asVprob
p2249
I96
ssV2
p2250
(dp2251
Vcoords
p2252
(lp2253
I272
aI192
aI336
aI336
asVprob
p2254
I90
sstp2255
a(I1
V2017:07:31 15:23:14
p2256
(dp2257
V1
p2258
(dp2259
Vcoords
p2260
(lp2261
I336
aI240
aI368
aI304
asVprob
p2262
I90
sstp2263
a(I3
V2017:07:31 15:25:18
p2264
(dp2265
V1
p2266
(dp2267
Vcoords
p2268
(lp2269
I240
aI176
aI304
aI400
asVprob
p2270
I98
ssV3
p2271
(dp2272
Vcoords
p2273
(lp2274
I352
aI208
aI400
aI336
asVprob
p2275
I94
ssV2
p2276
(dp2277
Vcoords
p2278
(lp2279
I192
aI192
aI256
aI352
asVprob
p2280
I96
sstp2281
a(I3
V2017:07:31 15:25:30
p2282
(dp2283
V1
p2284
(dp2285
Vcoords
p2286
(lp2287
I288
aI192
aI352
aI384
asVprob
p2288
I96
ssV3
p2289
(dp2290
Vcoords
p2291
(lp2292
I320
aI192
aI384
aI384
asVprob
p2293
I93
ssV2
p2294
(dp2295
Vcoords
p2296
(lp2297
I192
aI192
aI272
aI416
asVprob
p2298
I94
sstp2299
a(I3
V2017:07:31 15:25:50
p2300
(dp2301
V1
p2302
(dp2303
Vcoords
p2304
(lp2305
I208
aI144
aI304
aI416
asVprob
p2306
I97
ssV3
p2307
(dp2308
Vcoords
p2309
(lp2310
I144
aI176
aI208
aI368
asVprob
p2311
I95
ssV2
p2312
(dp2313
Vcoords
p2314
(lp2315
I304
aI192
aI352
aI352
asVprob
p2316
I96
sstp2317
a(I2
V2017:07:31 15:25:56
p2318
(dp2319
V1
p2320
(dp2321
Vcoords
p2322
(lp2323
I224
aI208
aI272
aI336
asVprob
p2324
I96
ssV2
p2325
(dp2326
Vcoords
p2327
(lp2328
I272
aI208
aI304
aI336
asVprob
p2329
I94
sstp2330
a(I2
V2017:07:31 15:26:06
p2331
(dp2332
V1
p2333
(dp2334
Vcoords
p2335
(lp2336
I240
aI176
aI304
aI352
asVprob
p2337
I97
ssV2
p2338
(dp2339
Vcoords
p2340
(lp2341
I288
aI176
aI352
aI368
asVprob
p2342
I96
sstp2343
a(I1
V2017:07:31 15:27:00
p2344
(dp2345
V1
p2346
(dp2347
Vcoords
p2348
(lp2349
I320
aI224
aI352
aI304
asVprob
p2350
I87
sstp2351
a(I1
V2017:07:31 15:28:08
p2352
(dp2353
V1
p2354
(dp2355
Vcoords
p2356
(lp2357
I192
aI128
aI320
aI416
asVprob
p2358
I98
sstp2359
a(I1
V2017:07:31 15:30:42
p2360
(dp2361
V1
p2362
(dp2363
Vcoords
p2364
(lp2365
I144
aI176
aI208
aI368
asVprob
p2366
I96
sstp2367
a(I1
V2017:07:31 15:31:44
p2368
(dp2369
V1
p2370
(dp2371
Vcoords
p2372
(lp2373
I224
aI96
aI352
aI448
asVprob
p2374
I97
sstp2375
a(I2
V2017:07:31 15:32:00
p2376
(dp2377
V1
p2378
(dp2379
Vcoords
p2380
(lp2381
I320
aI224
aI352
aI304
asVprob
p2382
I88
ssV4
p2383
(dp2384
Vcoords
p2385
(lp2386
I352
aI224
aI400
aI336
asVprob
p2387
I85
sstp2388
a(I1
V2017:07:31 15:33:10
p2389
(dp2390
V1
p2391
(dp2392
Vcoords
p2393
(lp2394
I288
aI192
aI352
aI352
asVprob
p2395
I91
sstp2396
a(I1
V2017:07:31 15:34:14
p2397
(dp2398
V1
p2399
(dp2400
Vcoords
p2401
(lp2402
I320
aI224
aI384
aI336
asVprob
p2403
I91
sstp2404
a(I1
V2017:07:31 15:36:46
p2405
(dp2406
V1
p2407
(dp2408
Vcoords
p2409
(lp2410
I368
aI224
aI416
aI304
asVprob
p2411
I91
sstp2412
a(I1
V2017:07:31 15:38:50
p2413
(dp2414
V1
p2415
(dp2416
Vcoords
p2417
(lp2418
I176
aI128
aI272
aI400
asVprob
p2419
I98
sstp2420
a(I1
V2017:07:31 15:41:28
p2421
(dp2422
V1
p2423
(dp2424
Vcoords
p2425
(lp2426
I368
aI240
aI400
aI304
asVprob
p2427
I90
sstp2428
a(I3
V2017:07:31 15:41:40
p2429
(dp2430
V1
p2431
(dp2432
Vcoords
p2433
(lp2434
I304
aI64
aI480
aI528
asVprob
p2435
I98
ssV3
p2436
(dp2437
Vcoords
p2438
(lp2439
I112
aI80
aI288
aI496
asVprob
p2440
I97
ssV2
p2441
(dp2442
Vcoords
p2443
(lp2444
I496
aI144
aI592
aI432
asVprob
p2445
I98
sstp2446
a(I2
V2017:07:31 15:42:18
p2447
(dp2448
V1
p2449
(dp2450
Vcoords
p2451
(lp2452
I160
aI80
aI304
aI496
asVprob
p2453
I98
ssV2
p2454
(dp2455
Vcoords
p2456
(lp2457
I336
aI240
aI368
aI304
asVprob
p2458
I93
sstp2459
a(I1
V2017:07:31 15:43:56
p2460
(dp2461
V1
p2462
(dp2463
Vcoords
p2464
(lp2465
I112
aI64
aI272
aI464
asVprob
p2466
I99
sstp2467
a(I1
V2017:07:31 15:44:54
p2468
(dp2469
V1
p2470
(dp2471
Vcoords
p2472
(lp2473
I224
aI144
aI320
aI384
asVprob
p2474
I96
sstp2475
a(I2
V2017:07:31 15:45:58
p2476
(dp2477
V1
p2478
(dp2479
Vcoords
p2480
(lp2481
I80
aI176
aI176
aI416
asVprob
p2482
I98
ssV2
p2483
(dp2484
Vcoords
p2485
(lp2486
I368
aI224
aI400
aI304
asVprob
p2487
I94
sstp2488
a(I1
V2017:07:31 15:47:04
p2489
(dp2490
V1
p2491
(dp2492
Vcoords
p2493
(lp2494
I64
aI144
aI160
aI400
asVprob
p2495
I99
sstp2496
a(I1
V2017:07:31 15:52:34
p2497
(dp2498
V1
p2499
(dp2500
Vcoords
p2501
(lp2502
I16
aI16
aI128
aI432
asVprob
p2503
I83
sstp2504
a(I1
V2017:07:31 16:01:10
p2505
(dp2506
V1
p2507
(dp2508
Vcoords
p2509
(lp2510
I272
aI176
aI352
aI368
asVprob
p2511
I98
sstp2512
a(I1
V2017:07:31 16:01:26
p2513
(dp2514
V1
p2515
(dp2516
Vcoords
p2517
(lp2518
I224
aI176
aI288
aI352
asVprob
p2519
I97
sstp2520
a(I1
V2017:07:31 16:02:28
p2521
(dp2522
V1
p2523
(dp2524
Vcoords
p2525
(lp2526
I336
aI240
aI368
aI304
asVprob
p2527
I84
sstp2528
a(I1
V2017:07:31 16:03:40
p2529
(dp2530
V1
p2531
(dp2532
Vcoords
p2533
(lp2534
I352
aI240
aI384
aI304
asVprob
p2535
I95
sstp2536
a(I6
V2017:07:31 16:07:24
p2537
(dp2538
V1
p2539
(dp2540
Vcoords
p2541
(lp2542
I352
aI128
aI496
aI512
asVprob
p2543
I98
ssV3
p2544
(dp2545
Vcoords
p2546
(lp2547
I640
aI32
aI800
aI592
asVprob
p2548
I95
ssV2
p2549
(dp2550
Vcoords
p2551
(lp2552
I480
aI144
aI560
aI400
asVprob
p2553
I96
ssV5
p2554
(dp2555
Vcoords
p2556
(lp2557
I336
aI240
aI368
aI336
asVprob
p2558
I89
ssV4
p2559
(dp2560
Vcoords
p2561
(lp2562
I64
aI16
aI256
aI576
asVprob
p2563
I91
ssV6
p2564
(dp2565
Vcoords
p2566
(lp2567
I592
aI128
aI688
aI416
asVprob
p2568
I89
sstp2569
a(I2
V2017:07:31 16:08:16
p2570
(dp2571
V1
p2572
(dp2573
Vcoords
p2574
(lp2575
I288
aI240
aI320
aI304
asVprob
p2576
I89
ssV2
p2577
(dp2578
Vcoords
p2579
(lp2580
I64
aI224
aI128
aI368
asVprob
p2581
I88
sstp2582
a(I1
V2017:07:31 16:08:38
p2583
(dp2584
V1
p2585
(dp2586
Vcoords
p2587
(lp2588
I288
aI224
aI320
aI304
asVprob
p2589
I92
sstp2590
a(I1
V2017:07:31 16:08:42
p2591
(dp2592
V1
p2593
(dp2594
Vcoords
p2595
(lp2596
I176
aI96
aI288
aI464
asVprob
p2597
I98
sstp2598
a(I1
V2017:07:31 16:09:42
p2599
(dp2600
V1
p2601
(dp2602
Vcoords
p2603
(lp2604
I288
aI224
aI320
aI304
asVprob
p2605
I89
sstp2606
a(I2
V2017:07:31 16:10:04
p2607
(dp2608
V1
p2609
(dp2610
Vcoords
p2611
(lp2612
I288
aI224
aI320
aI304
asVprob
p2613
I83
ssV2
p2614
(dp2615
Vcoords
p2616
(lp2617
I272
aI224
aI304
aI304
asVprob
p2618
I80
sstp2619
a(I1
V2017:07:31 16:10:16
p2620
(dp2621
V1
p2622
(dp2623
Vcoords
p2624
(lp2625
I288
aI224
aI320
aI304
asVprob
p2626
I85
sstp2627
a(I2
V2017:07:31 16:10:36
p2628
(dp2629
V1
p2630
(dp2631
Vcoords
p2632
(lp2633
I336
aI208
aI384
aI320
asVprob
p2634
I93
ssV2
p2635
(dp2636
Vcoords
p2637
(lp2638
I352
aI208
aI400
aI320
asVprob
p2639
I84
sstp2640
a(I2
V2017:07:31 16:11:20
p2641
(dp2642
V1
p2643
(dp2644
Vcoords
p2645
(lp2646
I352
aI224
aI384
aI320
asVprob
p2647
I92
ssV2
p2648
(dp2649
Vcoords
p2650
(lp2651
I256
aI224
aI288
aI320
asVprob
p2652
I84
sstp2653
a(I1
V2017:07:31 16:11:26
p2654
(dp2655
V1
p2656
(dp2657
Vcoords
p2658
(lp2659
I288
aI176
aI384
aI400
asVprob
p2660
I98
sstp2661
a(I1
V2017:07:31 16:12:32
p2662
(dp2663
V1
p2664
(dp2665
Vcoords
p2666
(lp2667
I320
aI176
aI384
aI352
asVprob
p2668
I98
sstp2669
a(I1
V2017:07:31 16:13:52
p2670
(dp2671
V1
p2672
(dp2673
Vcoords
p2674
(lp2675
I352
aI208
aI384
aI320
asVprob
p2676
I92
sstp2677
a(I2
V2017:07:31 16:14:09
p2678
(dp2679
V1
p2680
(dp2681
Vcoords
p2682
(lp2683
I352
aI240
aI384
aI304
asVprob
p2684
I96
ssV2
p2685
(dp2686
Vcoords
p2687
(lp2688
I336
aI240
aI368
aI304
asVprob
p2689
I83
sstp2690
a(I1
V2017:07:31 16:17:30
p2691
(dp2692
V1
p2693
(dp2694
Vcoords
p2695
(lp2696
I160
aI144
aI256
aI400
asVprob
p2697
I98
sstp2698
a(I1
V2017:07:31 16:19:32
p2699
(dp2700
V1
p2701
(dp2702
Vcoords
p2703
(lp2704
I352
aI240
aI384
aI304
asVprob
p2705
I95
sstp2706
a(I1
V2017:07:31 16:19:36
p2707
(dp2708
V1
p2709
(dp2710
Vcoords
p2711
(lp2712
I272
aI224
aI304
aI320
asVprob
p2713
I91
sstp2714
a(I1
V2017:07:31 16:21:28
p2715
(dp2716
V1
p2717
(dp2718
Vcoords
p2719
(lp2720
I176
aI144
aI256
aI400
asVprob
p2721
I95
sstp2722
a(I2
V2017:07:31 16:23:52
p2723
(dp2724
V1
p2725
(dp2726
Vcoords
p2727
(lp2728
I208
aI192
aI272
aI352
asVprob
p2729
I97
ssV2
p2730
(dp2731
Vcoords
p2732
(lp2733
I288
aI192
aI352
aI336
asVprob
p2734
I95
sstp2735
a(I1
V2017:07:31 16:24:28
p2736
(dp2737
V1
p2738
(dp2739
Vcoords
p2740
(lp2741
I192
aI112
aI320
aI416
asVprob
p2742
I98
sstp2743
a(I2
V2017:07:31 16:29:52
p2744
(dp2745
V1
p2746
(dp2747
Vcoords
p2748
(lp2749
I704
aI224
aI736
aI336
asVprob
p2750
I90
ssV2
p2751
(dp2752
Vcoords
p2753
(lp2754
I672
aI224
aI704
aI336
asVprob
p2755
I81
sstp2756
a(I2
V2017:07:31 16:31:26
p2757
(dp2758
V1
p2759
(dp2760
Vcoords
p2761
(lp2762
I256
aI208
aI320
aI336
asVprob
p2763
I98
ssV2
p2764
(dp2765
Vcoords
p2766
(lp2767
I320
aI208
aI384
aI336
asVprob
p2768
I92
sstp2769
a(I2
V2017:07:31 16:33:36
p2770
(dp2771
V1
p2772
(dp2773
Vcoords
p2774
(lp2775
I352
aI224
aI384
aI288
asVprob
p2776
I88
ssV2
p2777
(dp2778
Vcoords
p2779
(lp2780
I320
aI224
aI352
aI288
asVprob
p2781
I83
sstp2782
a(I2
V2017:07:31 16:35:08
p2783
(dp2784
V1
p2785
(dp2786
Vcoords
p2787
(lp2788
I224
aI208
aI272
aI336
asVprob
p2789
I97
ssV2
p2790
(dp2791
Vcoords
p2792
(lp2793
I96
aI224
aI160
aI384
asVprob
p2794
I84
sstp2795
a(I1
V2017:07:31 16:36:14
p2796
(dp2797
V1
p2798
(dp2799
Vcoords
p2800
(lp2801
I192
aI160
aI288
aI416
asVprob
p2802
I97
sstp2803
a(I1
V2017:07:31 16:38:16
p2804
(dp2805
V1
p2806
(dp2807
Vcoords
p2808
(lp2809
I336
aI240
aI368
aI304
asVprob
p2810
I93
sstp2811
a(I1
V2017:07:31 16:40:20
p2812
(dp2813
V1
p2814
(dp2815
Vcoords
p2816
(lp2817
I240
aI208
aI304
aI368
asVprob
p2818
I90
sstp2819
a(I1
V2017:07:31 16:40:30
p2820
(dp2821
V1
p2822
(dp2823
Vcoords
p2824
(lp2825
I208
aI224
aI240
aI320
asVprob
p2826
I86
sstp2827
a(I1
V2017:07:31 16:40:34
p2828
(dp2829
V1
p2830
(dp2831
Vcoords
p2832
(lp2833
I240
aI240
aI272
aI320
asVprob
p2834
I93
sstp2835
a(I1
V2017:07:31 16:42:20
p2836
(dp2837
V1
p2838
(dp2839
Vcoords
p2840
(lp2841
I320
aI208
aI368
aI320
asVprob
p2842
I94
sstp2843
a(I1
V2017:07:31 16:43:56
p2844
(dp2845
V2
p2846
(dp2847
Vcoords
p2848
(lp2849
I304
aI208
aI352
aI304
asVprob
p2850
I81
sstp2851
a(I1
V2017:07:31 16:45:20
p2852
(dp2853
V1
p2854
(dp2855
Vcoords
p2856
(lp2857
I624
aI192
aI704
aI400
asVprob
p2858
I96
sstp2859
a(I1
V2017:07:31 16:45:40
p2860
(dp2861
V1
p2862
(dp2863
Vcoords
p2864
(lp2865
I288
aI176
aI352
aI384
asVprob
p2866
I96
sstp2867
a(I1
V2017:07:31 16:46:46
p2868
(dp2869
V1
p2870
(dp2871
Vcoords
p2872
(lp2873
I64
aI64
aI208
aI464
asVprob
p2874
I97
sstp2875
a(I1
V2017:07:31 16:47:32
p2876
(dp2877
V1
p2878
(dp2879
Vcoords
p2880
(lp2881
I336
aI240
aI368
aI304
asVprob
p2882
I97
sstp2883
a(I2
V2017:07:31 16:50:24
p2884
(dp2885
V1
p2886
(dp2887
Vcoords
p2888
(lp2889
I288
aI208
aI336
aI320
asVprob
p2890
I92
ssV3
p2891
(dp2892
Vcoords
p2893
(lp2894
I256
aI240
aI288
aI336
asVprob
p2895
I88
sstp2896
a(I1
V2017:07:31 16:50:34
p2897
(dp2898
V1
p2899
(dp2900
Vcoords
p2901
(lp2902
I32
aI144
aI128
aI416
asVprob
p2903
I97
sstp2904
a(I1
V2017:07:31 16:50:42
p2905
(dp2906
V1
p2907
(dp2908
Vcoords
p2909
(lp2910
I32
aI192
aI112
aI368
asVprob
p2911
I97
sstp2912
a(I1
V2017:07:31 16:51:08
p2913
(dp2914
V1
p2915
(dp2916
Vcoords
p2917
(lp2918
I80
aI192
aI144
aI352
asVprob
p2919
I96
sstp2920
a(I1
V2017:07:31 16:51:22
p2921
(dp2922
V1
p2923
(dp2924
Vcoords
p2925
(lp2926
I144
aI208
aI208
aI352
asVprob
p2927
I91
sstp2928
a(I3
V2017:07:31 16:51:52
p2929
(dp2930
V1
p2931
(dp2932
Vcoords
p2933
(lp2934
I208
aI192
aI256
aI336
asVprob
p2935
I94
ssV3
p2936
(dp2937
Vcoords
p2938
(lp2939
I320
aI208
aI368
aI320
asVprob
p2940
I81
ssV2
p2941
(dp2942
Vcoords
p2943
(lp2944
I288
aI192
aI336
aI320
asVprob
p2945
I92
sstp2946
a(I3
V2017:07:31 16:53:36
p2947
(dp2948
V1
p2949
(dp2950
Vcoords
p2951
(lp2952
I208
aI176
aI272
aI352
asVprob
p2953
I97
ssV3
p2954
(dp2955
Vcoords
p2956
(lp2957
I336
aI240
aI368
aI304
asVprob
p2958
I80
ssV2
p2959
(dp2960
Vcoords
p2961
(lp2962
I128
aI192
aI192
aI352
asVprob
p2963
I97
sstp2964
a(I1
V2017:07:31 16:54:26
p2965
(dp2966
V1
p2967
(dp2968
Vcoords
p2969
(lp2970
I368
aI224
aI400
aI336
asVprob
p2971
I94
sstp2972
a(I1
V2017:07:31 16:57:48
p2973
(dp2974
V1
p2975
(dp2976
Vcoords
p2977
(lp2978
I320
aI240
aI352
aI304
asVprob
p2979
I92
sstp2980
a(I1
V2017:07:31 16:58:34
p2981
(dp2982
V1
p2983
(dp2984
Vcoords
p2985
(lp2986
I80
aI80
aI208
aI464
asVprob
p2987
I95
sstp2988
a(I1
V2017:07:31 16:59:12
p2989
(dp2990
V1
p2991
(dp2992
Vcoords
p2993
(lp2994
I320
aI208
aI384
aI336
asVprob
p2995
I96
sstp2996
a(I1
V2017:07:31 16:59:34
p2997
(dp2998
V1
p2999
(dp3000
Vcoords
p3001
(lp3002
I352
aI208
aI400
aI320
asVprob
p3003
I95
sstp3004
a(I2
V2017:07:31 16:59:54
p3005
(dp3006
V1
p3007
(dp3008
Vcoords
p3009
(lp3010
I208
aI240
aI256
aI336
asVprob
p3011
I84
ssV2
p3012
(dp3013
Vcoords
p3014
(lp3015
I224
aI224
aI256
aI320
asVprob
p3016
I84
sstp3017
a(I1
V2017:07:31 17:00:00
p3018
(dp3019
V1
p3020
(dp3021
Vcoords
p3022
(lp3023
I624
aI240
aI672
aI320
asVprob
p3024
I92
sstp3025
a(I1
V2017:07:31 17:00:32
p3026
(dp3027
V1
p3028
(dp3029
Vcoords
p3030
(lp3031
I352
aI224
aI384
aI304
asVprob
p3032
I94
sstp3033
a(I1
V2017:07:31 17:00:36
p3034
(dp3035
V1
p3036
(dp3037
Vcoords
p3038
(lp3039
I224
aI192
aI288
aI352
asVprob
p3040
I85
sstp3041
a(I1
V2017:07:31 17:01:06
p3042
(dp3043
V1
p3044
(dp3045
Vcoords
p3046
(lp3047
I688
aI240
aI720
aI336
asVprob
p3048
I87
sstp3049
a(I1
V2017:07:31 17:01:22
p3050
(dp3051
V1
p3052
(dp3053
Vcoords
p3054
(lp3055
I272
aI224
aI320
aI320
asVprob
p3056
I85
sstp3057
a(I1
V2017:07:31 17:01:28
p3058
(dp3059
V1
p3060
(dp3061
Vcoords
p3062
(lp3063
I32
aI176
aI112
aI368
asVprob
p3064
I98
sstp3065
a(I1
V2017:07:31 17:02:04
p3066
(dp3067
V1
p3068
(dp3069
Vcoords
p3070
(lp3071
I48
aI160
aI128
aI368
asVprob
p3072
I99
sstp3073
a(I2
V2017:07:31 17:03:16
p3074
(dp3075
V1
p3076
(dp3077
Vcoords
p3078
(lp3079
I336
aI224
aI368
aI320
asVprob
p3080
I89
ssV2
p3081
(dp3082
Vcoords
p3083
(lp3084
I320
aI240
aI368
aI336
asVprob
p3085
I82
sstp3086
a(I2
V2017:07:31 17:03:30
p3087
(dp3088
V1
p3089
(dp3090
Vcoords
p3091
(lp3092
I144
aI192
aI208
aI368
asVprob
p3093
I97
ssV2
p3094
(dp3095
Vcoords
p3096
(lp3097
I160
aI176
aI224
aI352
asVprob
p3098
I87
sstp3099
a(I1
V2017:07:31 17:04:12
p3100
(dp3101
V1
p3102
(dp3103
Vcoords
p3104
(lp3105
I128
aI192
aI192
aI368
asVprob
p3106
I95
sstp3107
a(I2
V2017:07:31 17:04:26
p3108
(dp3109
V1
p3110
(dp3111
Vcoords
p3112
(lp3113
I48
aI208
aI112
aI368
asVprob
p3114
I92
ssV2
p3115
(dp3116
Vcoords
p3117
(lp3118
I224
aI224
aI256
aI304
asVprob
p3119
I82
sstp3120
a(I1
V2017:07:31 17:04:38
p3121
(dp3122
V2
p3123
(dp3124
Vcoords
p3125
(lp3126
I400
aI240
aI432
aI320
asVprob
p3127
I91
sstp3128
a(I3
V2017:07:31 17:05:01
p3129
(dp3130
V1
p3131
(dp3132
Vcoords
p3133
(lp3134
I208
aI192
aI256
aI352
asVprob
p3135
I98
ssV3
p3136
(dp3137
Vcoords
p3138
(lp3139
I320
aI176
aI384
aI368
asVprob
p3140
I93
ssV4
p3141
(dp3142
Vcoords
p3143
(lp3144
I256
aI176
aI320
aI352
asVprob
p3145
I91
sstp3146
a(I1
V2017:07:31 17:05:10
p3147
(dp3148
V2
p3149
(dp3150
Vcoords
p3151
(lp3152
I224
aI224
aI256
aI304
asVprob
p3153
I86
sstp3154
a(I1
V2017:07:31 17:05:18
p3155
(dp3156
V1
p3157
(dp3158
Vcoords
p3159
(lp3160
I208
aI192
aI288
aI352
asVprob
p3161
I97
sstp3162
a(I1
V2017:07:31 17:05:22
p3163
(dp3164
V1
p3165
(dp3166
Vcoords
p3167
(lp3168
I64
aI224
aI128
aI368
asVprob
p3169
I93
sstp3170
a(I1
V2017:07:31 17:05:26
p3171
(dp3172
V1
p3173
(dp3174
Vcoords
p3175
(lp3176
I64
aI224
aI128
aI368
asVprob
p3177
I93
sstp3178
a(I2
V2017:07:31 17:05:34
p3179
(dp3180
V1
p3181
(dp3182
Vcoords
p3183
(lp3184
I288
aI224
aI320
aI304
asVprob
p3185
I95
ssV2
p3186
(dp3187
Vcoords
p3188
(lp3189
I80
aI224
aI144
aI368
asVprob
p3190
I88
sstp3191
a(I1
V2017:07:31 17:06:12
p3192
(dp3193
V1
p3194
(dp3195
Vcoords
p3196
(lp3197
I48
aI176
aI112
aI336
asVprob
p3198
I96
sstp3199
a(I1
V2017:07:31 17:07:02
p3200
(dp3201
V1
p3202
(dp3203
Vcoords
p3204
(lp3205
I64
aI224
aI128
aI368
asVprob
p3206
I91
sstp3207
a(I1
V2017:07:31 17:07:12
p3208
(dp3209
V1
p3210
(dp3211
Vcoords
p3212
(lp3213
I64
aI176
aI144
aI368
asVprob
p3214
I91
sstp3215
a(I1
V2017:07:31 17:07:36
p3216
(dp3217
V1
p3218
(dp3219
Vcoords
p3220
(lp3221
I400
aI224
aI432
aI304
asVprob
p3222
I95
sstp3223
a(I1
V2017:07:31 17:07:48
p3224
(dp3225
V1
p3226
(dp3227
Vcoords
p3228
(lp3229
I672
aI240
aI704
aI320
asVprob
p3230
I95
sstp3231
a(I1
V2017:07:31 17:08:12
p3232
(dp3233
V1
p3234
(dp3235
Vcoords
p3236
(lp3237
I320
aI192
aI368
aI336
asVprob
p3238
I91
sstp3239
a(I4
V2017:07:31 17:08:28
p3240
(dp3241
V1
p3242
(dp3243
Vcoords
p3244
(lp3245
I192
aI32
aI352
aI512
asVprob
p3246
I98
ssV3
p3247
(dp3248
Vcoords
p3249
(lp3250
I320
aI224
aI368
aI336
asVprob
p3251
I88
ssV2
p3252
(dp3253
Vcoords
p3254
(lp3255
I32
aI112
aI144
aI464
asVprob
p3256
I90
ssV4
p3257
(dp3258
Vcoords
p3259
(lp3260
I384
aI240
aI416
aI304
asVprob
p3261
I85
sstp3262
a(I1
V2017:07:31 17:09:42
p3263
(dp3264
V1
p3265
(dp3266
Vcoords
p3267
(lp3268
I352
aI208
aI384
aI320
asVprob
p3269
I97
sstp3270
a(I1
V2017:07:31 17:09:50
p3271
(dp3272
V1
p3273
(dp3274
Vcoords
p3275
(lp3276
I192
aI192
aI256
aI352
asVprob
p3277
I95
sstp3278
a(I1
V2017:07:31 17:09:56
p3279
(dp3280
V1
p3281
(dp3282
Vcoords
p3283
(lp3284
I320
aI240
aI352
aI336
asVprob
p3285
I86
sstp3286
a(I2
V2017:07:31 17:10:22
p3287
(dp3288
V1
p3289
(dp3290
Vcoords
p3291
(lp3292
I272
aI208
aI320
aI352
asVprob
p3293
I95
ssV2
p3294
(dp3295
Vcoords
p3296
(lp3297
I336
aI208
aI384
aI336
asVprob
p3298
I88
sstp3299
a(I1
V2017:07:31 17:10:44
p3300
(dp3301
V1
p3302
(dp3303
Vcoords
p3304
(lp3305
I96
aI208
aI160
aI352
asVprob
p3306
I93
sstp3307
a(I1
V2017:07:31 17:10:48
p3308
(dp3309
V2
p3310
(dp3311
Vcoords
p3312
(lp3313
I112
aI192
aI176
aI352
asVprob
p3314
I87
sstp3315
a(I1
V2017:07:31 17:11:16
p3316
(dp3317
V1
p3318
(dp3319
Vcoords
p3320
(lp3321
I16
aI-16
aI240
aI608
asVprob
p3322
I89
sstp3323
a(I1
V2017:07:31 17:12:22
p3324
(dp3325
V1
p3326
(dp3327
Vcoords
p3328
(lp3329
I304
aI208
aI352
aI336
asVprob
p3330
I96
sstp3331
a(I2
V2017:07:31 17:16:20
p3332
(dp3333
V1
p3334
(dp3335
Vcoords
p3336
(lp3337
I224
aI176
aI288
aI352
asVprob
p3338
I96
ssV2
p3339
(dp3340
Vcoords
p3341
(lp3342
I288
aI176
aI384
aI384
asVprob
p3343
I95
sstp3344
a(I1
V2017:07:31 17:17:26
p3345
(dp3346
V1
p3347
(dp3348
Vcoords
p3349
(lp3350
I288
aI192
aI336
aI336
asVprob
p3351
I95
sstp3352
a(I1
V2017:07:31 17:17:54
p3353
(dp3354
V1
p3355
(dp3356
Vcoords
p3357
(lp3358
I336
aI208
aI384
aI336
asVprob
p3359
I96
sstp3360
a(I1
V2017:07:31 17:18:12
p3361
(dp3362
V1
p3363
(dp3364
Vcoords
p3365
(lp3366
I304
aI208
aI368
aI352
asVprob
p3367
I97
sstp3368
a(I1
V2017:07:31 17:19:12
p3369
(dp3370
V1
p3371
(dp3372
Vcoords
p3373
(lp3374
I320
aI224
aI352
aI304
asVprob
p3375
I91
sstp3376
a(I1
V2017:07:31 17:21:40
p3377
(dp3378
V1
p3379
(dp3380
Vcoords
p3381
(lp3382
I336
aI224
aI368
aI304
asVprob
p3383
I86
sstp3384
a(I3
V2017:07:31 17:22:54
p3385
(dp3386
V1
p3387
(dp3388
Vcoords
p3389
(lp3390
I256
aI224
aI288
aI320
asVprob
p3391
I88
ssV3
p3392
(dp3393
Vcoords
p3394
(lp3395
I304
aI224
aI336
aI304
asVprob
p3396
I86
ssV2
p3397
(dp3398
Vcoords
p3399
(lp3400
I320
aI224
aI352
aI304
asVprob
p3401
I86
sstp3402
a(I1
V2017:07:31 17:23:16
p3403
(dp3404
V1
p3405
(dp3406
Vcoords
p3407
(lp3408
I48
aI96
aI240
aI560
asVprob
p3409
I96
sstp3410
a(I3
V2017:07:31 17:25:40
p3411
(dp3412
V3
p3413
(dp3414
Vcoords
p3415
(lp3416
I368
aI224
aI400
aI304
asVprob
p3417
I93
ssV2
p3418
(dp3419
Vcoords
p3420
(lp3421
I192
aI176
aI272
aI368
asVprob
p3422
I96
ssV4
p3423
(dp3424
Vcoords
p3425
(lp3426
I32
aI192
aI96
aI384
asVprob
p3427
I91
sstp3428
a(I1
V2017:07:31 17:25:52
p3429
(dp3430
V1
p3431
(dp3432
Vcoords
p3433
(lp3434
I240
aI192
aI288
aI320
asVprob
p3435
I96
sstp3436
a(I3
V2017:07:31 17:26:20
p3437
(dp3438
V1
p3439
(dp3440
Vcoords
p3441
(lp3442
I256
aI208
aI288
aI304
asVprob
p3443
I92
ssV3
p3444
(dp3445
Vcoords
p3446
(lp3447
I368
aI240
aI400
aI304
asVprob
p3448
I87
ssV6
p3449
(dp3450
Vcoords
p3451
(lp3452
I320
aI224
aI368
aI304
asVprob
p3453
I83
sstp3454
a(I2
V2017:07:31 17:27:14
p3455
(dp3456
V1
p3457
(dp3458
Vcoords
p3459
(lp3460
I144
aI192
aI208
aI368
asVprob
p3461
I94
ssV2
p3462
(dp3463
Vcoords
p3464
(lp3465
I48
aI192
aI112
aI368
asVprob
p3466
I86
sstp3467
a(I1
V2017:07:31 17:27:22
p3468
(dp3469
V1
p3470
(dp3471
Vcoords
p3472
(lp3473
I32
aI192
aI96
aI368
asVprob
p3474
I97
sstp3475
a(I1
V2017:07:31 17:27:26
p3476
(dp3477
V1
p3478
(dp3479
Vcoords
p3480
(lp3481
I80
aI192
aI144
aI368
asVprob
p3482
I96
sstp3483
a(I2
V2017:07:31 17:28:08
p3484
(dp3485
V1
p3486
(dp3487
Vcoords
p3488
(lp3489
I208
aI192
aI256
aI352
asVprob
p3490
I92
ssV2
p3491
(dp3492
Vcoords
p3493
(lp3494
I80
aI192
aI144
aI352
asVprob
p3495
I89
sstp3496
a(I1
V2017:07:31 17:28:16
p3497
(dp3498
V1
p3499
(dp3500
Vcoords
p3501
(lp3502
I128
aI192
aI192
aI352
asVprob
p3503
I94
sstp3504
a(I1
V2017:07:31 17:31:26
p3505
(dp3506
V1
p3507
(dp3508
Vcoords
p3509
(lp3510
I352
aI224
aI384
aI304
asVprob
p3511
I97
sstp3512
a(I1
V2017:07:31 17:31:56
p3513
(dp3514
V1
p3515
(dp3516
Vcoords
p3517
(lp3518
I224
aI80
aI432
aI528
asVprob
p3519
I93
sstp3520
a(I1
V2017:07:31 17:38:00
p3521
(dp3522
V2
p3523
(dp3524
Vcoords
p3525
(lp3526
I336
aI224
aI368
aI304
asVprob
p3527
I82
sstp3528
a.