(lp0
(I1
V2017:08:03 10:43:20
p1
(dp2
V1
p3
(dp4
Vcoords
p5
(lp6
I288
aI224
aI336
aI352
asVprob
p7
I95
sstp8
a(I1
V2017:08:03 10:43:40
p9
(dp10
V1
p11
(dp12
Vcoords
p13
(lp14
I272
aI80
aI400
aI464
asVprob
p15
I97
sstp16
a(I1
V2017:08:03 10:43:52
p17
(dp18
V1
p19
(dp20
Vcoords
p21
(lp22
I144
aI128
aI224
aI384
asVprob
p23
I92
sstp24
a(I1
V2017:08:03 10:44:04
p25
(dp26
V1
p27
(dp28
Vcoords
p29
(lp30
I208
aI144
aI288
aI384
asVprob
p31
I94
sstp32
a(I1
V2017:08:03 10:44:32
p33
(dp34
V1
p35
(dp36
Vcoords
p37
(lp38
I640
aI16
aI800
aI544
asVprob
p39
I96
sstp40
a(I1
V2017:08:03 10:49:14
p41
(dp42
V1
p43
(dp44
Vcoords
p45
(lp46
I176
aI144
aI272
aI400
asVprob
p47
I98
sstp48
a(I1
V2017:08:03 10:49:24
p49
(dp50
V1
p51
(dp52
Vcoords
p53
(lp54
I240
aI160
aI336
aI384
asVprob
p55
I98
sstp56
a(I1
V2017:08:03 10:50:06
p57
(dp58
V1
p59
(dp60
Vcoords
p61
(lp62
I336
aI224
aI384
aI320
asVprob
p63
I96
sstp64
a(I1
V2017:08:03 10:52:00
p65
(dp66
V1
p67
(dp68
Vcoords
p69
(lp70
I208
aI176
aI288
aI352
asVprob
p71
I96
sstp72
a(I1
V2017:08:03 10:52:44
p73
(dp74
V1
p75
(dp76
Vcoords
p77
(lp78
I272
aI208
aI320
aI352
asVprob
p79
I97
sstp80
a(I1
V2017:08:03 10:53:08
p81
(dp82
V1
p83
(dp84
Vcoords
p85
(lp86
I272
aI224
aI320
aI352
asVprob
p87
I92
sstp88
a(I1
V2017:08:03 10:53:36
p89
(dp90
V1
p91
(dp92
Vcoords
p93
(lp94
I464
aI192
aI544
aI384
asVprob
p95
I94
sstp96
a(I1
V2017:08:03 10:53:48
p97
(dp98
V1
p99
(dp100
Vcoords
p101
(lp102
I240
aI208
aI304
aI352
asVprob
p103
I90
sstp104
a(I1
V2017:08:03 10:54:22
p105
(dp106
V1
p107
(dp108
Vcoords
p109
(lp110
I240
aI192
aI304
aI384
asVprob
p111
I83
sstp112
a(I2
V2017:08:03 10:55:36
p113
(dp114
V1
p115
(dp116
Vcoords
p117
(lp118
I272
aI208
aI336
aI368
asVprob
p119
I96
ssV2
p120
(dp121
Vcoords
p122
(lp123
I352
aI208
aI400
aI368
asVprob
p124
I93
sstp125
a(I1
V2017:08:03 10:56:02
p126
(dp127
V1
p128
(dp129
Vcoords
p130
(lp131
I304
aI224
aI352
aI336
asVprob
p132
I90
sstp133
a(I1
V2017:08:03 10:56:16
p134
(dp135
V1
p136
(dp137
Vcoords
p138
(lp139
I144
aI64
aI288
aI464
asVprob
p140
I99
sstp141
a(I1
V2017:08:03 10:58:32
p142
(dp143
V1
p144
(dp145
Vcoords
p146
(lp147
I128
aI112
aI240
aI416
asVprob
p148
I98
sstp149
a(I2
V2017:08:03 10:59:16
p150
(dp151
V1
p152
(dp153
Vcoords
p154
(lp155
I224
aI144
aI352
aI464
asVprob
p156
I99
ssV2
p157
(dp158
Vcoords
p159
(lp160
I112
aI160
aI224
aI464
asVprob
p161
I96
sstp162
a(I1
V2017:08:03 11:00:18
p163
(dp164
V1
p165
(dp166
Vcoords
p167
(lp168
I336
aI224
aI384
aI320
asVprob
p169
I82
sstp170
a(I1
V2017:08:03 11:03:32
p171
(dp172
V1
p173
(dp174
Vcoords
p175
(lp176
I352
aI192
aI416
aI368
asVprob
p177
I96
sstp178
a(I1
V2017:08:03 11:03:48
p179
(dp180
V1
p181
(dp182
Vcoords
p183
(lp184
I240
aI208
aI288
aI352
asVprob
p185
I92
sstp186
a(I1
V2017:08:03 11:04:22
p187
(dp188
V1
p189
(dp190
Vcoords
p191
(lp192
I240
aI192
aI320
aI384
asVprob
p193
I94
sstp194
a(I1
V2017:08:03 11:05:10
p195
(dp196
V1
p197
(dp198
Vcoords
p199
(lp200
I32
aI32
aI240
aI544
asVprob
p201
I94
sstp202
a(I1
V2017:08:03 11:07:48
p203
(dp204
V1
p205
(dp206
Vcoords
p207
(lp208
I272
aI192
aI352
aI384
asVprob
p209
I96
sstp210
a(I1
V2017:08:03 11:08:20
p211
(dp212
V1
p213
(dp214
Vcoords
p215
(lp216
I96
aI144
aI192
aI416
asVprob
p217
I98
sstp218
a(I1
V2017:08:03 11:09:00
p219
(dp220
V1
p221
(dp222
Vcoords
p223
(lp224
I208
aI160
aI304
aI432
asVprob
p225
I99
sstp226
a(I1
V2017:08:03 11:11:30
p227
(dp228
V1
p229
(dp230
Vcoords
p231
(lp232
I272
aI224
aI320
aI320
asVprob
p233
I93
sstp234
a(I4
V2017:08:03 11:12:24
p235
(dp236
V1
p237
(dp238
Vcoords
p239
(lp240
I416
aI16
aI624
aI560
asVprob
p241
I99
ssV3
p242
(dp243
Vcoords
p244
(lp245
I16
aI32
aI240
aI608
asVprob
p246
I94
ssV2
p247
(dp248
Vcoords
p249
(lp250
I272
aI128
aI384
aI432
asVprob
p251
I98
ssV4
p252
(dp253
Vcoords
p254
(lp255
I192
aI144
aI256
aI384
asVprob
p256
I85
sstp257
a(I1
V2017:08:03 11:12:36
p258
(dp259
V1
p260
(dp261
Vcoords
p262
(lp263
I368
aI192
aI448
aI384
asVprob
p264
I98
sstp265
a(I1
V2017:08:03 11:13:06
p266
(dp267
V1
p268
(dp269
Vcoords
p270
(lp271
I32
aI224
aI80
aI368
asVprob
p272
I91
sstp273
a(I1
V2017:08:03 11:13:12
p274
(dp275
V2
p276
(dp277
Vcoords
p278
(lp279
I0
aI208
aI64
aI368
asVprob
p280
I91
sstp281
a(I2
V2017:08:03 11:14:24
p282
(dp283
V1
p284
(dp285
Vcoords
p286
(lp287
I144
aI224
aI192
aI352
asVprob
p288
I95
ssV2
p289
(dp290
Vcoords
p291
(lp292
I32
aI208
aI80
aI352
asVprob
p293
I90
sstp294
a(I1
V2017:08:03 11:15:18
p295
(dp296
V1
p297
(dp298
Vcoords
p299
(lp300
I16
aI144
aI112
aI416
asVprob
p301
I97
sstp302
a(I1
V2017:08:03 11:15:28
p303
(dp304
V1
p305
(dp306
Vcoords
p307
(lp308
I16
aI224
aI80
aI384
asVprob
p309
I92
sstp310
a(I1
V2017:08:03 11:16:16
p311
(dp312
V1
p313
(dp314
Vcoords
p315
(lp316
I288
aI192
aI336
aI352
asVprob
p317
I98
sstp318
a(I2
V2017:08:03 11:16:36
p319
(dp320
V1
p321
(dp322
Vcoords
p323
(lp324
I32
aI208
aI96
aI368
asVprob
p325
I97
ssV2
p326
(dp327
Vcoords
p328
(lp329
I96
aI208
aI144
aI352
asVprob
p330
I85
sstp331
a(I2
V2017:08:03 11:18:46
p332
(dp333
V1
p334
(dp335
Vcoords
p336
(lp337
I352
aI192
aI416
aI368
asVprob
p338
I98
ssV2
p339
(dp340
Vcoords
p341
(lp342
I224
aI192
aI288
aI368
asVprob
p343
I95
sstp344
a(I1
V2017:08:03 11:18:52
p345
(dp346
V1
p347
(dp348
Vcoords
p349
(lp350
I336
aI240
aI384
aI320
asVprob
p351
I92
sstp352
a(I1
V2017:08:03 11:18:58
p353
(dp354
V1
p355
(dp356
Vcoords
p357
(lp358
I352
aI176
aI448
aI368
asVprob
p359
I92
sstp360
a(I1
V2017:08:03 11:19:10
p361
(dp362
V1
p363
(dp364
Vcoords
p365
(lp366
I352
aI240
aI400
aI320
asVprob
p367
I82
sstp368
a(I1
V2017:08:03 11:20:36
p369
(dp370
V1
p371
(dp372
Vcoords
p373
(lp374
I176
aI192
aI256
aI416
asVprob
p375
I97
sstp376
a(I1
V2017:08:03 11:21:54
p377
(dp378
V1
p379
(dp380
Vcoords
p381
(lp382
I384
aI224
aI432
aI352
asVprob
p383
I96
sstp384
a(I1
V2017:08:03 11:22:12
p385
(dp386
V1
p387
(dp388
Vcoords
p389
(lp390
I288
aI208
aI336
aI352
asVprob
p391
I94
sstp392
a(I2
V2017:08:03 11:22:32
p393
(dp394
V1
p395
(dp396
Vcoords
p397
(lp398
I320
aI208
aI368
aI320
asVprob
p399
I93
ssV2
p400
(dp401
Vcoords
p402
(lp403
I208
aI208
aI256
aI368
asVprob
p404
I90
sstp405
a(I1
V2017:08:03 11:22:54
p406
(dp407
V1
p408
(dp409
Vcoords
p410
(lp411
I256
aI224
aI304
aI352
asVprob
p412
I92
sstp413
a(I1
V2017:08:03 11:24:08
p414
(dp415
V1
p416
(dp417
Vcoords
p418
(lp419
I240
aI208
aI320
aI384
asVprob
p420
I97
sstp421
a(I1
V2017:08:03 11:26:20
p422
(dp423
V1
p424
(dp425
Vcoords
p426
(lp427
I304
aI208
aI352
aI336
asVprob
p428
I90
sstp429
a(I2
V2017:08:03 11:27:54
p430
(dp431
V1
p432
(dp433
Vcoords
p434
(lp435
I304
aI192
aI352
aI352
asVprob
p436
I96
ssV2
p437
(dp438
Vcoords
p439
(lp440
I256
aI208
aI304
aI336
asVprob
p441
I95
sstp442
a(I1
V2017:08:03 11:28:12
p443
(dp444
V1
p445
(dp446
Vcoords
p447
(lp448
I16
aI240
aI64
aI368
asVprob
p449
I92
sstp450
a(I1
V2017:08:03 11:28:18
p451
(dp452
V1
p453
(dp454
Vcoords
p455
(lp456
I16
aI224
aI64
aI368
asVprob
p457
I93
sstp458
a(I1
V2017:08:03 11:28:36
p459
(dp460
V1
p461
(dp462
Vcoords
p463
(lp464
I368
aI224
aI416
aI320
asVprob
p465
I92
sstp466
a(I1
V2017:08:03 11:28:50
p467
(dp468
V1
p469
(dp470
Vcoords
p471
(lp472
I336
aI224
aI384
aI320
asVprob
p473
I86
sstp474
a(I2
V2017:08:03 11:29:00
p475
(dp476
V1
p477
(dp478
Vcoords
p479
(lp480
I336
aI224
aI384
aI336
asVprob
p481
I96
ssV2
p482
(dp483
Vcoords
p484
(lp485
I384
aI224
aI432
aI320
asVprob
p486
I85
sstp487
a(I4
V2017:08:03 11:29:16
p488
(dp489
V1
p490
(dp491
Vcoords
p492
(lp493
I112
aI128
aI208
aI432
asVprob
p494
I98
ssV3
p495
(dp496
Vcoords
p497
(lp498
I16
aI160
aI128
aI528
asVprob
p499
I96
ssV2
p500
(dp501
Vcoords
p502
(lp503
I352
aI208
aI416
aI352
asVprob
p504
I97
ssV4
p505
(dp506
Vcoords
p507
(lp508
I304
aI224
aI352
aI352
asVprob
p509
I95
sstp510
a(I2
V2017:08:03 11:29:36
p511
(dp512
V1
p513
(dp514
Vcoords
p515
(lp516
I128
aI208
aI192
aI368
asVprob
p517
I91
ssV2
p518
(dp519
Vcoords
p520
(lp521
I16
aI240
aI64
aI368
asVprob
p522
I90
sstp523
a(I1
V2017:08:03 11:29:48
p524
(dp525
V1
p526
(dp527
Vcoords
p528
(lp529
I368
aI48
aI560
aI544
asVprob
p530
I99
sstp531
a(I1
V2017:08:03 11:29:54
p532
(dp533
V1
p534
(dp535
Vcoords
p536
(lp537
I16
aI208
aI80
aI368
asVprob
p538
I90
sstp539
a(I1
V2017:08:03 11:30:08
p540
(dp541
V1
p542
(dp543
Vcoords
p544
(lp545
I0
aI-16
aI240
aI592
asVprob
p546
I90
sstp547
a(I2
V2017:08:03 11:30:16
p548
(dp549
V1
p550
(dp551
Vcoords
p552
(lp553
I128
aI16
aI320
aI560
asVprob
p554
I98
ssV2
p555
(dp556
Vcoords
p557
(lp558
I0
aI48
aI144
aI576
asVprob
p559
I93
sstp560
a(I1
V2017:08:03 11:30:24
p561
(dp562
V1
p563
(dp564
Vcoords
p565
(lp566
I0
aI176
aI64
aI400
asVprob
p567
I97
sstp568
a(I1
V2017:08:03 11:30:50
p569
(dp570
V1
p571
(dp572
Vcoords
p573
(lp574
I288
aI160
aI368
aI416
asVprob
p575
I98
sstp576
a(I1
V2017:08:03 11:31:04
p577
(dp578
V2
p579
(dp580
Vcoords
p581
(lp582
I352
aI224
aI400
aI304
asVprob
p583
I85
sstp584
a(I3
V2017:08:03 11:31:16
p585
(dp586
V1
p587
(dp588
Vcoords
p589
(lp590
I32
aI128
aI144
aI416
asVprob
p591
I97
ssV3
p592
(dp593
Vcoords
p594
(lp595
I304
aI192
aI368
aI384
asVprob
p596
I94
ssV2
p597
(dp598
Vcoords
p599
(lp600
I176
aI144
aI272
aI432
asVprob
p601
I94
sstp602
a(I2
V2017:08:03 11:31:24
p603
(dp604
V1
p605
(dp606
Vcoords
p607
(lp608
I16
aI208
aI64
aI368
asVprob
p609
I88
ssV2
p610
(dp611
Vcoords
p612
(lp613
I32
aI208
aI80
aI368
asVprob
p614
I84
sstp615
a(I1
V2017:08:03 11:31:34
p616
(dp617
V1
p618
(dp619
Vcoords
p620
(lp621
I304
aI224
aI352
aI336
asVprob
p622
I92
sstp623
a(I1
V2017:08:03 11:31:44
p624
(dp625
V1
p626
(dp627
Vcoords
p628
(lp629
I240
aI192
aI304
aI352
asVprob
p630
I93
sstp631
a(I2
V2017:08:03 11:32:54
p632
(dp633
V1
p634
(dp635
Vcoords
p636
(lp637
I368
aI208
aI432
aI368
asVprob
p638
I98
ssV2
p639
(dp640
Vcoords
p641
(lp642
I304
aI208
aI352
aI336
asVprob
p643
I96
sstp644
a(I1
V2017:08:03 11:36:04
p645
(dp646
V1
p647
(dp648
Vcoords
p649
(lp650
I48
aI144
aI144
aI448
asVprob
p651
I97
sstp652
a(I1
V2017:08:03 11:37:44
p653
(dp654
V1
p655
(dp656
Vcoords
p657
(lp658
I256
aI240
aI304
aI320
asVprob
p659
I92
sstp660
a(I1
V2017:08:03 11:40:26
p661
(dp662
V1
p663
(dp664
Vcoords
p665
(lp666
I256
aI208
aI304
aI336
asVprob
p667
I92
sstp668
a(I1
V2017:08:03 11:41:48
p669
(dp670
V1
p671
(dp672
Vcoords
p673
(lp674
I192
aI112
aI352
aI496
asVprob
p675
I98
sstp676
a(I1
V2017:08:03 11:42:14
p677
(dp678
V1
p679
(dp680
Vcoords
p681
(lp682
I224
aI224
aI272
aI352
asVprob
p683
I90
sstp684
a(I3
V2017:08:03 11:42:20
p685
(dp686
V1
p687
(dp688
Vcoords
p689
(lp690
I176
aI208
aI224
aI368
asVprob
p691
I97
ssV3
p692
(dp693
Vcoords
p694
(lp695
I112
aI208
aI160
aI352
asVprob
p696
I90
ssV2
p697
(dp698
Vcoords
p699
(lp700
I128
aI208
aI176
aI336
asVprob
p701
I90
sstp702
a(I1
V2017:08:03 11:42:28
p703
(dp704
V1
p705
(dp706
Vcoords
p707
(lp708
I176
aI224
aI224
aI352
asVprob
p709
I89
sstp710
a(I1
V2017:08:03 11:42:50
p711
(dp712
V1
p713
(dp714
Vcoords
p715
(lp716
I704
aI192
aI768
aI400
asVprob
p717
I93
sstp718
a(I2
V2017:08:03 11:43:00
p719
(dp720
V1
p721
(dp722
Vcoords
p723
(lp724
I672
aI192
aI736
aI368
asVprob
p725
I96
ssV2
p726
(dp727
Vcoords
p728
(lp729
I128
aI224
aI176
aI352
asVprob
p730
I83
sstp731
a(I1
V2017:08:03 11:43:04
p732
(dp733
V1
p734
(dp735
Vcoords
p736
(lp737
I432
aI-32
aI656
aI576
asVprob
p738
I98
sstp739
a(I1
V2017:08:03 11:43:22
p740
(dp741
V1
p742
(dp743
Vcoords
p744
(lp745
I224
aI240
aI304
aI416
asVprob
p746
I95
sstp747
a(I2
V2017:08:03 11:43:34
p748
(dp749
V1
p750
(dp751
Vcoords
p752
(lp753
I320
aI224
aI368
aI320
asVprob
p754
I96
ssV2
p755
(dp756
Vcoords
p757
(lp758
I256
aI272
aI320
aI400
asVprob
p759
I93
sstp760
a(I1
V2017:08:03 11:46:02
p761
(dp762
V1
p763
(dp764
Vcoords
p765
(lp766
I256
aI144
aI368
aI432
asVprob
p767
I97
sstp768
a(I2
V2017:08:03 11:49:00
p769
(dp770
V1
p771
(dp772
Vcoords
p773
(lp774
I288
aI192
aI352
aI352
asVprob
p775
I96
ssV2
p776
(dp777
Vcoords
p778
(lp779
I16
aI144
aI112
aI432
asVprob
p780
I95
sstp781
a(I1
V2017:08:03 11:49:11
p782
(dp783
V1
p784
(dp785
Vcoords
p786
(lp787
I32
aI192
aI96
aI368
asVprob
p788
I92
sstp789
a(I1
V2017:08:03 11:49:22
p790
(dp791
V1
p792
(dp793
Vcoords
p794
(lp795
I112
aI112
aI256
aI480
asVprob
p796
I98
sstp797
a(I1
V2017:08:03 11:49:32
p798
(dp799
V1
p800
(dp801
Vcoords
p802
(lp803
I16
aI224
aI80
aI400
asVprob
p804
I84
sstp805
a(I1
V2017:08:03 11:49:36
p806
(dp807
V1
p808
(dp809
Vcoords
p810
(lp811
I96
aI192
aI176
aI384
asVprob
p812
I93
sstp813
a(I1
V2017:08:03 11:49:50
p814
(dp815
V1
p816
(dp817
Vcoords
p818
(lp819
I352
aI208
aI416
aI352
asVprob
p820
I95
sstp821
a(I1
V2017:08:03 11:50:42
p822
(dp823
V1
p824
(dp825
Vcoords
p826
(lp827
I400
aI192
aI496
aI352
asVprob
p828
I92
sstp829
a(I1
V2017:08:03 11:51:48
p830
(dp831
V1
p832
(dp833
Vcoords
p834
(lp835
I144
aI208
aI224
aI400
asVprob
p836
I97
sstp837
a(I1
V2017:08:03 11:54:28
p838
(dp839
V1
p840
(dp841
Vcoords
p842
(lp843
I192
aI80
aI352
aI480
asVprob
p844
I98
sstp845
a(I2
V2017:08:03 11:55:30
p846
(dp847
V1
p848
(dp849
Vcoords
p850
(lp851
I272
aI192
aI336
aI384
asVprob
p852
I89
ssV3
p853
(dp854
Vcoords
p855
(lp856
I256
aI192
aI320
aI352
asVprob
p857
I85
sstp858
a(I2
V2017:08:03 11:55:58
p859
(dp860
V1
p861
(dp862
Vcoords
p863
(lp864
I48
aI192
aI128
aI384
asVprob
p865
I99
ssV2
p866
(dp867
Vcoords
p868
(lp869
I224
aI256
aI272
aI352
asVprob
p870
I86
sstp871
a(I1
V2017:08:03 11:56:06
p872
(dp873
V2
p874
(dp875
Vcoords
p876
(lp877
I240
aI224
aI288
aI352
asVprob
p878
I85
sstp879
a(I2
V2017:08:03 11:56:30
p880
(dp881
V1
p882
(dp883
Vcoords
p884
(lp885
I48
aI224
aI96
aI352
asVprob
p886
I90
ssV3
p887
(dp888
Vcoords
p889
(lp890
I64
aI224
aI112
aI352
asVprob
p891
I86
sstp892
a(I1
V2017:08:03 11:56:40
p893
(dp894
V3
p895
(dp896
Vcoords
p897
(lp898
I96
aI256
aI144
aI384
asVprob
p899
I86
sstp900
a(I1
V2017:08:03 11:56:48
p901
(dp902
V2
p903
(dp904
Vcoords
p905
(lp906
I48
aI224
aI96
aI352
asVprob
p907
I90
sstp908
a(I2
V2017:08:03 11:56:54
p909
(dp910
V1
p911
(dp912
Vcoords
p913
(lp914
I48
aI224
aI96
aI352
asVprob
p915
I94
ssV3
p916
(dp917
Vcoords
p918
(lp919
I64
aI224
aI112
aI352
asVprob
p920
I90
sstp921
a(I3
V2017:08:03 11:56:58
p922
(dp923
V1
p924
(dp925
Vcoords
p926
(lp927
I48
aI224
aI96
aI352
asVprob
p928
I94
ssV3
p929
(dp930
Vcoords
p931
(lp932
I64
aI224
aI112
aI352
asVprob
p933
I88
ssV2
p934
(dp935
Vcoords
p936
(lp937
I160
aI192
aI208
aI368
asVprob
p938
I91
sstp939
a(I1
V2017:08:03 11:57:02
p940
(dp941
V1
p942
(dp943
Vcoords
p944
(lp945
I16
aI224
aI64
aI368
asVprob
p946
I94
sstp947
a(I1
V2017:08:03 11:57:06
p948
(dp949
V1
p950
(dp951
Vcoords
p952
(lp953
I304
aI176
aI368
aI352
asVprob
p954
I98
sstp955
a(I2
V2017:08:03 11:57:10
p956
(dp957
V1
p958
(dp959
Vcoords
p960
(lp961
I48
aI192
aI112
aI384
asVprob
p962
I98
ssV2
p963
(dp964
Vcoords
p965
(lp966
I336
aI224
aI384
aI320
asVprob
p967
I94
sstp968
a(I1
V2017:08:03 11:57:18
p969
(dp970
V1
p971
(dp972
Vcoords
p973
(lp974
I16
aI208
aI64
aI384
asVprob
p975
I92
sstp976
a(I2
V2017:08:03 11:57:32
p977
(dp978
V1
p979
(dp980
Vcoords
p981
(lp982
I288
aI208
aI352
aI352
asVprob
p983
I98
ssV3
p984
(dp985
Vcoords
p986
(lp987
I80
aI208
aI128
aI336
asVprob
p988
I87
sstp989
a(I2
V2017:08:03 11:58:08
p990
(dp991
V1
p992
(dp993
Vcoords
p994
(lp995
I672
aI144
aI800
aI464
asVprob
p996
I97
ssV2
p997
(dp998
Vcoords
p999
(lp1000
I592
aI176
aI672
aI416
asVprob
p1001
I89
sstp1002
a(I1
V2017:08:03 11:58:24
p1003
(dp1004
V1
p1005
(dp1006
Vcoords
p1007
(lp1008
I64
aI176
aI160
aI416
asVprob
p1009
I99
sstp1010
a(I1
V2017:08:03 12:00:54
p1011
(dp1012
V1
p1013
(dp1014
Vcoords
p1015
(lp1016
I192
aI144
aI320
aI432
asVprob
p1017
I93
sstp1018
a(I2
V2017:08:03 12:01:12
p1019
(dp1020
V1
p1021
(dp1022
Vcoords
p1023
(lp1024
I256
aI160
aI320
aI384
asVprob
p1025
I98
ssV2
p1026
(dp1027
Vcoords
p1028
(lp1029
I336
aI192
aI416
aI416
asVprob
p1030
I97
sstp1031
a(I2
V2017:08:03 12:02:38
p1032
(dp1033
V1
p1034
(dp1035
Vcoords
p1036
(lp1037
I288
aI208
aI336
aI352
asVprob
p1038
I98
ssV2
p1039
(dp1040
Vcoords
p1041
(lp1042
I0
aI208
aI64
aI400
asVprob
p1043
I96
sstp1044
a(I1
V2017:08:03 12:02:48
p1045
(dp1046
V1
p1047
(dp1048
Vcoords
p1049
(lp1050
I144
aI224
aI192
aI368
asVprob
p1051
I95
sstp1052
a(I1
V2017:08:03 12:02:58
p1053
(dp1054
V1
p1055
(dp1056
Vcoords
p1057
(lp1058
I336
aI208
aI384
aI320
asVprob
p1059
I90
sstp1060
a(I1
V2017:08:03 12:03:08
p1061
(dp1062
V2
p1063
(dp1064
Vcoords
p1065
(lp1066
I48
aI224
aI96
aI352
asVprob
p1067
I87
sstp1068
a(I1
V2017:08:03 12:03:14
p1069
(dp1070
V1
p1071
(dp1072
Vcoords
p1073
(lp1074
I16
aI208
aI80
aI400
asVprob
p1075
I95
sstp1076
a(I1
V2017:08:03 12:03:22
p1077
(dp1078
V1
p1079
(dp1080
Vcoords
p1081
(lp1082
I64
aI208
aI112
aI368
asVprob
p1083
I98
sstp1084
a(I2
V2017:08:03 12:04:22
p1085
(dp1086
V1
p1087
(dp1088
Vcoords
p1089
(lp1090
I64
aI224
aI128
aI384
asVprob
p1091
I95
ssV2
p1092
(dp1093
Vcoords
p1094
(lp1095
I208
aI208
aI256
aI336
asVprob
p1096
I88
sstp1097
a(I1
V2017:08:03 12:04:30
p1098
(dp1099
V2
p1100
(dp1101
Vcoords
p1102
(lp1103
I16
aI240
aI80
aI400
asVprob
p1104
I87
sstp1105
a(I1
V2017:08:03 12:04:34
p1106
(dp1107
V1
p1108
(dp1109
Vcoords
p1110
(lp1111
I32
aI192
aI96
aI368
asVprob
p1112
I93
sstp1113
a(I1
V2017:08:03 12:04:44
p1114
(dp1115
V1
p1116
(dp1117
Vcoords
p1118
(lp1119
I112
aI64
aI368
aI512
asVprob
p1120
I96
sstp1121
a(I1
V2017:08:03 12:04:50
p1122
(dp1123
V2
p1124
(dp1125
Vcoords
p1126
(lp1127
I736
aI224
aI784
aI336
asVprob
p1128
I89
sstp1129
a(I1
V2017:08:03 12:05:02
p1130
(dp1131
V1
p1132
(dp1133
Vcoords
p1134
(lp1135
I32
aI128
aI128
aI432
asVprob
p1136
I99
sstp1137
a(I1
V2017:08:03 12:06:30
p1138
(dp1139
V1
p1140
(dp1141
Vcoords
p1142
(lp1143
I64
aI224
aI128
aI384
asVprob
p1144
I92
sstp1145
a(I1
V2017:08:03 12:06:54
p1146
(dp1147
V1
p1148
(dp1149
Vcoords
p1150
(lp1151
I160
aI80
aI368
aI528
asVprob
p1152
I97
sstp1153
a(I1
V2017:08:03 12:07:18
p1154
(dp1155
V2
p1156
(dp1157
Vcoords
p1158
(lp1159
I304
aI224
aI352
aI320
asVprob
p1160
I82
sstp1161
a(I1
V2017:08:03 12:07:26
p1162
(dp1163
V1
p1164
(dp1165
Vcoords
p1166
(lp1167
I304
aI224
aI352
aI320
asVprob
p1168
I92
sstp1169
a(I1
V2017:08:03 12:07:36
p1170
(dp1171
V1
p1172
(dp1173
Vcoords
p1174
(lp1175
I256
aI144
aI336
aI400
asVprob
p1176
I97
sstp1177
a(I3
V2017:08:03 12:08:22
p1178
(dp1179
V1
p1180
(dp1181
Vcoords
p1182
(lp1183
I288
aI128
aI400
aI432
asVprob
p1184
I99
ssV2
p1185
(dp1186
Vcoords
p1187
(lp1188
I224
aI176
aI288
aI384
asVprob
p1189
I98
ssV4
p1190
(dp1191
Vcoords
p1192
(lp1193
I80
aI224
aI128
aI352
asVprob
p1194
I88
sstp1195
a(I1
V2017:08:03 12:09:58
p1196
(dp1197
V1
p1198
(dp1199
Vcoords
p1200
(lp1201
I16
aI32
aI144
aI560
asVprob
p1202
I94
sstp1203
a(I1
V2017:08:03 12:11:10
p1204
(dp1205
V1
p1206
(dp1207
Vcoords
p1208
(lp1209
I304
aI176
aI384
aI368
asVprob
p1210
I96
sstp1211
a(I1
V2017:08:03 12:12:50
p1212
(dp1213
V1
p1214
(dp1215
Vcoords
p1216
(lp1217
I80
aI160
aI160
aI400
asVprob
p1218
I99
sstp1219
a(I1
V2017:08:03 12:13:06
p1220
(dp1221
V1
p1222
(dp1223
Vcoords
p1224
(lp1225
I240
aI208
aI288
aI336
asVprob
p1226
I94
sstp1227
a(I1
V2017:08:03 12:13:10
p1228
(dp1229
V1
p1230
(dp1231
Vcoords
p1232
(lp1233
I208
aI80
aI336
aI448
asVprob
p1234
I99
sstp1235
a(I2
V2017:08:03 12:13:20
p1236
(dp1237
V1
p1238
(dp1239
Vcoords
p1240
(lp1241
I240
aI192
aI304
aI384
asVprob
p1242
I96
ssV2
p1243
(dp1244
Vcoords
p1245
(lp1246
I160
aI208
aI224
aI384
asVprob
p1247
I92
sstp1248
a(I3
V2017:08:03 12:13:48
p1249
(dp1250
V1
p1251
(dp1252
Vcoords
p1253
(lp1254
I80
aI160
aI176
aI416
asVprob
p1255
I97
ssV3
p1256
(dp1257
Vcoords
p1258
(lp1259
I256
aI208
aI304
aI352
asVprob
p1260
I82
ssV2
p1261
(dp1262
Vcoords
p1263
(lp1264
I176
aI176
aI272
aI432
asVprob
p1265
I90
sstp1266
a(I4
V2017:08:03 12:14:20
p1267
(dp1268
V1
p1269
(dp1270
Vcoords
p1271
(lp1272
I192
aI208
aI240
aI352
asVprob
p1273
I93
ssV3
p1274
(dp1275
Vcoords
p1276
(lp1277
I144
aI224
aI192
aI352
asVprob
p1278
I89
ssV2
p1279
(dp1280
Vcoords
p1281
(lp1282
I80
aI224
aI128
aI368
asVprob
p1283
I90
ssV4
p1284
(dp1285
Vcoords
p1286
(lp1287
I0
aI224
aI64
aI384
asVprob
p1288
I85
sstp1289
a(I3
V2017:08:03 12:14:28
p1290
(dp1291
V1
p1292
(dp1293
Vcoords
p1294
(lp1295
I352
aI224
aI400
aI320
asVprob
p1296
I96
ssV3
p1297
(dp1298
Vcoords
p1299
(lp1300
I0
aI240
aI48
aI384
asVprob
p1301
I81
ssV2
p1302
(dp1303
Vcoords
p1304
(lp1305
I16
aI240
aI64
aI384
asVprob
p1306
I83
sstp1307
a(I2
V2017:08:03 12:14:36
p1308
(dp1309
V1
p1310
(dp1311
Vcoords
p1312
(lp1313
I128
aI224
aI176
aI352
asVprob
p1314
I91
ssV3
p1315
(dp1316
Vcoords
p1317
(lp1318
I144
aI224
aI192
aI352
asVprob
p1319
I86
sstp1320
a(I1
V2017:08:03 12:14:40
p1321
(dp1322
V3
p1323
(dp1324
Vcoords
p1325
(lp1326
I224
aI240
aI272
aI320
asVprob
p1327
I80
sstp1328
a(I1
V2017:08:03 12:14:44
p1329
(dp1330
V1
p1331
(dp1332
Vcoords
p1333
(lp1334
I128
aI224
aI176
aI352
asVprob
p1335
I93
sstp1336
a(I1
V2017:08:03 12:14:50
p1337
(dp1338
V1
p1339
(dp1340
Vcoords
p1341
(lp1342
I144
aI224
aI192
aI352
asVprob
p1343
I91
sstp1344
a(I1
V2017:08:03 12:15:16
p1345
(dp1346
V1
p1347
(dp1348
Vcoords
p1349
(lp1350
I48
aI224
aI96
aI368
asVprob
p1351
I97
sstp1352
a(I1
V2017:08:03 12:15:22
p1353
(dp1354
V1
p1355
(dp1356
Vcoords
p1357
(lp1358
I0
aI96
aI112
aI448
asVprob
p1359
I89
sstp1360
a(I1
V2017:08:03 12:15:38
p1361
(dp1362
V1
p1363
(dp1364
Vcoords
p1365
(lp1366
I192
aI128
aI288
aI416
asVprob
p1367
I95
sstp1368
a(I2
V2017:08:03 12:16:08
p1369
(dp1370
V1
p1371
(dp1372
Vcoords
p1373
(lp1374
I144
aI128
aI240
aI416
asVprob
p1375
I99
ssV2
p1376
(dp1377
Vcoords
p1378
(lp1379
I272
aI128
aI368
aI432
asVprob
p1380
I97
sstp1381
a(I2
V2017:08:03 12:16:32
p1382
(dp1383
V1
p1384
(dp1385
Vcoords
p1386
(lp1387
I320
aI192
aI400
aI416
asVprob
p1388
I97
ssV2
p1389
(dp1390
Vcoords
p1391
(lp1392
I224
aI144
aI320
aI400
asVprob
p1393
I97
sstp1394
a(I1
V2017:08:03 12:16:44
p1395
(dp1396
V1
p1397
(dp1398
Vcoords
p1399
(lp1400
I224
aI208
aI288
aI368
asVprob
p1401
I99
sstp1402
a(I3
V2017:08:03 12:17:10
p1403
(dp1404
V1
p1405
(dp1406
Vcoords
p1407
(lp1408
I96
aI208
aI144
aI352
asVprob
p1409
I93
ssV3
p1410
(dp1411
Vcoords
p1412
(lp1413
I32
aI224
aI80
aI384
asVprob
p1414
I88
ssV4
p1415
(dp1416
Vcoords
p1417
(lp1418
I80
aI208
aI128
aI352
asVprob
p1419
I87
sstp1420
a(I3
V2017:08:03 12:17:22
p1421
(dp1422
V1
p1423
(dp1424
Vcoords
p1425
(lp1426
I320
aI112
aI512
aI480
asVprob
p1427
I92
ssV2
p1428
(dp1429
Vcoords
p1430
(lp1431
I80
aI224
aI128
aI352
asVprob
p1432
I89
ssV5
p1433
(dp1434
Vcoords
p1435
(lp1436
I144
aI224
aI192
aI352
asVprob
p1437
I84
sstp1438
a(I2
V2017:08:03 12:17:32
p1439
(dp1440
V3
p1441
(dp1442
Vcoords
p1443
(lp1444
I80
aI224
aI128
aI352
asVprob
p1445
I88
ssV2
p1446
(dp1447
Vcoords
p1448
(lp1449
I32
aI224
aI80
aI384
asVprob
p1450
I92
sstp1451
a(I4
V2017:08:03 12:17:44
p1452
(dp1453
V1
p1454
(dp1455
Vcoords
p1456
(lp1457
I16
aI208
aI80
aI400
asVprob
p1458
I94
ssV2
p1459
(dp1460
Vcoords
p1461
(lp1462
I192
aI224
aI240
aI352
asVprob
p1463
I94
ssV5
p1464
(dp1465
Vcoords
p1466
(lp1467
I112
aI224
aI160
aI352
asVprob
p1468
I84
ssV4
p1469
(dp1470
Vcoords
p1471
(lp1472
I128
aI224
aI176
aI352
asVprob
p1473
I88
sstp1474
a(I1
V2017:08:03 12:18:12
p1475
(dp1476
V2
p1477
(dp1478
Vcoords
p1479
(lp1480
I16
aI240
aI64
aI384
asVprob
p1481
I91
sstp1482
a(I2
V2017:08:03 12:18:24
p1483
(dp1484
V1
p1485
(dp1486
Vcoords
p1487
(lp1488
I64
aI208
aI112
aI368
asVprob
p1489
I91
ssV2
p1490
(dp1491
Vcoords
p1492
(lp1493
I48
aI208
aI96
aI368
asVprob
p1494
I89
sstp1495
a(I2
V2017:08:03 12:18:46
p1496
(dp1497
V3
p1498
(dp1499
Vcoords
p1500
(lp1501
I256
aI192
aI304
aI352
asVprob
p1502
I86
ssV2
p1503
(dp1504
Vcoords
p1505
(lp1506
I304
aI224
aI368
aI368
asVprob
p1507
I93
sstp1508
a(I1
V2017:08:03 12:18:54
p1509
(dp1510
V2
p1511
(dp1512
Vcoords
p1513
(lp1514
I0
aI0
aI160
aI320
asVprob
p1515
I93
sstp1516
a(I1
V2017:08:03 12:19:06
p1517
(dp1518
V1
p1519
(dp1520
Vcoords
p1521
(lp1522
I528
aI208
aI576
aI352
asVprob
p1523
I96
sstp1524
a(I1
V2017:08:03 12:19:14
p1525
(dp1526
V1
p1527
(dp1528
Vcoords
p1529
(lp1530
I112
aI160
aI192
aI416
asVprob
p1531
I97
sstp1532
a(I1
V2017:08:03 12:19:18
p1533
(dp1534
V1
p1535
(dp1536
Vcoords
p1537
(lp1538
I64
aI208
aI128
aI368
asVprob
p1539
I94
sstp1540
a(I1
V2017:08:03 12:19:24
p1541
(dp1542
V1
p1543
(dp1544
Vcoords
p1545
(lp1546
I32
aI208
aI80
aI384
asVprob
p1547
I96
sstp1548
a(I2
V2017:08:03 12:20:26
p1549
(dp1550
V1
p1551
(dp1552
Vcoords
p1553
(lp1554
I368
aI224
aI416
aI336
asVprob
p1555
I95
ssV3
p1556
(dp1557
Vcoords
p1558
(lp1559
I16
aI208
aI80
aI384
asVprob
p1560
I87
sstp1561
a(I1
V2017:08:03 12:21:02
p1562
(dp1563
V1
p1564
(dp1565
Vcoords
p1566
(lp1567
I320
aI208
aI368
aI320
asVprob
p1568
I91
sstp1569
a(I1
V2017:08:03 12:21:58
p1570
(dp1571
V1
p1572
(dp1573
Vcoords
p1574
(lp1575
I304
aI144
aI400
aI416
asVprob
p1576
I99
sstp1577
a(I3
V2017:08:03 12:23:04
p1578
(dp1579
V1
p1580
(dp1581
Vcoords
p1582
(lp1583
I320
aI208
aI368
aI352
asVprob
p1584
I93
ssV2
p1585
(dp1586
Vcoords
p1587
(lp1588
I288
aI208
aI336
aI320
asVprob
p1589
I86
ssV4
p1590
(dp1591
Vcoords
p1592
(lp1593
I336
aI208
aI384
aI336
asVprob
p1594
I85
sstp1595
a(I1
V2017:08:03 12:24:30
p1596
(dp1597
V1
p1598
(dp1599
Vcoords
p1600
(lp1601
I304
aI208
aI352
aI368
asVprob
p1602
I95
sstp1603
a(I2
V2017:08:03 12:24:52
p1604
(dp1605
V1
p1606
(dp1607
Vcoords
p1608
(lp1609
I320
aI192
aI400
aI384
asVprob
p1610
I98
ssV2
p1611
(dp1612
Vcoords
p1613
(lp1614
I192
aI192
aI256
aI368
asVprob
p1615
I91
sstp1616
a(I1
V2017:08:03 12:25:02
p1617
(dp1618
V1
p1619
(dp1620
Vcoords
p1621
(lp1622
I160
aI144
aI256
aI416
asVprob
p1623
I98
sstp1624
a(I2
V2017:08:03 12:25:51
p1625
(dp1626
V3
p1627
(dp1628
Vcoords
p1629
(lp1630
I256
aI192
aI304
aI368
asVprob
p1631
I91
ssV2
p1632
(dp1633
Vcoords
p1634
(lp1635
I320
aI192
aI384
aI352
asVprob
p1636
I91
sstp1637
a(I1
V2017:08:03 12:26:06
p1638
(dp1639
V1
p1640
(dp1641
Vcoords
p1642
(lp1643
I464
aI224
aI512
aI336
asVprob
p1644
I95
sstp1645
a(I1
V2017:08:03 12:26:14
p1646
(dp1647
V1
p1648
(dp1649
Vcoords
p1650
(lp1651
I288
aI224
aI336
aI304
asVprob
p1652
I94
sstp1653
a(I1
V2017:08:03 12:26:40
p1654
(dp1655
V1
p1656
(dp1657
Vcoords
p1658
(lp1659
I288
aI224
aI336
aI304
asVprob
p1660
I92
sstp1661
a(I2
V2017:08:03 12:26:52
p1662
(dp1663
V1
p1664
(dp1665
Vcoords
p1666
(lp1667
I352
aI208
aI400
aI352
asVprob
p1668
I93
ssV3
p1669
(dp1670
Vcoords
p1671
(lp1672
I368
aI192
aI416
aI336
asVprob
p1673
I83
sstp1674
a(I1
V2017:08:03 12:27:12
p1675
(dp1676
V1
p1677
(dp1678
Vcoords
p1679
(lp1680
I208
aI96
aI384
aI480
asVprob
p1681
I99
sstp1682
a(I2
V2017:08:03 12:27:20
p1683
(dp1684
V1
p1685
(dp1686
Vcoords
p1687
(lp1688
I272
aI208
aI336
aI352
asVprob
p1689
I97
ssV2
p1690
(dp1691
Vcoords
p1692
(lp1693
I176
aI208
aI240
aI368
asVprob
p1694
I97
sstp1695
a(I1
V2017:08:03 12:27:32
p1696
(dp1697
V1
p1698
(dp1699
Vcoords
p1700
(lp1701
I368
aI208
aI416
aI336
asVprob
p1702
I95
sstp1703
a(I2
V2017:08:03 12:27:42
p1704
(dp1705
V1
p1706
(dp1707
Vcoords
p1708
(lp1709
I272
aI224
aI320
aI320
asVprob
p1710
I95
ssV3
p1711
(dp1712
Vcoords
p1713
(lp1714
I288
aI224
aI336
aI336
asVprob
p1715
I85
sstp1716
a(I1
V2017:08:03 12:28:50
p1717
(dp1718
V2
p1719
(dp1720
Vcoords
p1721
(lp1722
I96
aI224
aI144
aI352
asVprob
p1723
I82
sstp1724
a(I1
V2017:08:03 12:28:54
p1725
(dp1726
V2
p1727
(dp1728
Vcoords
p1729
(lp1730
I96
aI224
aI144
aI352
asVprob
p1731
I90
sstp1732
a(I1
V2017:08:03 12:29:18
p1733
(dp1734
V1
p1735
(dp1736
Vcoords
p1737
(lp1738
I96
aI224
aI144
aI352
asVprob
p1739
I95
sstp1740
a(I1
V2017:08:03 12:29:24
p1741
(dp1742
V1
p1743
(dp1744
Vcoords
p1745
(lp1746
I96
aI224
aI144
aI352
asVprob
p1747
I93
sstp1748
a(I2
V2017:08:03 12:29:32
p1749
(dp1750
V1
p1751
(dp1752
Vcoords
p1753
(lp1754
I16
aI224
aI64
aI352
asVprob
p1755
I98
ssV3
p1756
(dp1757
Vcoords
p1758
(lp1759
I64
aI224
aI112
aI352
asVprob
p1760
I94
sstp1761
a(I1
V2017:08:03 12:29:48
p1762
(dp1763
V2
p1764
(dp1765
Vcoords
p1766
(lp1767
I64
aI224
aI112
aI352
asVprob
p1768
I92
sstp1769
a(I2
V2017:08:03 12:30:06
p1770
(dp1771
V1
p1772
(dp1773
Vcoords
p1774
(lp1775
I96
aI224
aI144
aI352
asVprob
p1776
I90
ssV2
p1777
(dp1778
Vcoords
p1779
(lp1780
I112
aI224
aI160
aI352
asVprob
p1781
I90
sstp1782
a(I1
V2017:08:03 12:30:12
p1783
(dp1784
V2
p1785
(dp1786
Vcoords
p1787
(lp1788
I96
aI224
aI144
aI368
asVprob
p1789
I80
sstp1790
a(I2
V2017:08:03 12:30:24
p1791
(dp1792
V1
p1793
(dp1794
Vcoords
p1795
(lp1796
I128
aI224
aI176
aI352
asVprob
p1797
I90
ssV3
p1798
(dp1799
Vcoords
p1800
(lp1801
I112
aI224
aI160
aI352
asVprob
p1802
I82
sstp1803
a(I3
V2017:08:03 12:30:34
p1804
(dp1805
V1
p1806
(dp1807
Vcoords
p1808
(lp1809
I288
aI192
aI352
aI384
asVprob
p1810
I98
ssV2
p1811
(dp1812
Vcoords
p1813
(lp1814
I240
aI208
aI288
aI368
asVprob
p1815
I97
ssV4
p1816
(dp1817
Vcoords
p1818
(lp1819
I368
aI176
aI416
aI368
asVprob
p1820
I91
sstp1821
a(I1
V2017:08:03 12:30:54
p1822
(dp1823
V1
p1824
(dp1825
Vcoords
p1826
(lp1827
I320
aI208
aI384
aI352
asVprob
p1828
I95
sstp1829
a(I1
V2017:08:03 12:31:16
p1830
(dp1831
V1
p1832
(dp1833
Vcoords
p1834
(lp1835
I224
aI224
aI272
aI320
asVprob
p1836
I90
sstp1837
a(I1
V2017:08:03 12:31:22
p1838
(dp1839
V2
p1840
(dp1841
Vcoords
p1842
(lp1843
I112
aI224
aI160
aI352
asVprob
p1844
I83
sstp1845
a(I2
V2017:08:03 12:31:32
p1846
(dp1847
V1
p1848
(dp1849
Vcoords
p1850
(lp1851
I224
aI224
aI272
aI336
asVprob
p1852
I93
ssV2
p1853
(dp1854
Vcoords
p1855
(lp1856
I112
aI224
aI160
aI352
asVprob
p1857
I90
sstp1858
a(I1
V2017:08:03 12:31:38
p1859
(dp1860
V2
p1861
(dp1862
Vcoords
p1863
(lp1864
I208
aI224
aI256
aI352
asVprob
p1865
I90
sstp1866
a(I1
V2017:08:03 12:31:42
p1867
(dp1868
V4
p1869
(dp1870
Vcoords
p1871
(lp1872
I224
aI224
aI272
aI336
asVprob
p1873
I82
sstp1874
a(I1
V2017:08:03 12:31:46
p1875
(dp1876
V2
p1877
(dp1878
Vcoords
p1879
(lp1880
I224
aI208
aI272
aI336
asVprob
p1881
I91
sstp1882
a(I1
V2017:08:03 12:31:52
p1883
(dp1884
V2
p1885
(dp1886
Vcoords
p1887
(lp1888
I192
aI224
aI240
aI352
asVprob
p1889
I90
sstp1890
a(I1
V2017:08:03 12:32:02
p1891
(dp1892
V1
p1893
(dp1894
Vcoords
p1895
(lp1896
I112
aI224
aI160
aI352
asVprob
p1897
I97
sstp1898
a(I1
V2017:08:03 12:32:06
p1899
(dp1900
V1
p1901
(dp1902
Vcoords
p1903
(lp1904
I192
aI224
aI240
aI352
asVprob
p1905
I96
sstp1906
a(I1
V2017:08:03 12:32:10
p1907
(dp1908
V1
p1909
(dp1910
Vcoords
p1911
(lp1912
I112
aI224
aI160
aI352
asVprob
p1913
I97
sstp1914
a(I2
V2017:08:03 12:32:19
p1915
(dp1916
V3
p1917
(dp1918
Vcoords
p1919
(lp1920
I192
aI224
aI240
aI352
asVprob
p1921
I81
ssV2
p1922
(dp1923
Vcoords
p1924
(lp1925
I112
aI224
aI160
aI352
asVprob
p1926
I82
sstp1927
a(I1
V2017:08:03 12:32:24
p1928
(dp1929
V2
p1930
(dp1931
Vcoords
p1932
(lp1933
I192
aI224
aI240
aI352
asVprob
p1934
I91
sstp1935
a(I2
V2017:08:03 12:32:30
p1936
(dp1937
V3
p1938
(dp1939
Vcoords
p1940
(lp1941
I192
aI224
aI240
aI352
asVprob
p1942
I83
ssV2
p1943
(dp1944
Vcoords
p1945
(lp1946
I256
aI224
aI304
aI336
asVprob
p1947
I86
sstp1948
a(I1
V2017:08:03 12:32:38
p1949
(dp1950
V3
p1951
(dp1952
Vcoords
p1953
(lp1954
I192
aI224
aI240
aI352
asVprob
p1955
I87
sstp1956
a(I3
V2017:08:03 12:32:50
p1957
(dp1958
V3
p1959
(dp1960
Vcoords
p1961
(lp1962
I176
aI224
aI224
aI352
asVprob
p1963
I87
ssV2
p1964
(dp1965
Vcoords
p1966
(lp1967
I192
aI224
aI240
aI352
asVprob
p1968
I89
ssV5
p1969
(dp1970
Vcoords
p1971
(lp1972
I96
aI224
aI144
aI352
asVprob
p1973
I85
sstp1974
a(I2
V2017:08:03 12:32:58
p1975
(dp1976
V2
p1977
(dp1978
Vcoords
p1979
(lp1980
I176
aI208
aI224
aI336
asVprob
p1981
I90
ssV4
p1982
(dp1983
Vcoords
p1984
(lp1985
I160
aI208
aI208
aI336
asVprob
p1986
I85
sstp1987
a(I2
V2017:08:03 12:33:02
p1988
(dp1989
V3
p1990
(dp1991
Vcoords
p1992
(lp1993
I192
aI224
aI240
aI352
asVprob
p1994
I89
ssV4
p1995
(dp1996
Vcoords
p1997
(lp1998
I176
aI224
aI224
aI352
asVprob
p1999
I81
sstp2000
a(I1
V2017:08:03 12:33:06
p2001
(dp2002
V2
p2003
(dp2004
Vcoords
p2005
(lp2006
I240
aI208
aI288
aI320
asVprob
p2007
I84
sstp2008
a(I1
V2017:08:03 12:33:18
p2009
(dp2010
V2
p2011
(dp2012
Vcoords
p2013
(lp2014
I192
aI224
aI240
aI352
asVprob
p2015
I90
sstp2016
a(I1
V2017:08:03 12:33:26
p2017
(dp2018
V3
p2019
(dp2020
Vcoords
p2021
(lp2022
I96
aI224
aI144
aI352
asVprob
p2023
I83
sstp2024
a(I3
V2017:08:03 12:33:32
p2025
(dp2026
V1
p2027
(dp2028
Vcoords
p2029
(lp2030
I32
aI224
aI80
aI368
asVprob
p2031
I95
ssV3
p2032
(dp2033
Vcoords
p2034
(lp2035
I112
aI224
aI160
aI352
asVprob
p2036
I91
ssV2
p2037
(dp2038
Vcoords
p2039
(lp2040
I48
aI224
aI96
aI368
asVprob
p2041
I92
sstp2042
a(I2
V2017:08:03 12:33:48
p2043
(dp2044
V1
p2045
(dp2046
Vcoords
p2047
(lp2048
I272
aI224
aI320
aI320
asVprob
p2049
I93
ssV2
p2050
(dp2051
Vcoords
p2052
(lp2053
I112
aI224
aI160
aI352
asVprob
p2054
I91
sstp2055
a(I1
V2017:08:03 12:33:54
p2056
(dp2057
V2
p2058
(dp2059
Vcoords
p2060
(lp2061
I304
aI208
aI352
aI336
asVprob
p2062
I87
sstp2063
a(I2
V2017:08:03 12:34:00
p2064
(dp2065
V1
p2066
(dp2067
Vcoords
p2068
(lp2069
I192
aI224
aI240
aI352
asVprob
p2070
I95
ssV2
p2071
(dp2072
Vcoords
p2073
(lp2074
I112
aI224
aI160
aI352
asVprob
p2075
I85
sstp2076
a(I2
V2017:08:03 12:34:10
p2077
(dp2078
V3
p2079
(dp2080
Vcoords
p2081
(lp2082
I304
aI208
aI368
aI336
asVprob
p2083
I82
ssV2
p2084
(dp2085
Vcoords
p2086
(lp2087
I160
aI208
aI208
aI352
asVprob
p2088
I94
sstp2089
a(I3
V2017:08:03 12:34:26
p2090
(dp2091
V1
p2092
(dp2093
Vcoords
p2094
(lp2095
I112
aI208
aI160
aI352
asVprob
p2096
I95
ssV3
p2097
(dp2098
Vcoords
p2099
(lp2100
I176
aI208
aI224
aI352
asVprob
p2101
I83
ssV2
p2102
(dp2103
Vcoords
p2104
(lp2105
I160
aI208
aI208
aI352
asVprob
p2106
I85
sstp2107
a(I2
V2017:08:03 12:35:16
p2108
(dp2109
V1
p2110
(dp2111
Vcoords
p2112
(lp2113
I144
aI224
aI192
aI352
asVprob
p2114
I88
ssV4
p2115
(dp2116
Vcoords
p2117
(lp2118
I160
aI224
aI208
aI352
asVprob
p2119
I80
sstp2120
a(I1
V2017:08:03 12:35:22
p2121
(dp2122
V1
p2123
(dp2124
Vcoords
p2125
(lp2126
I144
aI224
aI192
aI352
asVprob
p2127
I89
sstp2128
a(I1
V2017:08:03 12:35:28
p2129
(dp2130
V1
p2131
(dp2132
Vcoords
p2133
(lp2134
I144
aI224
aI192
aI352
asVprob
p2135
I94
sstp2136
a(I2
V2017:08:03 12:35:46
p2137
(dp2138
V1
p2139
(dp2140
Vcoords
p2141
(lp2142
I160
aI208
aI208
aI352
asVprob
p2143
I93
ssV3
p2144
(dp2145
Vcoords
p2146
(lp2147
I192
aI224
aI240
aI352
asVprob
p2148
I87
sstp2149
a(I2
V2017:08:03 12:36:00
p2150
(dp2151
V1
p2152
(dp2153
Vcoords
p2154
(lp2155
I160
aI224
aI208
aI352
asVprob
p2156
I88
ssV4
p2157
(dp2158
Vcoords
p2159
(lp2160
I320
aI208
aI368
aI320
asVprob
p2161
I83
sstp2162
a(I7
V2017:08:03 12:37:18
p2163
(dp2164
V1
p2165
(dp2166
Vcoords
p2167
(lp2168
I16
aI192
aI80
aI400
asVprob
p2169
I96
ssV3
p2170
(dp2171
Vcoords
p2172
(lp2173
I320
aI224
aI368
aI320
asVprob
p2174
I92
ssV2
p2175
(dp2176
Vcoords
p2177
(lp2178
I80
aI192
aI160
aI384
asVprob
p2179
I95
ssV5
p2180
(dp2181
Vcoords
p2182
(lp2183
I208
aI192
aI256
aI368
asVprob
p2184
I90
ssV4
p2185
(dp2186
Vcoords
p2187
(lp2188
I256
aI192
aI304
aI352
asVprob
p2189
I91
ssV9
p2190
(dp2191
Vcoords
p2192
(lp2193
I240
aI192
aI288
aI368
asVprob
p2194
I82
ssV8
p2195
(dp2196
Vcoords
p2197
(lp2198
I192
aI208
aI240
aI368
asVprob
p2199
I83
sstp2200
a(I1
V2017:08:03 12:38:02
p2201
(dp2202
V1
p2203
(dp2204
Vcoords
p2205
(lp2206
I704
aI224
aI752
aI336
asVprob
p2207
I98
sstp2208
a(I1
V2017:08:03 12:38:40
p2209
(dp2210
V1
p2211
(dp2212
Vcoords
p2213
(lp2214
I272
aI192
aI336
aI384
asVprob
p2215
I85
sstp2216
a(I1
V2017:08:03 12:41:16
p2217
(dp2218
V1
p2219
(dp2220
Vcoords
p2221
(lp2222
I208
aI144
aI320
aI432
asVprob
p2223
I99
sstp2224
a(I1
V2017:08:03 12:41:38
p2225
(dp2226
V1
p2227
(dp2228
Vcoords
p2229
(lp2230
I336
aI208
aI400
aI336
asVprob
p2231
I94
sstp2232
a(I1
V2017:08:03 12:43:16
p2233
(dp2234
V1
p2235
(dp2236
Vcoords
p2237
(lp2238
I16
aI224
aI64
aI352
asVprob
p2239
I95
sstp2240
a(I3
V2017:08:03 12:43:28
p2241
(dp2242
V1
p2243
(dp2244
Vcoords
p2245
(lp2246
I16
aI208
aI64
aI368
asVprob
p2247
I90
ssV3
p2248
(dp2249
Vcoords
p2250
(lp2251
I64
aI224
aI112
aI352
asVprob
p2252
I82
ssV2
p2253
(dp2254
Vcoords
p2255
(lp2256
I0
aI192
aI48
aI368
asVprob
p2257
I90
sstp2258
a(I4
V2017:08:03 12:43:48
p2259
(dp2260
V1
p2261
(dp2262
Vcoords
p2263
(lp2264
I256
aI176
aI320
aI368
asVprob
p2265
I96
ssV3
p2266
(dp2267
Vcoords
p2268
(lp2269
I80
aI192
aI144
aI384
asVprob
p2270
I94
ssV2
p2271
(dp2272
Vcoords
p2273
(lp2274
I192
aI224
aI240
aI352
asVprob
p2275
I95
ssV4
p2276
(dp2277
Vcoords
p2278
(lp2279
I464
aI224
aI512
aI320
asVprob
p2280
I88
sstp2281
a(I2
V2017:08:03 12:44:08
p2282
(dp2283
V1
p2284
(dp2285
Vcoords
p2286
(lp2287
I160
aI224
aI208
aI352
asVprob
p2288
I94
ssV3
p2289
(dp2290
Vcoords
p2291
(lp2292
I176
aI224
aI224
aI352
asVprob
p2293
I82
sstp2294
a(I3
V2017:08:03 12:47:24
p2295
(dp2296
V1
p2297
(dp2298
Vcoords
p2299
(lp2300
I224
aI160
aI320
aI416
asVprob
p2301
I98
ssV3
p2302
(dp2303
Vcoords
p2304
(lp2305
I96
aI176
aI176
aI400
asVprob
p2306
I95
ssV2
p2307
(dp2308
Vcoords
p2309
(lp2310
I336
aI160
aI416
aI384
asVprob
p2311
I96
sstp2312
a(I1
V2017:08:03 12:50:52
p2313
(dp2314
V1
p2315
(dp2316
Vcoords
p2317
(lp2318
I48
aI144
aI144
aI416
asVprob
p2319
I97
sstp2320
a(I1
V2017:08:03 12:52:06
p2321
(dp2322
V2
p2323
(dp2324
Vcoords
p2325
(lp2326
I368
aI224
aI416
aI304
asVprob
p2327
I88
sstp2328
a(I1
V2017:08:03 12:52:28
p2329
(dp2330
V1
p2331
(dp2332
Vcoords
p2333
(lp2334
I496
aI192
aI560
aI400
asVprob
p2335
I96
sstp2336
a(I1
V2017:08:03 12:52:58
p2337
(dp2338
V1
p2339
(dp2340
Vcoords
p2341
(lp2342
I304
aI128
aI400
aI432
asVprob
p2343
I99
sstp2344
a(I1
V2017:08:03 12:53:54
p2345
(dp2346
V1
p2347
(dp2348
Vcoords
p2349
(lp2350
I144
aI128
aI272
aI512
asVprob
p2351
I96
sstp2352
a(I1
V2017:08:03 12:54:40
p2353
(dp2354
V4
p2355
(dp2356
Vcoords
p2357
(lp2358
I336
aI224
aI384
aI320
asVprob
p2359
I81
sstp2360
a(I1
V2017:08:03 12:55:06
p2361
(dp2362
V1
p2363
(dp2364
Vcoords
p2365
(lp2366
I144
aI224
aI192
aI352
asVprob
p2367
I92
sstp2368
a(I1
V2017:08:03 12:55:12
p2369
(dp2370
V1
p2371
(dp2372
Vcoords
p2373
(lp2374
I144
aI224
aI192
aI352
asVprob
p2375
I93
sstp2376
a(I1
V2017:08:03 12:55:46
p2377
(dp2378
V1
p2379
(dp2380
Vcoords
p2381
(lp2382
I224
aI208
aI272
aI320
asVprob
p2383
I92
sstp2384
a(I1
V2017:08:03 12:55:54
p2385
(dp2386
V1
p2387
(dp2388
Vcoords
p2389
(lp2390
I336
aI208
aI384
aI336
asVprob
p2391
I94
sstp2392
a(I1
V2017:08:03 12:56:14
p2393
(dp2394
V1
p2395
(dp2396
Vcoords
p2397
(lp2398
I256
aI128
aI384
aI448
asVprob
p2399
I98
sstp2400
a(I1
V2017:08:03 12:57:02
p2401
(dp2402
V1
p2403
(dp2404
Vcoords
p2405
(lp2406
I272
aI192
aI336
aI368
asVprob
p2407
I95
sstp2408
a(I2
V2017:08:03 12:57:40
p2409
(dp2410
V1
p2411
(dp2412
Vcoords
p2413
(lp2414
I272
aI192
aI320
aI336
asVprob
p2415
I97
ssV2
p2416
(dp2417
Vcoords
p2418
(lp2419
I256
aI192
aI304
aI336
asVprob
p2420
I92
sstp2421
a(I1
V2017:08:03 12:58:00
p2422
(dp2423
V1
p2424
(dp2425
Vcoords
p2426
(lp2427
I272
aI208
aI336
aI400
asVprob
p2428
I91
sstp2429
a(I1
V2017:08:03 12:58:52
p2430
(dp2431
V1
p2432
(dp2433
Vcoords
p2434
(lp2435
I272
aI192
aI336
aI352
asVprob
p2436
I96
sstp2437
a(I1
V2017:08:03 12:59:28
p2438
(dp2439
V1
p2440
(dp2441
Vcoords
p2442
(lp2443
I272
aI176
aI336
aI368
asVprob
p2444
I97
sstp2445
a(I1
V2017:08:03 13:01:14
p2446
(dp2447
V1
p2448
(dp2449
Vcoords
p2450
(lp2451
I48
aI32
aI208
aI528
asVprob
p2452
I96
sstp2453
a(I1
V2017:08:03 13:04:22
p2454
(dp2455
V1
p2456
(dp2457
Vcoords
p2458
(lp2459
I288
aI208
aI336
aI336
asVprob
p2460
I95
sstp2461
a(I1
V2017:08:03 13:05:12
p2462
(dp2463
V1
p2464
(dp2465
Vcoords
p2466
(lp2467
I320
aI224
aI368
aI320
asVprob
p2468
I85
sstp2469
a(I1
V2017:08:03 13:05:28
p2470
(dp2471
V2
p2472
(dp2473
Vcoords
p2474
(lp2475
I256
aI192
aI320
aI368
asVprob
p2476
I81
sstp2477
a(I1
V2017:08:03 13:06:08
p2478
(dp2479
V1
p2480
(dp2481
Vcoords
p2482
(lp2483
I336
aI224
aI384
aI336
asVprob
p2484
I90
sstp2485
a(I1
V2017:08:03 13:07:10
p2486
(dp2487
V1
p2488
(dp2489
Vcoords
p2490
(lp2491
I560
aI16
aI784
aI624
asVprob
p2492
I97
sstp2493
a(I1
V2017:08:03 13:07:34
p2494
(dp2495
V2
p2496
(dp2497
Vcoords
p2498
(lp2499
I16
aI16
aI144
aI560
asVprob
p2500
I89
sstp2501
a(I1
V2017:08:03 13:07:44
p2502
(dp2503
V1
p2504
(dp2505
Vcoords
p2506
(lp2507
I288
aI208
aI336
aI336
asVprob
p2508
I96
sstp2509
a(I1
V2017:08:03 13:08:18
p2510
(dp2511
V1
p2512
(dp2513
Vcoords
p2514
(lp2515
I80
aI32
aI256
aI560
asVprob
p2516
I96
sstp2517
a(I1
V2017:08:03 13:09:48
p2518
(dp2519
V1
p2520
(dp2521
Vcoords
p2522
(lp2523
I352
aI208
aI400
aI336
asVprob
p2524
I96
sstp2525
a(I4
V2017:08:03 13:10:38
p2526
(dp2527
V1
p2528
(dp2529
Vcoords
p2530
(lp2531
I224
aI192
aI288
aI368
asVprob
p2532
I97
ssV2
p2533
(dp2534
Vcoords
p2535
(lp2536
I64
aI240
aI112
aI368
asVprob
p2537
I94
ssV5
p2538
(dp2539
Vcoords
p2540
(lp2541
I48
aI224
aI96
aI368
asVprob
p2542
I81
ssV4
p2543
(dp2544
Vcoords
p2545
(lp2546
I144
aI224
aI192
aI384
asVprob
p2547
I89
sstp2548
a(I1
V2017:08:03 13:11:10
p2549
(dp2550
V1
p2551
(dp2552
Vcoords
p2553
(lp2554
I352
aI224
aI400
aI320
asVprob
p2555
I96
sstp2556
a(I5
V2017:08:03 13:11:28
p2557
(dp2558
V1
p2559
(dp2560
Vcoords
p2561
(lp2562
I128
aI192
aI192
aI368
asVprob
p2563
I97
ssV3
p2564
(dp2565
Vcoords
p2566
(lp2567
I304
aI176
aI384
aI400
asVprob
p2568
I86
ssV2
p2569
(dp2570
Vcoords
p2571
(lp2572
I368
aI208
aI416
aI368
asVprob
p2573
I94
ssV5
p2574
(dp2575
Vcoords
p2576
(lp2577
I272
aI176
aI320
aI368
asVprob
p2578
I81
ssV4
p2579
(dp2580
Vcoords
p2581
(lp2582
I224
aI208
aI272
aI384
asVprob
p2583
I83
sstp2584
a(I1
V2017:08:03 13:12:00
p2585
(dp2586
V1
p2587
(dp2588
Vcoords
p2589
(lp2590
I208
aI112
aI320
aI432
asVprob
p2591
I99
sstp2592
a(I1
V2017:08:03 13:14:10
p2593
(dp2594
V1
p2595
(dp2596
Vcoords
p2597
(lp2598
I256
aI176
aI336
aI384
asVprob
p2599
I97
sstp2600
a(I1
V2017:08:03 13:14:26
p2601
(dp2602
V1
p2603
(dp2604
Vcoords
p2605
(lp2606
I240
aI192
aI304
aI384
asVprob
p2607
I98
sstp2608
a(I1
V2017:08:03 13:15:54
p2609
(dp2610
V1
p2611
(dp2612
Vcoords
p2613
(lp2614
I304
aI192
aI368
aI368
asVprob
p2615
I97
sstp2616
a(I1
V2017:08:03 13:16:04
p2617
(dp2618
V1
p2619
(dp2620
Vcoords
p2621
(lp2622
I16
aI192
aI96
aI432
asVprob
p2623
I87
sstp2624
a(I2
V2017:08:03 13:17:10
p2625
(dp2626
V1
p2627
(dp2628
Vcoords
p2629
(lp2630
I352
aI160
aI432
aI400
asVprob
p2631
I96
ssV2
p2632
(dp2633
Vcoords
p2634
(lp2635
I288
aI208
aI336
aI368
asVprob
p2636
I93
sstp2637
a(I1
V2017:08:03 13:17:52
p2638
(dp2639
V1
p2640
(dp2641
Vcoords
p2642
(lp2643
I16
aI176
aI80
aI400
asVprob
p2644
I96
sstp2645
a(I1
V2017:08:03 13:18:06
p2646
(dp2647
V1
p2648
(dp2649
Vcoords
p2650
(lp2651
I80
aI240
aI128
aI368
asVprob
p2652
I95
sstp2653
a(I1
V2017:08:03 13:18:20
p2654
(dp2655
V1
p2656
(dp2657
Vcoords
p2658
(lp2659
I32
aI192
aI96
aI368
asVprob
p2660
I94
sstp2661
a(I1
V2017:08:03 13:19:18
p2662
(dp2663
V1
p2664
(dp2665
Vcoords
p2666
(lp2667
I16
aI192
aI80
aI400
asVprob
p2668
I98
sstp2669
a(I1
V2017:08:03 13:19:38
p2670
(dp2671
V1
p2672
(dp2673
Vcoords
p2674
(lp2675
I384
aI224
aI432
aI320
asVprob
p2676
I94
sstp2677
a(I1
V2017:08:03 13:20:36
p2678
(dp2679
V1
p2680
(dp2681
Vcoords
p2682
(lp2683
I112
aI224
aI160
aI352
asVprob
p2684
I93
sstp2685
a(I1
V2017:08:03 13:21:44
p2686
(dp2687
V1
p2688
(dp2689
Vcoords
p2690
(lp2691
I288
aI224
aI336
aI336
asVprob
p2692
I94
sstp2693
a(I2
V2017:08:03 13:25:54
p2694
(dp2695
V1
p2696
(dp2697
Vcoords
p2698
(lp2699
I160
aI0
aI368
aI592
asVprob
p2700
I97
ssV2
p2701
(dp2702
Vcoords
p2703
(lp2704
I48
aI64
aI192
aI544
asVprob
p2705
I87
sstp2706
a(I1
V2017:08:03 13:27:46
p2707
(dp2708
V1
p2709
(dp2710
Vcoords
p2711
(lp2712
I112
aI160
aI208
aI400
asVprob
p2713
I98
sstp2714
a(I1
V2017:08:03 13:32:40
p2715
(dp2716
V1
p2717
(dp2718
Vcoords
p2719
(lp2720
I272
aI224
aI320
aI320
asVprob
p2721
I96
sstp2722
a(I1
V2017:08:03 13:33:14
p2723
(dp2724
V1
p2725
(dp2726
Vcoords
p2727
(lp2728
I368
aI208
aI416
aI352
asVprob
p2729
I94
sstp2730
a(I1
V2017:08:03 13:33:44
p2731
(dp2732
V1
p2733
(dp2734
Vcoords
p2735
(lp2736
I384
aI192
aI432
aI352
asVprob
p2737
I93
sstp2738
a(I1
V2017:08:03 13:34:04
p2739
(dp2740
V1
p2741
(dp2742
Vcoords
p2743
(lp2744
I272
aI208
aI320
aI352
asVprob
p2745
I97
sstp2746
a(I1
V2017:08:03 13:34:48
p2747
(dp2748
V1
p2749
(dp2750
Vcoords
p2751
(lp2752
I352
aI192
aI416
aI384
asVprob
p2753
I97
sstp2754
a(I2
V2017:08:03 13:35:00
p2755
(dp2756
V1
p2757
(dp2758
Vcoords
p2759
(lp2760
I48
aI160
aI128
aI416
asVprob
p2761
I99
ssV2
p2762
(dp2763
Vcoords
p2764
(lp2765
I336
aI208
aI384
aI320
asVprob
p2766
I97
sstp2767
a(I1
V2017:08:03 13:35:10
p2768
(dp2769
V1
p2770
(dp2771
Vcoords
p2772
(lp2773
I64
aI160
aI144
aI400
asVprob
p2774
I97
sstp2775
a(I1
V2017:08:03 13:35:14
p2776
(dp2777
V1
p2778
(dp2779
Vcoords
p2780
(lp2781
I64
aI160
aI144
aI384
asVprob
p2782
I95
sstp2783
a(I1
V2017:08:03 13:35:38
p2784
(dp2785
V1
p2786
(dp2787
Vcoords
p2788
(lp2789
I112
aI192
aI192
aI400
asVprob
p2790
I95
sstp2791
a(I1
V2017:08:03 13:35:58
p2792
(dp2793
V1
p2794
(dp2795
Vcoords
p2796
(lp2797
I272
aI208
aI320
aI336
asVprob
p2798
I97
sstp2799
a(I1
V2017:08:03 13:36:22
p2800
(dp2801
V1
p2802
(dp2803
Vcoords
p2804
(lp2805
I336
aI176
aI416
aI400
asVprob
p2806
I98
sstp2807
a(I1
V2017:08:03 13:37:34
p2808
(dp2809
V1
p2810
(dp2811
Vcoords
p2812
(lp2813
I16
aI96
aI208
aI592
asVprob
p2814
I96
sstp2815
a(I1
V2017:08:03 13:38:20
p2816
(dp2817
V1
p2818
(dp2819
Vcoords
p2820
(lp2821
I288
aI224
aI336
aI320
asVprob
p2822
I88
sstp2823
a(I2
V2017:08:03 13:40:36
p2824
(dp2825
V1
p2826
(dp2827
Vcoords
p2828
(lp2829
I336
aI192
aI400
aI352
asVprob
p2830
I98
ssV2
p2831
(dp2832
Vcoords
p2833
(lp2834
I288
aI208
aI336
aI352
asVprob
p2835
I97
sstp2836
a(I1
V2017:08:03 13:41:40
p2837
(dp2838
V1
p2839
(dp2840
Vcoords
p2841
(lp2842
I288
aI208
aI336
aI336
asVprob
p2843
I94
sstp2844
a(I2
V2017:08:03 13:41:54
p2845
(dp2846
V1
p2847
(dp2848
Vcoords
p2849
(lp2850
I736
aI224
aI784
aI336
asVprob
p2851
I96
ssV3
p2852
(dp2853
Vcoords
p2854
(lp2855
I752
aI224
aI800
aI336
asVprob
p2856
I80
sstp2857
a(I2
V2017:08:03 13:42:04
p2858
(dp2859
V1
p2860
(dp2861
Vcoords
p2862
(lp2863
I592
aI224
aI640
aI352
asVprob
p2864
I96
ssV2
p2865
(dp2866
Vcoords
p2867
(lp2868
I704
aI192
aI768
aI368
asVprob
p2869
I95
sstp2870
a(I1
V2017:08:03 13:42:08
p2871
(dp2872
V1
p2873
(dp2874
Vcoords
p2875
(lp2876
I368
aI144
aI464
aI448
asVprob
p2877
I98
sstp2878
a(I1
V2017:08:03 13:42:34
p2879
(dp2880
V1
p2881
(dp2882
Vcoords
p2883
(lp2884
I240
aI192
aI304
aI368
asVprob
p2885
I96
sstp2886
a(I2
V2017:08:03 13:44:50
p2887
(dp2888
V1
p2889
(dp2890
Vcoords
p2891
(lp2892
I176
aI112
aI304
aI448
asVprob
p2893
I99
ssV2
p2894
(dp2895
Vcoords
p2896
(lp2897
I304
aI144
aI400
aI416
asVprob
p2898
I96
sstp2899
a(I2
V2017:08:03 13:46:12
p2900
(dp2901
V1
p2902
(dp2903
Vcoords
p2904
(lp2905
I304
aI208
aI352
aI336
asVprob
p2906
I96
ssV2
p2907
(dp2908
Vcoords
p2909
(lp2910
I48
aI112
aI144
aI448
asVprob
p2911
I95
sstp2912
a(I2
V2017:08:03 13:49:28
p2913
(dp2914
V1
p2915
(dp2916
Vcoords
p2917
(lp2918
I160
aI80
aI288
aI480
asVprob
p2919
I99
ssV2
p2920
(dp2921
Vcoords
p2922
(lp2923
I288
aI208
aI368
aI368
asVprob
p2924
I90
sstp2925
a(I1
V2017:08:03 13:51:40
p2926
(dp2927
V1
p2928
(dp2929
Vcoords
p2930
(lp2931
I240
aI192
aI304
aI368
asVprob
p2932
I97
sstp2933
a(I1
V2017:08:03 13:53:28
p2934
(dp2935
V1
p2936
(dp2937
Vcoords
p2938
(lp2939
I176
aI144
aI320
aI448
asVprob
p2940
I96
sstp2941
a(I1
V2017:08:03 13:54:24
p2942
(dp2943
V1
p2944
(dp2945
Vcoords
p2946
(lp2947
I384
aI224
aI432
aI336
asVprob
p2948
I98
sstp2949
a(I1
V2017:08:03 13:55:00
p2950
(dp2951
V1
p2952
(dp2953
Vcoords
p2954
(lp2955
I320
aI192
aI384
aI352
asVprob
p2956
I98
sstp2957
a(I2
V2017:08:03 13:55:24
p2958
(dp2959
V1
p2960
(dp2961
Vcoords
p2962
(lp2963
I272
aI192
aI352
aI384
asVprob
p2964
I98
ssV2
p2965
(dp2966
Vcoords
p2967
(lp2968
I16
aI208
aI80
aI384
asVprob
p2969
I88
sstp2970
a(I1
V2017:08:03 13:56:14
p2971
(dp2972
V1
p2973
(dp2974
Vcoords
p2975
(lp2976
I240
aI192
aI304
aI368
asVprob
p2977
I97
sstp2978
a(I3
V2017:08:03 13:56:32
p2979
(dp2980
V1
p2981
(dp2982
Vcoords
p2983
(lp2984
I64
aI176
aI160
aI432
asVprob
p2985
I97
ssV3
p2986
(dp2987
Vcoords
p2988
(lp2989
I304
aI208
aI352
aI336
asVprob
p2990
I91
ssV2
p2991
(dp2992
Vcoords
p2993
(lp2994
I320
aI208
aI368
aI336
asVprob
p2995
I94
sstp2996
a(I1
V2017:08:03 13:58:32
p2997
(dp2998
V1
p2999
(dp3000
Vcoords
p3001
(lp3002
I272
aI192
aI352
aI400
asVprob
p3003
I97
sstp3004
a(I1
V2017:08:03 13:59:22
p3005
(dp3006
V1
p3007
(dp3008
Vcoords
p3009
(lp3010
I208
aI112
aI336
aI496
asVprob
p3011
I98
sstp3012
a(I1
V2017:08:03 13:59:58
p3013
(dp3014
V1
p3015
(dp3016
Vcoords
p3017
(lp3018
I224
aI176
aI304
aI400
asVprob
p3019
I99
sstp3020
a(I2
V2017:08:03 14:03:16
p3021
(dp3022
V1
p3023
(dp3024
Vcoords
p3025
(lp3026
I128
aI112
aI208
aI400
asVprob
p3027
I93
ssV2
p3028
(dp3029
Vcoords
p3030
(lp3031
I96
aI128
aI176
aI416
asVprob
p3032
I84
sstp3033
a(I1
V2017:08:03 14:06:04
p3034
(dp3035
V1
p3036
(dp3037
Vcoords
p3038
(lp3039
I80
aI144
aI192
aI416
asVprob
p3040
I97
sstp3041
a(I1
V2017:08:03 14:08:00
p3042
(dp3043
V1
p3044
(dp3045
Vcoords
p3046
(lp3047
I176
aI192
aI256
aI384
asVprob
p3048
I97
sstp3049
a(I3
V2017:08:03 14:08:10
p3050
(dp3051
V1
p3052
(dp3053
Vcoords
p3054
(lp3055
I208
aI192
aI288
aI400
asVprob
p3056
I98
ssV3
p3057
(dp3058
Vcoords
p3059
(lp3060
I320
aI208
aI368
aI320
asVprob
p3061
I89
ssV2
p3062
(dp3063
Vcoords
p3064
(lp3065
I144
aI224
aI192
aI384
asVprob
p3066
I94
sstp3067
a(I1
V2017:08:03 14:08:28
p3068
(dp3069
V1
p3070
(dp3071
Vcoords
p3072
(lp3073
I144
aI128
aI256
aI448
asVprob
p3074
I99
sstp3075
a(I1
V2017:08:03 14:09:00
p3076
(dp3077
V1
p3078
(dp3079
Vcoords
p3080
(lp3081
I240
aI144
aI336
aI432
asVprob
p3082
I98
sstp3083
a(I2
V2017:08:03 14:10:06
p3084
(dp3085
V1
p3086
(dp3087
Vcoords
p3088
(lp3089
I288
aI208
aI336
aI320
asVprob
p3090
I94
ssV2
p3091
(dp3092
Vcoords
p3093
(lp3094
I352
aI224
aI400
aI352
asVprob
p3095
I86
sstp3096
a(I1
V2017:08:03 14:13:26
p3097
(dp3098
V1
p3099
(dp3100
Vcoords
p3101
(lp3102
I624
aI176
aI704
aI384
asVprob
p3103
I96
sstp3104
a(I2
V2017:08:03 14:13:38
p3105
(dp3106
V1
p3107
(dp3108
Vcoords
p3109
(lp3110
I576
aI80
aI752
aI512
asVprob
p3111
I99
ssV2
p3112
(dp3113
Vcoords
p3114
(lp3115
I720
aI112
aI800
aI448
asVprob
p3116
I89
sstp3117
a(I1
V2017:08:03 14:13:42
p3118
(dp3119
V1
p3120
(dp3121
Vcoords
p3122
(lp3123
I640
aI0
aI784
aI560
asVprob
p3124
I97
sstp3125
a(I2
V2017:08:03 14:13:48
p3126
(dp3127
V1
p3128
(dp3129
Vcoords
p3130
(lp3131
I336
aI224
aI384
aI320
asVprob
p3132
I96
ssV2
p3133
(dp3134
Vcoords
p3135
(lp3136
I656
aI-80
aI800
aI576
asVprob
p3137
I88
sstp3138
a(I1
V2017:08:03 14:14:00
p3139
(dp3140
V1
p3141
(dp3142
Vcoords
p3143
(lp3144
I240
aI16
aI480
aI608
asVprob
p3145
I92
sstp3146
a(I1
V2017:08:03 14:14:04
p3147
(dp3148
V1
p3149
(dp3150
Vcoords
p3151
(lp3152
I400
aI224
aI464
aI336
asVprob
p3153
I88
sstp3154
a(I1
V2017:08:03 14:14:18
p3155
(dp3156
V1
p3157
(dp3158
Vcoords
p3159
(lp3160
I336
aI208
aI384
aI368
asVprob
p3161
I96
sstp3162
a(I1
V2017:08:03 14:14:58
p3163
(dp3164
V1
p3165
(dp3166
Vcoords
p3167
(lp3168
I256
aI160
aI352
aI416
asVprob
p3169
I98
sstp3170
a(I1
V2017:08:03 14:16:18
p3171
(dp3172
V1
p3173
(dp3174
Vcoords
p3175
(lp3176
I144
aI144
aI240
aI400
asVprob
p3177
I98
sstp3178
a(I1
V2017:08:03 14:16:58
p3179
(dp3180
V1
p3181
(dp3182
Vcoords
p3183
(lp3184
I208
aI160
aI304
aI432
asVprob
p3185
I94
sstp3186
a(I1
V2017:08:03 14:20:42
p3187
(dp3188
V1
p3189
(dp3190
Vcoords
p3191
(lp3192
I16
aI144
aI112
aI464
asVprob
p3193
I97
sstp3194
a(I2
V2017:08:03 14:21:40
p3195
(dp3196
V1
p3197
(dp3198
Vcoords
p3199
(lp3200
I0
aI160
aI80
aI432
asVprob
p3201
I95
ssV2
p3202
(dp3203
Vcoords
p3204
(lp3205
I128
aI144
aI224
aI432
asVprob
p3206
I94
sstp3207
a(I1
V2017:08:03 14:22:04
p3208
(dp3209
V1
p3210
(dp3211
Vcoords
p3212
(lp3213
I288
aI112
aI416
aI496
asVprob
p3214
I95
sstp3215
a(I1
V2017:08:03 14:23:20
p3216
(dp3217
V1
p3218
(dp3219
Vcoords
p3220
(lp3221
I352
aI160
aI432
aI400
asVprob
p3222
I96
sstp3223
a(I1
V2017:08:03 14:23:26
p3224
(dp3225
V1
p3226
(dp3227
Vcoords
p3228
(lp3229
I0
aI16
aI128
aI480
asVprob
p3230
I93
sstp3231
a(I1
V2017:08:03 14:24:31
p3232
(dp3233
V1
p3234
(dp3235
Vcoords
p3236
(lp3237
I208
aI192
aI272
aI352
asVprob
p3238
I95
sstp3239
a(I1
V2017:08:03 14:25:06
p3240
(dp3241
V1
p3242
(dp3243
Vcoords
p3244
(lp3245
I16
aI0
aI192
aI576
asVprob
p3246
I94
sstp3247
a(I1
V2017:08:03 14:26:30
p3248
(dp3249
V1
p3250
(dp3251
Vcoords
p3252
(lp3253
I720
aI224
aI784
aI368
asVprob
p3254
I90
sstp3255
a(I1
V2017:08:03 14:26:34
p3256
(dp3257
V1
p3258
(dp3259
Vcoords
p3260
(lp3261
I336
aI208
aI400
aI352
asVprob
p3262
I95
sstp3263
a(I1
V2017:08:03 14:30:12
p3264
(dp3265
V1
p3266
(dp3267
Vcoords
p3268
(lp3269
I352
aI208
aI400
aI336
asVprob
p3270
I98
sstp3271
a(I1
V2017:08:03 14:30:36
p3272
(dp3273
V1
p3274
(dp3275
Vcoords
p3276
(lp3277
I320
aI208
aI384
aI352
asVprob
p3278
I95
sstp3279
a(I1
V2017:08:03 14:31:04
p3280
(dp3281
V1
p3282
(dp3283
Vcoords
p3284
(lp3285
I304
aI144
aI400
aI400
asVprob
p3286
I98
sstp3287
a(I1
V2017:08:03 14:31:16
p3288
(dp3289
V1
p3290
(dp3291
Vcoords
p3292
(lp3293
I128
aI128
aI240
aI448
asVprob
p3294
I98
sstp3295
a(I1
V2017:08:03 14:32:24
p3296
(dp3297
V1
p3298
(dp3299
Vcoords
p3300
(lp3301
I192
aI64
aI352
aI528
asVprob
p3302
I95
sstp3303
a(I2
V2017:08:03 14:35:28
p3304
(dp3305
V1
p3306
(dp3307
Vcoords
p3308
(lp3309
I320
aI192
aI384
aI352
asVprob
p3310
I98
ssV2
p3311
(dp3312
Vcoords
p3313
(lp3314
I256
aI208
aI304
aI352
asVprob
p3315
I92
sstp3316
a(I1
V2017:08:03 14:36:26
p3317
(dp3318
V1
p3319
(dp3320
Vcoords
p3321
(lp3322
I208
aI176
aI288
aI400
asVprob
p3323
I94
sstp3324
a(I2
V2017:08:03 14:37:06
p3325
(dp3326
V1
p3327
(dp3328
Vcoords
p3329
(lp3330
I224
aI192
aI288
aI368
asVprob
p3331
I96
ssV2
p3332
(dp3333
Vcoords
p3334
(lp3335
I272
aI176
aI352
aI384
asVprob
p3336
I96
sstp3337
a(I1
V2017:08:03 14:37:42
p3338
(dp3339
V1
p3340
(dp3341
Vcoords
p3342
(lp3343
I304
aI208
aI368
aI368
asVprob
p3344
I96
sstp3345
a(I1
V2017:08:03 14:39:46
p3346
(dp3347
V1
p3348
(dp3349
Vcoords
p3350
(lp3351
I368
aI240
aI416
aI320
asVprob
p3352
I93
sstp3353
a(I1
V2017:08:03 14:43:34
p3354
(dp3355
V1
p3356
(dp3357
Vcoords
p3358
(lp3359
I368
aI208
aI416
aI320
asVprob
p3360
I89
sstp3361
a(I2
V2017:08:03 14:46:58
p3362
(dp3363
V1
p3364
(dp3365
Vcoords
p3366
(lp3367
I16
aI128
aI112
aI448
asVprob
p3368
I94
ssV2
p3369
(dp3370
Vcoords
p3371
(lp3372
I96
aI48
aI256
aI528
asVprob
p3373
I91
sstp3374
a(I2
V2017:08:03 14:49:20
p3375
(dp3376
V1
p3377
(dp3378
Vcoords
p3379
(lp3380
I288
aI224
aI336
aI336
asVprob
p3381
I91
ssV2
p3382
(dp3383
Vcoords
p3384
(lp3385
I336
aI224
aI384
aI336
asVprob
p3386
I85
sstp3387
a(I2
V2017:08:03 14:50:04
p3388
(dp3389
V1
p3390
(dp3391
Vcoords
p3392
(lp3393
I192
aI112
aI336
aI512
asVprob
p3394
I97
ssV2
p3395
(dp3396
Vcoords
p3397
(lp3398
I128
aI160
aI192
aI384
asVprob
p3399
I95
sstp3400
a(I2
V2017:08:03 14:51:56
p3401
(dp3402
V1
p3403
(dp3404
Vcoords
p3405
(lp3406
I272
aI192
aI336
aI384
asVprob
p3407
I96
ssV2
p3408
(dp3409
Vcoords
p3410
(lp3411
I208
aI192
aI272
aI352
asVprob
p3412
I95
sstp3413
a(I1
V2017:08:03 14:52:08
p3414
(dp3415
V1
p3416
(dp3417
Vcoords
p3418
(lp3419
I272
aI160
aI352
aI400
asVprob
p3420
I95
sstp3421
a(I2
V2017:08:03 14:52:16
p3422
(dp3423
V1
p3424
(dp3425
Vcoords
p3426
(lp3427
I96
aI32
aI240
aI512
asVprob
p3428
I98
ssV2
p3429
(dp3430
Vcoords
p3431
(lp3432
I16
aI128
aI96
aI496
asVprob
p3433
I92
sstp3434
a(I1
V2017:08:03 14:54:04
p3435
(dp3436
V1
p3437
(dp3438
Vcoords
p3439
(lp3440
I304
aI208
aI368
aI352
asVprob
p3441
I95
sstp3442
a(I1
V2017:08:03 14:54:22
p3443
(dp3444
V1
p3445
(dp3446
Vcoords
p3447
(lp3448
I256
aI160
aI352
aI464
asVprob
p3449
I97
sstp3450
a(I1
V2017:08:03 14:54:56
p3451
(dp3452
V1
p3453
(dp3454
Vcoords
p3455
(lp3456
I64
aI144
aI160
aI448
asVprob
p3457
I98
sstp3458
a(I1
V2017:08:03 14:55:38
p3459
(dp3460
V1
p3461
(dp3462
Vcoords
p3463
(lp3464
I32
aI112
aI160
aI480
asVprob
p3465
I96
sstp3466
a(I3
V2017:08:03 14:56:32
p3467
(dp3468
V1
p3469
(dp3470
Vcoords
p3471
(lp3472
I208
aI208
aI272
aI368
asVprob
p3473
I98
ssV3
p3474
(dp3475
Vcoords
p3476
(lp3477
I288
aI208
aI352
aI352
asVprob
p3478
I91
ssV2
p3479
(dp3480
Vcoords
p3481
(lp3482
I352
aI176
aI416
aI384
asVprob
p3483
I97
sstp3484
a(I1
V2017:08:03 14:57:38
p3485
(dp3486
V2
p3487
(dp3488
Vcoords
p3489
(lp3490
I352
aI208
aI400
aI336
asVprob
p3491
I85
sstp3492
a(I1
V2017:08:03 14:58:24
p3493
(dp3494
V1
p3495
(dp3496
Vcoords
p3497
(lp3498
I304
aI192
aI368
aI368
asVprob
p3499
I98
sstp3500
a(I1
V2017:08:03 14:59:11
p3501
(dp3502
V1
p3503
(dp3504
Vcoords
p3505
(lp3506
I336
aI176
aI416
aI400
asVprob
p3507
I97
sstp3508
a(I1
V2017:08:03 14:59:42
p3509
(dp3510
V1
p3511
(dp3512
Vcoords
p3513
(lp3514
I64
aI144
aI176
aI416
asVprob
p3515
I98
sstp3516
a(I1
V2017:08:03 14:59:46
p3517
(dp3518
V1
p3519
(dp3520
Vcoords
p3521
(lp3522
I320
aI224
aI368
aI320
asVprob
p3523
I95
sstp3524
a(I1
V2017:08:03 15:01:04
p3525
(dp3526
V1
p3527
(dp3528
Vcoords
p3529
(lp3530
I464
aI224
aI512
aI336
asVprob
p3531
I91
sstp3532
a(I2
V2017:08:03 15:01:12
p3533
(dp3534
V3
p3535
(dp3536
Vcoords
p3537
(lp3538
I560
aI208
aI608
aI336
asVprob
p3539
I88
ssV2
p3540
(dp3541
Vcoords
p3542
(lp3543
I224
aI224
aI272
aI336
asVprob
p3544
I88
sstp3545
a(I1
V2017:08:03 15:01:22
p3546
(dp3547
V1
p3548
(dp3549
Vcoords
p3550
(lp3551
I320
aI176
aI400
aI384
asVprob
p3552
I96
sstp3553
a(I1
V2017:08:03 15:01:28
p3554
(dp3555
V1
p3556
(dp3557
Vcoords
p3558
(lp3559
I144
aI208
aI192
aI352
asVprob
p3560
I90
sstp3561
a(I1
V2017:08:03 15:01:44
p3562
(dp3563
V1
p3564
(dp3565
Vcoords
p3566
(lp3567
I256
aI176
aI320
aI384
asVprob
p3568
I85
sstp3569
a(I1
V2017:08:03 15:01:52
p3570
(dp3571
V1
p3572
(dp3573
Vcoords
p3574
(lp3575
I272
aI224
aI320
aI336
asVprob
p3576
I80
sstp3577
a(I1
V2017:08:03 15:01:58
p3578
(dp3579
V1
p3580
(dp3581
Vcoords
p3582
(lp3583
I48
aI224
aI96
aI352
asVprob
p3584
I96
sstp3585
a(I1
V2017:08:03 15:03:44
p3586
(dp3587
V1
p3588
(dp3589
Vcoords
p3590
(lp3591
I32
aI224
aI80
aI368
asVprob
p3592
I87
sstp3593
a(I1
V2017:08:03 15:04:22
p3594
(dp3595
V1
p3596
(dp3597
Vcoords
p3598
(lp3599
I240
aI240
aI288
aI336
asVprob
p3600
I86
sstp3601
a(I1
V2017:08:03 15:05:12
p3602
(dp3603
V1
p3604
(dp3605
Vcoords
p3606
(lp3607
I240
aI160
aI304
aI384
asVprob
p3608
I98
sstp3609
a(I1
V2017:08:03 15:07:40
p3610
(dp3611
V1
p3612
(dp3613
Vcoords
p3614
(lp3615
I160
aI112
aI304
aI464
asVprob
p3616
I98
sstp3617
a(I1
V2017:08:03 15:10:30
p3618
(dp3619
V1
p3620
(dp3621
Vcoords
p3622
(lp3623
I48
aI208
aI112
aI368
asVprob
p3624
I91
sstp3625
a(I2
V2017:08:03 15:10:44
p3626
(dp3627
V1
p3628
(dp3629
Vcoords
p3630
(lp3631
I96
aI208
aI144
aI352
asVprob
p3632
I96
ssV2
p3633
(dp3634
Vcoords
p3635
(lp3636
I112
aI208
aI160
aI352
asVprob
p3637
I93
sstp3638
a(I2
V2017:08:03 15:10:52
p3639
(dp3640
V1
p3641
(dp3642
Vcoords
p3643
(lp3644
I112
aI192
aI160
aI336
asVprob
p3645
I94
ssV3
p3646
(dp3647
Vcoords
p3648
(lp3649
I96
aI208
aI144
aI352
asVprob
p3650
I89
sstp3651
a(I3
V2017:08:03 15:11:06
p3652
(dp3653
V1
p3654
(dp3655
Vcoords
p3656
(lp3657
I112
aI208
aI160
aI336
asVprob
p3658
I93
ssV3
p3659
(dp3660
Vcoords
p3661
(lp3662
I32
aI224
aI80
aI368
asVprob
p3663
I83
ssV2
p3664
(dp3665
Vcoords
p3666
(lp3667
I128
aI192
aI176
aI336
asVprob
p3668
I87
sstp3669
a(I1
V2017:08:03 15:12:36
p3670
(dp3671
V1
p3672
(dp3673
Vcoords
p3674
(lp3675
I288
aI208
aI336
aI336
asVprob
p3676
I95
sstp3677
a.