(lp0
(I1
V2017:08:01 10:58:17
p1
(dp2
V1
p3
(dp4
Vcoords
p5
(lp6
I160
aI192
aI224
aI416
asVprob
p7
I97
sstp8
a(I2
V2017:08:01 10:59:59
p9
(dp10
V1
p11
(dp12
Vcoords
p13
(lp14
I272
aI112
aI384
aI480
asVprob
p15
I98
ssV2
p16
(dp17
Vcoords
p18
(lp19
I192
aI160
aI272
aI432
asVprob
p20
I94
sstp21
a(I1
V2017:08:01 11:02:17
p22
(dp23
V1
p24
(dp25
Vcoords
p26
(lp27
I320
aI208
aI384
aI384
asVprob
p28
I97
sstp29
a(I1
V2017:08:01 11:07:35
p30
(dp31
V1
p32
(dp33
Vcoords
p34
(lp35
I576
aI240
aI656
aI384
asVprob
p36
I95
sstp37
a(I1
V2017:08:01 11:07:39
p38
(dp39
V1
p40
(dp41
Vcoords
p42
(lp43
I592
aI256
aI656
aI384
asVprob
p44
I82
sstp45
a(I1
V2017:08:01 11:07:43
p46
(dp47
V1
p48
(dp49
Vcoords
p50
(lp51
I592
aI272
aI656
aI400
asVprob
p52
I85
sstp53
a(I1
V2017:08:01 11:08:15
p54
(dp55
V1
p56
(dp57
Vcoords
p58
(lp59
I208
aI144
aI320
aI416
asVprob
p60
I98
sstp61
a(I1
V2017:08:01 11:08:33
p62
(dp63
V1
p64
(dp65
Vcoords
p66
(lp67
I192
aI192
aI272
aI400
asVprob
p68
I98
sstp69
a(I3
V2017:08:01 11:10:55
p70
(dp71
V1
p72
(dp73
Vcoords
p74
(lp75
I304
aI192
aI368
aI384
asVprob
p76
I95
ssV3
p77
(dp78
Vcoords
p79
(lp80
I240
aI176
aI320
aI416
asVprob
p81
I84
ssV2
p82
(dp83
Vcoords
p84
(lp85
I160
aI176
aI256
aI448
asVprob
p86
I94
sstp87
a(I3
V2017:08:01 11:11:07
p88
(dp89
V1
p90
(dp91
Vcoords
p92
(lp93
I288
aI192
aI352
aI400
asVprob
p94
I98
ssV3
p95
(dp96
Vcoords
p97
(lp98
I336
aI208
aI400
aI384
asVprob
p99
I96
ssV2
p100
(dp101
Vcoords
p102
(lp103
I128
aI176
aI208
aI400
asVprob
p104
I97
sstp105
a(I1
V2017:08:01 11:11:19
p106
(dp107
V1
p108
(dp109
Vcoords
p110
(lp111
I320
aI208
aI384
aI384
asVprob
p112
I97
sstp113
a(I1
V2017:08:01 11:15:05
p114
(dp115
V1
p116
(dp117
Vcoords
p118
(lp119
I256
aI160
aI368
aI432
asVprob
p120
I99
sstp121
a(I1
V2017:08:01 11:15:41
p122
(dp123
V1
p124
(dp125
Vcoords
p126
(lp127
I240
aI192
aI320
aI400
asVprob
p128
I95
sstp129
a(I1
V2017:08:01 11:16:05
p130
(dp131
V1
p132
(dp133
Vcoords
p134
(lp135
I176
aI192
aI256
aI416
asVprob
p136
I96
sstp137
a(I1
V2017:08:01 11:18:31
p138
(dp139
V1
p140
(dp141
Vcoords
p142
(lp143
I304
aI192
aI432
aI448
asVprob
p144
I99
sstp145
a(I1
V2017:08:01 11:23:55
p146
(dp147
V1
p148
(dp149
Vcoords
p150
(lp151
I96
aI80
aI256
aI480
asVprob
p152
I99
sstp153
a(I1
V2017:08:01 11:27:25
p154
(dp155
V2
p156
(dp157
Vcoords
p158
(lp159
I176
aI160
aI288
aI448
asVprob
p160
I92
sstp161
a(I1
V2017:08:01 11:27:49
p162
(dp163
V1
p164
(dp165
Vcoords
p166
(lp167
I128
aI176
aI192
aI368
asVprob
p168
I97
sstp169
a(I1
V2017:08:01 11:28:25
p170
(dp171
V1
p172
(dp173
Vcoords
p174
(lp175
I176
aI224
aI240
aI384
asVprob
p176
I95
sstp177
a(I1
V2017:08:01 11:30:03
p178
(dp179
V1
p180
(dp181
Vcoords
p182
(lp183
I336
aI208
aI400
aI368
asVprob
p184
I91
sstp185
a(I1
V2017:08:01 11:30:59
p186
(dp187
V1
p188
(dp189
Vcoords
p190
(lp191
I0
aI224
aI176
aI592
asVprob
p192
I88
sstp193
a(I1
V2017:08:01 11:34:12
p194
(dp195
V1
p196
(dp197
Vcoords
p198
(lp199
I80
aI80
aI208
aI496
asVprob
p200
I94
sstp201
a(I1
V2017:08:01 11:34:44
p202
(dp203
V1
p204
(dp205
Vcoords
p206
(lp207
I32
aI192
aI96
aI352
asVprob
p208
I98
sstp209
a(I2
V2017:08:01 11:34:52
p210
(dp211
V1
p212
(dp213
Vcoords
p214
(lp215
I32
aI192
aI96
aI352
asVprob
p216
I95
ssV2
p217
(dp218
Vcoords
p219
(lp220
I96
aI176
aI160
aI368
asVprob
p221
I87
sstp222
a(I1
V2017:08:01 11:39:08
p223
(dp224
V1
p225
(dp226
Vcoords
p227
(lp228
I128
aI96
aI272
aI480
asVprob
p229
I98
sstp230
a(I1
V2017:08:01 11:40:04
p231
(dp232
V1
p233
(dp234
Vcoords
p235
(lp236
I160
aI144
aI256
aI384
asVprob
p237
I97
sstp238
a(I1
V2017:08:01 11:43:36
p239
(dp240
V2
p241
(dp242
Vcoords
p243
(lp244
I688
aI96
aI800
aI512
asVprob
p245
I86
sstp246
a(I1
V2017:08:01 11:44:06
p247
(dp248
V1
p249
(dp250
Vcoords
p251
(lp252
I32
aI224
aI96
aI416
asVprob
p253
I96
sstp254
a(I1
V2017:08:01 11:44:34
p255
(dp256
V1
p257
(dp258
Vcoords
p259
(lp260
I240
aI96
aI384
aI544
asVprob
p261
I96
sstp262
a(I1
V2017:08:01 11:44:52
p263
(dp264
V1
p265
(dp266
Vcoords
p267
(lp268
I128
aI176
aI224
aI416
asVprob
p269
I96
sstp270
a(I1
V2017:08:01 11:48:20
p271
(dp272
V1
p273
(dp274
Vcoords
p275
(lp276
I96
aI144
aI176
aI416
asVprob
p277
I98
sstp278
a(I1
V2017:08:01 11:49:14
p279
(dp280
V1
p281
(dp282
Vcoords
p283
(lp284
I80
aI112
aI192
aI432
asVprob
p285
I98
sstp286
a(I1
V2017:08:01 11:50:20
p287
(dp288
V1
p289
(dp290
Vcoords
p291
(lp292
I32
aI224
aI96
aI384
asVprob
p293
I85
sstp294
a(I1
V2017:08:01 11:50:40
p295
(dp296
V1
p297
(dp298
Vcoords
p299
(lp300
I32
aI192
aI96
aI368
asVprob
p301
I89
sstp302
a(I1
V2017:08:01 11:50:54
p303
(dp304
V1
p305
(dp306
Vcoords
p307
(lp308
I288
aI128
aI384
aI416
asVprob
p309
I99
sstp310
a(I4
V2017:08:01 11:52:14
p311
(dp312
V1
p313
(dp314
Vcoords
p315
(lp316
I416
aI208
aI496
aI368
asVprob
p317
I98
ssV3
p318
(dp319
Vcoords
p320
(lp321
I192
aI176
aI272
aI384
asVprob
p322
I95
ssV2
p323
(dp324
Vcoords
p325
(lp326
I64
aI192
aI144
aI384
asVprob
p327
I97
ssV4
p328
(dp329
Vcoords
p330
(lp331
I256
aI96
aI368
aI416
asVprob
p332
I87
sstp333
a(I1
V2017:08:01 11:52:46
p334
(dp335
V1
p336
(dp337
Vcoords
p338
(lp339
I144
aI160
aI240
aI416
asVprob
p340
I96
sstp341
a(I1
V2017:08:01 11:52:52
p342
(dp343
V1
p344
(dp345
Vcoords
p346
(lp347
I176
aI160
aI256
aI368
asVprob
p348
I98
sstp349
a(I1
V2017:08:01 11:53:04
p350
(dp351
V1
p352
(dp353
Vcoords
p354
(lp355
I80
aI192
aI144
aI352
asVprob
p356
I98
sstp357
a(I2
V2017:08:01 11:53:16
p358
(dp359
V1
p360
(dp361
Vcoords
p362
(lp363
I256
aI176
aI320
aI384
asVprob
p364
I97
ssV2
p365
(dp366
Vcoords
p367
(lp368
I96
aI192
aI160
aI352
asVprob
p369
I95
sstp370
a(I3
V2017:08:01 11:53:58
p371
(dp372
V1
p373
(dp374
Vcoords
p375
(lp376
I336
aI176
aI416
aI400
asVprob
p377
I98
ssV3
p378
(dp379
Vcoords
p380
(lp381
I176
aI176
aI240
aI368
asVprob
p382
I96
ssV2
p383
(dp384
Vcoords
p385
(lp386
I80
aI192
aI144
aI352
asVprob
p387
I97
sstp388
a(I1
V2017:08:01 11:54:54
p389
(dp390
V1
p391
(dp392
Vcoords
p393
(lp394
I80
aI192
aI144
aI352
asVprob
p395
I94
sstp396
a(I2
V2017:08:01 11:55:44
p397
(dp398
V1
p399
(dp400
Vcoords
p401
(lp402
I256
aI144
aI368
aI416
asVprob
p403
I98
ssV2
p404
(dp405
Vcoords
p406
(lp407
I80
aI192
aI144
aI352
asVprob
p408
I98
sstp409
a(I1
V2017:08:01 11:56:06
p410
(dp411
V1
p412
(dp413
Vcoords
p414
(lp415
I80
aI192
aI144
aI352
asVprob
p416
I97
sstp417
a(I1
V2017:08:01 11:57:16
p418
(dp419
V1
p420
(dp421
Vcoords
p422
(lp423
I176
aI208
aI240
aI368
asVprob
p424
I95
sstp425
a(I1
V2017:08:01 11:59:22
p426
(dp427
V1
p428
(dp429
Vcoords
p430
(lp431
I128
aI192
aI192
aI352
asVprob
p432
I96
sstp433
a(I1
V2017:08:01 11:59:26
p434
(dp435
V1
p436
(dp437
Vcoords
p438
(lp439
I112
aI160
aI208
aI432
asVprob
p440
I88
sstp441
a(I1
V2017:08:01 11:59:36
p442
(dp443
V1
p444
(dp445
Vcoords
p446
(lp447
I16
aI160
aI80
aI416
asVprob
p448
I86
sstp449
a(I1
V2017:08:01 11:59:52
p450
(dp451
V1
p452
(dp453
Vcoords
p454
(lp455
I400
aI112
aI560
aI464
asVprob
p456
I98
sstp457
a(I2
V2017:08:01 11:59:58
p458
(dp459
V1
p460
(dp461
Vcoords
p462
(lp463
I240
aI144
aI352
aI432
asVprob
p464
I99
ssV2
p465
(dp466
Vcoords
p467
(lp468
I560
aI208
aI640
aI368
asVprob
p469
I96
sstp470
a(I1
V2017:08:01 12:00:04
p471
(dp472
V1
p473
(dp474
Vcoords
p475
(lp476
I528
aI208
aI592
aI352
asVprob
p477
I97
sstp478
a(I1
V2017:08:01 12:00:28
p479
(dp480
V1
p481
(dp482
Vcoords
p483
(lp484
I560
aI160
aI656
aI384
asVprob
p485
I99
sstp486
a(I1
V2017:08:01 12:00:40
p487
(dp488
V1
p489
(dp490
Vcoords
p491
(lp492
I208
aI160
aI304
aI416
asVprob
p493
I99
sstp494
a(I1
V2017:08:01 12:00:44
p495
(dp496
V1
p497
(dp498
Vcoords
p499
(lp500
I544
aI192
aI640
aI400
asVprob
p501
I95
sstp502
a(I1
V2017:08:01 12:04:00
p503
(dp504
V1
p505
(dp506
Vcoords
p507
(lp508
I256
aI176
aI336
aI384
asVprob
p509
I99
sstp510
a(I1
V2017:08:01 12:04:46
p511
(dp512
V1
p513
(dp514
Vcoords
p515
(lp516
I608
aI208
aI672
aI384
asVprob
p517
I94
sstp518
a(I1
V2017:08:01 12:06:28
p519
(dp520
V1
p521
(dp522
Vcoords
p523
(lp524
I320
aI176
aI384
aI368
asVprob
p525
I97
sstp526
a(I1
V2017:08:01 12:07:00
p527
(dp528
V1
p529
(dp530
Vcoords
p531
(lp532
I192
aI144
aI288
aI384
asVprob
p533
I98
sstp534
a(I1
V2017:08:01 12:08:22
p535
(dp536
V1
p537
(dp538
Vcoords
p539
(lp540
I176
aI112
aI288
aI432
asVprob
p541
I98
sstp542
a(I1
V2017:08:01 12:09:00
p543
(dp544
V2
p545
(dp546
Vcoords
p547
(lp548
I560
aI224
aI624
aI352
asVprob
p549
I92
sstp550
a(I1
V2017:08:01 12:10:08
p551
(dp552
V1
p553
(dp554
Vcoords
p555
(lp556
I272
aI176
aI336
aI368
asVprob
p557
I97
sstp558
a(I1
V2017:08:01 12:10:48
p559
(dp560
V1
p561
(dp562
Vcoords
p563
(lp564
I128
aI128
aI240
aI416
asVprob
p565
I98
sstp566
a(I1
V2017:08:01 12:11:04
p567
(dp568
V1
p569
(dp570
Vcoords
p571
(lp572
I192
aI160
aI272
aI384
asVprob
p573
I98
sstp574
a(I2
V2017:08:01 12:11:20
p575
(dp576
V1
p577
(dp578
Vcoords
p579
(lp580
I272
aI192
aI336
aI352
asVprob
p581
I96
ssV2
p582
(dp583
Vcoords
p584
(lp585
I160
aI176
aI224
aI384
asVprob
p586
I94
sstp587
a(I2
V2017:08:01 12:11:28
p588
(dp589
V1
p590
(dp591
Vcoords
p592
(lp593
I192
aI144
aI288
aI384
asVprob
p594
I97
ssV2
p595
(dp596
Vcoords
p597
(lp598
I96
aI160
aI176
aI384
asVprob
p599
I95
sstp600
a(I1
V2017:08:01 12:11:48
p601
(dp602
V1
p603
(dp604
Vcoords
p605
(lp606
I320
aI128
aI560
aI496
asVprob
p607
I97
sstp608
a(I1
V2017:08:01 12:12:10
p609
(dp610
V1
p611
(dp612
Vcoords
p613
(lp614
I64
aI176
aI160
aI416
asVprob
p615
I89
sstp616
a(I1
V2017:08:01 12:12:34
p617
(dp618
V1
p619
(dp620
Vcoords
p621
(lp622
I320
aI192
aI384
aI352
asVprob
p623
I98
sstp624
a(I1
V2017:08:01 12:13:40
p625
(dp626
V1
p627
(dp628
Vcoords
p629
(lp630
I368
aI192
aI432
aI352
asVprob
p631
I96
sstp632
a(I1
V2017:08:01 12:14:14
p633
(dp634
V1
p635
(dp636
Vcoords
p637
(lp638
I592
aI176
aI672
aI384
asVprob
p639
I98
sstp640
a(I1
V2017:08:01 12:15:12
p641
(dp642
V1
p643
(dp644
Vcoords
p645
(lp646
I320
aI144
aI432
aI416
asVprob
p647
I98
sstp648
a(I2
V2017:08:01 12:15:50
p649
(dp650
V1
p651
(dp652
Vcoords
p653
(lp654
I176
aI48
aI320
aI464
asVprob
p655
I97
ssV2
p656
(dp657
Vcoords
p658
(lp659
I112
aI144
aI192
aI400
asVprob
p660
I95
sstp661
a(I1
V2017:08:01 12:19:04
p662
(dp663
V1
p664
(dp665
Vcoords
p666
(lp667
I336
aI176
aI400
aI352
asVprob
p668
I95
sstp669
a(I1
V2017:08:01 12:21:56
p670
(dp671
V1
p672
(dp673
Vcoords
p674
(lp675
I16
aI64
aI160
aI464
asVprob
p676
I97
sstp677
a(I1
V2017:08:01 12:22:08
p678
(dp679
V1
p680
(dp681
Vcoords
p682
(lp683
I176
aI80
aI352
aI528
asVprob
p684
I99
sstp685
a(I1
V2017:08:01 12:22:46
p686
(dp687
V1
p688
(dp689
Vcoords
p690
(lp691
I272
aI192
aI336
aI384
asVprob
p692
I97
sstp693
a(I1
V2017:08:01 12:23:50
p694
(dp695
V1
p696
(dp697
Vcoords
p698
(lp699
I80
aI128
aI208
aI480
asVprob
p700
I98
sstp701
a(I1
V2017:08:01 12:25:28
p702
(dp703
V1
p704
(dp705
Vcoords
p706
(lp707
I240
aI176
aI320
aI384
asVprob
p708
I96
sstp709
a(I1
V2017:08:01 12:25:56
p710
(dp711
V1
p712
(dp713
Vcoords
p714
(lp715
I192
aI176
aI256
aI368
asVprob
p716
I96
sstp717
a(I2
V2017:08:01 12:26:08
p718
(dp719
V1
p720
(dp721
Vcoords
p722
(lp723
I288
aI192
aI352
aI352
asVprob
p724
I97
ssV2
p725
(dp726
Vcoords
p727
(lp728
I16
aI48
aI144
aI528
asVprob
p729
I96
sstp730
a(I1
V2017:08:01 12:26:16
p731
(dp732
V2
p733
(dp734
Vcoords
p735
(lp736
I0
aI32
aI144
aI576
asVprob
p737
I80
sstp738
a(I2
V2017:08:01 12:26:36
p739
(dp740
V1
p741
(dp742
Vcoords
p743
(lp744
I304
aI96
aI464
aI512
asVprob
p745
I98
ssV2
p746
(dp747
Vcoords
p748
(lp749
I32
aI144
aI144
aI416
asVprob
p750
I93
sstp751
a(I1
V2017:08:01 12:26:42
p752
(dp753
V1
p754
(dp755
Vcoords
p756
(lp757
I48
aI112
aI144
aI448
asVprob
p758
I86
sstp759
a(I1
V2017:08:01 12:27:12
p760
(dp761
V1
p762
(dp763
Vcoords
p764
(lp765
I688
aI192
aI752
aI368
asVprob
p766
I96
sstp767
a(I1
V2017:08:01 12:27:20
p768
(dp769
V2
p770
(dp771
Vcoords
p772
(lp773
I32
aI32
aI208
aI592
asVprob
p774
I92
sstp775
a(I1
V2017:08:01 12:29:08
p776
(dp777
V1
p778
(dp779
Vcoords
p780
(lp781
I48
aI192
aI128
aI384
asVprob
p782
I87
sstp783
a(I1
V2017:08:01 12:30:40
p784
(dp785
V1
p786
(dp787
Vcoords
p788
(lp789
I192
aI160
aI272
aI368
asVprob
p790
I96
sstp791
a(I1
V2017:08:01 12:31:20
p792
(dp793
V1
p794
(dp795
Vcoords
p796
(lp797
I336
aI192
aI400
aI352
asVprob
p798
I92
sstp799
a(I1
V2017:08:01 12:32:28
p800
(dp801
V1
p802
(dp803
Vcoords
p804
(lp805
I368
aI160
aI432
aI368
asVprob
p806
I96
sstp807
a(I1
V2017:08:01 12:34:14
p808
(dp809
V1
p810
(dp811
Vcoords
p812
(lp813
I224
aI80
aI384
aI480
asVprob
p814
I97
sstp815
a(I2
V2017:08:01 12:34:58
p816
(dp817
V1
p818
(dp819
Vcoords
p820
(lp821
I368
aI208
aI432
aI384
asVprob
p822
I98
ssV2
p823
(dp824
Vcoords
p825
(lp826
I272
aI160
aI368
aI400
asVprob
p827
I95
sstp828
a(I1
V2017:08:01 12:36:04
p829
(dp830
V1
p831
(dp832
Vcoords
p833
(lp834
I240
aI144
aI336
aI384
asVprob
p835
I97
sstp836
a(I3
V2017:08:01 12:36:30
p837
(dp838
V1
p839
(dp840
Vcoords
p841
(lp842
I352
aI112
aI448
aI432
asVprob
p843
I96
ssV3
p844
(dp845
Vcoords
p846
(lp847
I192
aI176
aI256
aI400
asVprob
p848
I95
ssV2
p849
(dp850
Vcoords
p851
(lp852
I288
aI160
aI368
aI400
asVprob
p853
I96
sstp854
a(I1
V2017:08:01 12:36:38
p855
(dp856
V1
p857
(dp858
Vcoords
p859
(lp860
I496
aI192
aI576
aI368
asVprob
p861
I93
sstp862
a(I1
V2017:08:01 12:36:46
p863
(dp864
V1
p865
(dp866
Vcoords
p867
(lp868
I0
aI16
aI240
aI592
asVprob
p869
I99
sstp870
a(I1
V2017:08:01 12:37:26
p871
(dp872
V1
p873
(dp874
Vcoords
p875
(lp876
I16
aI192
aI80
aI368
asVprob
p877
I95
sstp878
a(I1
V2017:08:01 12:37:30
p879
(dp880
V1
p881
(dp882
Vcoords
p883
(lp884
I64
aI176
aI128
aI368
asVprob
p885
I96
sstp886
a(I2
V2017:08:01 12:37:54
p887
(dp888
V1
p889
(dp890
Vcoords
p891
(lp892
I144
aI176
aI224
aI368
asVprob
p893
I98
ssV2
p894
(dp895
Vcoords
p896
(lp897
I240
aI192
aI304
aI352
asVprob
p898
I98
sstp899
a(I1
V2017:08:01 12:39:00
p900
(dp901
V1
p902
(dp903
Vcoords
p904
(lp905
I240
aI192
aI304
aI352
asVprob
p906
I97
sstp907
a(I1
V2017:08:01 12:39:32
p908
(dp909
V1
p910
(dp911
Vcoords
p912
(lp913
I80
aI192
aI144
aI352
asVprob
p914
I93
sstp915
a(I1
V2017:08:01 12:39:38
p916
(dp917
V1
p918
(dp919
Vcoords
p920
(lp921
I80
aI192
aI144
aI352
asVprob
p922
I96
sstp923
a(I1
V2017:08:01 12:41:08
p924
(dp925
V1
p926
(dp927
Vcoords
p928
(lp929
I64
aI96
aI208
aI448
asVprob
p930
I98
sstp931
a(I1
V2017:08:01 12:41:50
p932
(dp933
V1
p934
(dp935
Vcoords
p936
(lp937
I272
aI64
aI432
aI560
asVprob
p938
I98
sstp939
a(I1
V2017:08:01 12:43:12
p940
(dp941
V1
p942
(dp943
Vcoords
p944
(lp945
I192
aI128
aI288
aI432
asVprob
p946
I99
sstp947
a(I1
V2017:08:01 12:44:04
p948
(dp949
V1
p950
(dp951
Vcoords
p952
(lp953
I272
aI176
aI336
aI368
asVprob
p954
I96
sstp955
a(I2
V2017:08:01 12:44:14
p956
(dp957
V1
p958
(dp959
Vcoords
p960
(lp961
I128
aI160
aI208
aI384
asVprob
p962
I95
ssV2
p963
(dp964
Vcoords
p965
(lp966
I208
aI96
aI304
aI480
asVprob
p967
I94
sstp968
a(I1
V2017:08:01 12:44:54
p969
(dp970
V1
p971
(dp972
Vcoords
p973
(lp974
I320
aI160
aI400
aI384
asVprob
p975
I99
sstp976
a(I1
V2017:08:01 12:45:10
p977
(dp978
V1
p979
(dp980
Vcoords
p981
(lp982
I224
aI160
aI304
aI368
asVprob
p983
I94
sstp984
a(I1
V2017:08:01 12:46:10
p985
(dp986
V1
p987
(dp988
Vcoords
p989
(lp990
I432
aI128
aI528
aI432
asVprob
p991
I97
sstp992
a(I1
V2017:08:01 12:46:20
p993
(dp994
V1
p995
(dp996
Vcoords
p997
(lp998
I64
aI144
aI160
aI432
asVprob
p999
I97
sstp1000
a(I1
V2017:08:01 12:46:24
p1001
(dp1002
V1
p1003
(dp1004
Vcoords
p1005
(lp1006
I320
aI192
aI384
aI352
asVprob
p1007
I94
sstp1008
a(I1
V2017:08:01 12:48:02
p1009
(dp1010
V1
p1011
(dp1012
Vcoords
p1013
(lp1014
I336
aI176
aI400
aI352
asVprob
p1015
I97
sstp1016
a(I1
V2017:08:01 12:48:22
p1017
(dp1018
V1
p1019
(dp1020
Vcoords
p1021
(lp1022
I272
aI176
aI336
aI352
asVprob
p1023
I98
sstp1024
a(I1
V2017:08:01 12:48:58
p1025
(dp1026
V1
p1027
(dp1028
Vcoords
p1029
(lp1030
I112
aI208
aI176
aI368
asVprob
p1031
I94
sstp1032
a(I1
V2017:08:01 12:49:24
p1033
(dp1034
V1
p1035
(dp1036
Vcoords
p1037
(lp1038
I80
aI192
aI144
aI400
asVprob
p1039
I95
sstp1040
a(I1
V2017:08:01 12:49:36
p1041
(dp1042
V1
p1043
(dp1044
Vcoords
p1045
(lp1046
I320
aI176
aI400
aI368
asVprob
p1047
I94
sstp1048
a(I1
V2017:08:01 12:49:58
p1049
(dp1050
V1
p1051
(dp1052
Vcoords
p1053
(lp1054
I240
aI128
aI352
aI416
asVprob
p1055
I98
sstp1056
a(I1
V2017:08:01 12:50:04
p1057
(dp1058
V1
p1059
(dp1060
Vcoords
p1061
(lp1062
I160
aI224
aI224
aI400
asVprob
p1063
I94
sstp1064
a(I1
V2017:08:01 12:50:08
p1065
(dp1066
V1
p1067
(dp1068
Vcoords
p1069
(lp1070
I160
aI224
aI224
aI400
asVprob
p1071
I95
sstp1072
a(I1
V2017:08:01 12:50:16
p1073
(dp1074
V1
p1075
(dp1076
Vcoords
p1077
(lp1078
I112
aI192
aI176
aI368
asVprob
p1079
I91
sstp1080
a(I1
V2017:08:01 12:50:30
p1081
(dp1082
V1
p1083
(dp1084
Vcoords
p1085
(lp1086
I32
aI160
aI128
aI416
asVprob
p1087
I97
sstp1088
a(I1
V2017:08:01 12:50:42
p1089
(dp1090
V1
p1091
(dp1092
Vcoords
p1093
(lp1094
I48
aI160
aI144
aI416
asVprob
p1095
I97
sstp1096
a(I1
V2017:08:01 12:50:54
p1097
(dp1098
V1
p1099
(dp1100
Vcoords
p1101
(lp1102
I16
aI192
aI80
aI400
asVprob
p1103
I94
sstp1104
a(I1
V2017:08:01 12:51:44
p1105
(dp1106
V1
p1107
(dp1108
Vcoords
p1109
(lp1110
I16
aI80
aI144
aI448
asVprob
p1111
I98
sstp1112
a(I1
V2017:08:01 12:53:02
p1113
(dp1114
V1
p1115
(dp1116
Vcoords
p1117
(lp1118
I112
aI192
aI176
aI352
asVprob
p1119
I96
sstp1120
a(I1
V2017:08:01 12:53:08
p1121
(dp1122
V1
p1123
(dp1124
Vcoords
p1125
(lp1126
I112
aI176
aI176
aI384
asVprob
p1127
I96
sstp1128
a(I1
V2017:08:01 12:53:18
p1129
(dp1130
V1
p1131
(dp1132
Vcoords
p1133
(lp1134
I192
aI176
aI256
aI368
asVprob
p1135
I93
sstp1136
a(I2
V2017:08:01 12:53:32
p1137
(dp1138
V1
p1139
(dp1140
Vcoords
p1141
(lp1142
I144
aI144
aI240
aI416
asVprob
p1143
I99
ssV2
p1144
(dp1145
Vcoords
p1146
(lp1147
I288
aI176
aI368
aI368
asVprob
p1148
I96
sstp1149
a(I1
V2017:08:01 12:53:48
p1150
(dp1151
V1
p1152
(dp1153
Vcoords
p1154
(lp1155
I48
aI176
aI128
aI400
asVprob
p1156
I89
sstp1157
a(I1
V2017:08:01 12:54:12
p1158
(dp1159
V1
p1160
(dp1161
Vcoords
p1162
(lp1163
I176
aI80
aI304
aI448
asVprob
p1164
I99
sstp1165
a(I2
V2017:08:01 12:55:00
p1166
(dp1167
V1
p1168
(dp1169
Vcoords
p1170
(lp1171
I304
aI144
aI400
aI400
asVprob
p1172
I99
ssV2
p1173
(dp1174
Vcoords
p1175
(lp1176
I192
aI176
aI272
aI384
asVprob
p1177
I98
sstp1178
a(I1
V2017:08:01 12:55:20
p1179
(dp1180
V1
p1181
(dp1182
Vcoords
p1183
(lp1184
I176
aI144
aI272
aI432
asVprob
p1185
I98
sstp1186
a(I1
V2017:08:01 12:55:42
p1187
(dp1188
V1
p1189
(dp1190
Vcoords
p1191
(lp1192
I640
aI208
aI704
aI352
asVprob
p1193
I93
sstp1194
a(I1
V2017:08:01 12:56:30
p1195
(dp1196
V1
p1197
(dp1198
Vcoords
p1199
(lp1200
I192
aI80
aI320
aI480
asVprob
p1201
I98
sstp1202
a(I1
V2017:08:01 12:58:20
p1203
(dp1204
V1
p1205
(dp1206
Vcoords
p1207
(lp1208
I128
aI192
aI192
aI384
asVprob
p1209
I94
sstp1210
a(I1
V2017:08:01 12:59:52
p1211
(dp1212
V1
p1213
(dp1214
Vcoords
p1215
(lp1216
I304
aI160
aI384
aI352
asVprob
p1217
I95
sstp1218
a(I1
V2017:08:01 13:03:38
p1219
(dp1220
V1
p1221
(dp1222
Vcoords
p1223
(lp1224
I96
aI176
aI160
aI368
asVprob
p1225
I89
sstp1226
a(I4
V2017:08:01 13:03:46
p1227
(dp1228
V1
p1229
(dp1230
Vcoords
p1231
(lp1232
I352
aI96
aI464
aI432
asVprob
p1233
I99
ssV3
p1234
(dp1235
Vcoords
p1236
(lp1237
I720
aI176
aI784
aI384
asVprob
p1238
I97
ssV2
p1239
(dp1240
Vcoords
p1241
(lp1242
I544
aI160
aI608
aI352
asVprob
p1243
I98
ssV4
p1244
(dp1245
Vcoords
p1246
(lp1247
I48
aI32
aI224
aI592
asVprob
p1248
I90
sstp1249
a(I1
V2017:08:01 13:04:20
p1250
(dp1251
V2
p1252
(dp1253
Vcoords
p1254
(lp1255
I16
aI32
aI192
aI608
asVprob
p1256
I89
sstp1257
a(I1
V2017:08:01 13:06:42
p1258
(dp1259
V1
p1260
(dp1261
Vcoords
p1262
(lp1263
I0
aI144
aI112
aI448
asVprob
p1264
I97
sstp1265
a(I1
V2017:08:01 13:07:24
p1266
(dp1267
V2
p1268
(dp1269
Vcoords
p1270
(lp1271
I704
aI192
aI768
aI384
asVprob
p1272
I96
sstp1273
a(I1
V2017:08:01 13:07:34
p1274
(dp1275
V1
p1276
(dp1277
Vcoords
p1278
(lp1279
I352
aI96
aI512
aI432
asVprob
p1280
I99
sstp1281
a(I1
V2017:08:01 13:08:02
p1282
(dp1283
V1
p1284
(dp1285
Vcoords
p1286
(lp1287
I-16
aI48
aI144
aI560
asVprob
p1288
I95
sstp1289
a(I1
V2017:08:01 13:09:04
p1290
(dp1291
V1
p1292
(dp1293
Vcoords
p1294
(lp1295
I64
aI208
aI128
aI368
asVprob
p1296
I95
sstp1297
a(I1
V2017:08:01 13:09:18
p1298
(dp1299
V2
p1300
(dp1301
Vcoords
p1302
(lp1303
I736
aI160
aI800
aI416
asVprob
p1304
I91
sstp1305
a(I1
V2017:08:01 13:10:36
p1306
(dp1307
V1
p1308
(dp1309
Vcoords
p1310
(lp1311
I688
aI160
aI768
aI416
asVprob
p1312
I96
sstp1313
a(I1
V2017:08:01 13:11:06
p1314
(dp1315
V1
p1316
(dp1317
Vcoords
p1318
(lp1319
I208
aI32
aI400
aI480
asVprob
p1320
I92
sstp1321
a(I1
V2017:08:01 13:13:34
p1322
(dp1323
V1
p1324
(dp1325
Vcoords
p1326
(lp1327
I64
aI176
aI144
aI384
asVprob
p1328
I97
sstp1329
a(I2
V2017:08:01 13:14:10
p1330
(dp1331
V1
p1332
(dp1333
Vcoords
p1334
(lp1335
I96
aI128
aI224
aI448
asVprob
p1336
I98
ssV2
p1337
(dp1338
Vcoords
p1339
(lp1340
I208
aI144
aI304
aI416
asVprob
p1341
I98
sstp1342
a(I1
V2017:08:01 13:16:30
p1343
(dp1344
V1
p1345
(dp1346
Vcoords
p1347
(lp1348
I64
aI80
aI192
aI448
asVprob
p1349
I97
sstp1350
a(I1
V2017:08:01 13:17:00
p1351
(dp1352
V1
p1353
(dp1354
Vcoords
p1355
(lp1356
I640
aI192
aI736
aI432
asVprob
p1357
I98
sstp1358
a(I1
V2017:08:01 13:18:08
p1359
(dp1360
V1
p1361
(dp1362
Vcoords
p1363
(lp1364
I256
aI224
aI320
aI400
asVprob
p1365
I89
sstp1366
a(I1
V2017:08:01 13:18:28
p1367
(dp1368
V1
p1369
(dp1370
Vcoords
p1371
(lp1372
I288
aI176
aI384
aI416
asVprob
p1373
I98
sstp1374
a(I2
V2017:08:01 13:18:38
p1375
(dp1376
V1
p1377
(dp1378
Vcoords
p1379
(lp1380
I224
aI176
aI320
aI416
asVprob
p1381
I98
ssV2
p1382
(dp1383
Vcoords
p1384
(lp1385
I304
aI192
aI384
aI416
asVprob
p1386
I97
sstp1387
a(I1
V2017:08:01 13:20:32
p1388
(dp1389
V1
p1390
(dp1391
Vcoords
p1392
(lp1393
I160
aI192
aI256
aI432
asVprob
p1394
I95
sstp1395
a(I2
V2017:08:01 13:20:42
p1396
(dp1397
V1
p1398
(dp1399
Vcoords
p1400
(lp1401
I176
aI32
aI400
aI608
asVprob
p1402
I99
ssV2
p1403
(dp1404
Vcoords
p1405
(lp1406
I0
aI48
aI176
aI608
asVprob
p1407
I97
sstp1408
a(I1
V2017:08:01 13:21:20
p1409
(dp1410
V1
p1411
(dp1412
Vcoords
p1413
(lp1414
I304
aI176
aI400
aI448
asVprob
p1415
I94
sstp1416
a(I1
V2017:08:01 13:21:56
p1417
(dp1418
V1
p1419
(dp1420
Vcoords
p1421
(lp1422
I368
aI240
aI432
aI400
asVprob
p1423
I97
sstp1424
a(I1
V2017:08:01 13:23:36
p1425
(dp1426
V1
p1427
(dp1428
Vcoords
p1429
(lp1430
I416
aI208
aI480
aI368
asVprob
p1431
I95
sstp1432
a(I2
V2017:08:01 13:23:54
p1433
(dp1434
V1
p1435
(dp1436
Vcoords
p1437
(lp1438
I272
aI176
aI368
aI464
asVprob
p1439
I95
ssV2
p1440
(dp1441
Vcoords
p1442
(lp1443
I208
aI176
aI288
aI432
asVprob
p1444
I93
sstp1445
a(I2
V2017:08:01 13:23:58
p1446
(dp1447
V1
p1448
(dp1449
Vcoords
p1450
(lp1451
I320
aI192
aI384
aI416
asVprob
p1452
I98
ssV2
p1453
(dp1454
Vcoords
p1455
(lp1456
I384
aI208
aI464
aI432
asVprob
p1457
I95
sstp1458
a(I1
V2017:08:01 13:24:02
p1459
(dp1460
V1
p1461
(dp1462
Vcoords
p1463
(lp1464
I144
aI208
aI224
aI432
asVprob
p1465
I94
sstp1466
a(I1
V2017:08:01 13:25:46
p1467
(dp1468
V1
p1469
(dp1470
Vcoords
p1471
(lp1472
I224
aI208
aI304
aI416
asVprob
p1473
I91
sstp1474
a(I1
V2017:08:01 13:26:02
p1475
(dp1476
V1
p1477
(dp1478
Vcoords
p1479
(lp1480
I304
aI144
aI416
aI448
asVprob
p1481
I97
sstp1482
a(I1
V2017:08:01 13:27:04
p1483
(dp1484
V1
p1485
(dp1486
Vcoords
p1487
(lp1488
I368
aI160
aI480
aI464
asVprob
p1489
I99
sstp1490
a(I1
V2017:08:01 13:28:14
p1491
(dp1492
V1
p1493
(dp1494
Vcoords
p1495
(lp1496
I304
aI208
aI384
aI416
asVprob
p1497
I94
sstp1498
a(I1
V2017:08:01 13:30:04
p1499
(dp1500
V1
p1501
(dp1502
Vcoords
p1503
(lp1504
I272
aI192
aI384
aI448
asVprob
p1505
I98
sstp1506
a(I5
V2017:08:01 13:30:38
p1507
(dp1508
V1
p1509
(dp1510
Vcoords
p1511
(lp1512
I240
aI192
aI304
aI432
asVprob
p1513
I99
ssV3
p1514
(dp1515
Vcoords
p1516
(lp1517
I304
aI176
aI400
aI448
asVprob
p1518
I95
ssV2
p1519
(dp1520
Vcoords
p1521
(lp1522
I96
aI80
aI272
aI592
asVprob
p1523
I96
ssV5
p1524
(dp1525
Vcoords
p1526
(lp1527
I368
aI208
aI432
aI400
asVprob
p1528
I85
ssV4
p1529
(dp1530
Vcoords
p1531
(lp1532
I432
aI208
aI496
aI400
asVprob
p1533
I94
sstp1534
a(I1
V2017:08:01 13:31:14
p1535
(dp1536
V1
p1537
(dp1538
Vcoords
p1539
(lp1540
I352
aI192
aI448
aI432
asVprob
p1541
I98
sstp1542
a(I2
V2017:08:01 13:34:34
p1543
(dp1544
V1
p1545
(dp1546
Vcoords
p1547
(lp1548
I304
aI208
aI368
aI384
asVprob
p1549
I97
ssV4
p1550
(dp1551
Vcoords
p1552
(lp1553
I368
aI208
aI448
aI416
asVprob
p1554
I87
sstp1555
a(I1
V2017:08:01 13:35:00
p1556
(dp1557
V1
p1558
(dp1559
Vcoords
p1560
(lp1561
I128
aI160
aI240
aI448
asVprob
p1562
I99
sstp1563
a(I2
V2017:08:01 13:36:04
p1564
(dp1565
V1
p1566
(dp1567
Vcoords
p1568
(lp1569
I320
aI192
aI416
aI432
asVprob
p1570
I99
ssV2
p1571
(dp1572
Vcoords
p1573
(lp1574
I208
aI208
aI288
aI432
asVprob
p1575
I98
sstp1576
a(I1
V2017:08:01 13:36:24
p1577
(dp1578
V1
p1579
(dp1580
Vcoords
p1581
(lp1582
I128
aI112
aI256
aI480
asVprob
p1583
I97
sstp1584
a(I1
V2017:08:01 13:37:24
p1585
(dp1586
V1
p1587
(dp1588
Vcoords
p1589
(lp1590
I192
aI192
aI272
aI432
asVprob
p1591
I95
sstp1592
a(I1
V2017:08:01 13:37:54
p1593
(dp1594
V1
p1595
(dp1596
Vcoords
p1597
(lp1598
I416
aI208
aI480
aI384
asVprob
p1599
I98
sstp1600
a(I1
V2017:08:01 13:39:22
p1601
(dp1602
V1
p1603
(dp1604
Vcoords
p1605
(lp1606
I384
aI224
aI448
aI384
asVprob
p1607
I96
sstp1608
a(I2
V2017:08:01 13:40:09
p1609
(dp1610
V1
p1611
(dp1612
Vcoords
p1613
(lp1614
I80
aI224
aI144
aI416
asVprob
p1615
I96
ssV2
p1616
(dp1617
Vcoords
p1618
(lp1619
I192
aI208
aI256
aI384
asVprob
p1620
I95
sstp1621
a(I1
V2017:08:01 13:40:18
p1622
(dp1623
V1
p1624
(dp1625
Vcoords
p1626
(lp1627
I96
aI-16
aI304
aI608
asVprob
p1628
I97
sstp1629
a(I1
V2017:08:01 13:41:20
p1630
(dp1631
V2
p1632
(dp1633
Vcoords
p1634
(lp1635
I16
aI32
aI208
aI560
asVprob
p1636
I80
sstp1637
a(I1
V2017:08:01 13:42:24
p1638
(dp1639
V1
p1640
(dp1641
Vcoords
p1642
(lp1643
I304
aI160
aI432
aI480
asVprob
p1644
I98
sstp1645
a(I2
V2017:08:01 13:42:56
p1646
(dp1647
V1
p1648
(dp1649
Vcoords
p1650
(lp1651
I176
aI128
aI320
aI528
asVprob
p1652
I99
ssV2
p1653
(dp1654
Vcoords
p1655
(lp1656
I64
aI112
aI208
aI512
asVprob
p1657
I95
sstp1658
a(I1
V2017:08:01 13:45:04
p1659
(dp1660
V1
p1661
(dp1662
Vcoords
p1663
(lp1664
I256
aI224
aI320
aI400
asVprob
p1665
I97
sstp1666
a(I2
V2017:08:01 13:46:54
p1667
(dp1668
V1
p1669
(dp1670
Vcoords
p1671
(lp1672
I16
aI208
aI96
aI400
asVprob
p1673
I97
ssV2
p1674
(dp1675
Vcoords
p1676
(lp1677
I96
aI224
aI160
aI400
asVprob
p1678
I87
sstp1679
a(I1
V2017:08:01 13:50:06
p1680
(dp1681
V1
p1682
(dp1683
Vcoords
p1684
(lp1685
I400
aI224
aI464
aI384
asVprob
p1686
I93
sstp1687
a(I2
V2017:08:01 13:50:57
p1688
(dp1689
V1
p1690
(dp1691
Vcoords
p1692
(lp1693
I384
aI176
aI480
aI464
asVprob
p1694
I97
ssV2
p1695
(dp1696
Vcoords
p1697
(lp1698
I560
aI208
aI672
aI448
asVprob
p1699
I96
sstp1700
a(I3
V2017:08:01 13:51:06
p1701
(dp1702
V1
p1703
(dp1704
Vcoords
p1705
(lp1706
I608
aI96
aI768
aI560
asVprob
p1707
I97
ssV3
p1708
(dp1709
Vcoords
p1710
(lp1711
I256
aI224
aI320
aI416
asVprob
p1712
I96
ssV2
p1713
(dp1714
Vcoords
p1715
(lp1716
I336
aI240
aI400
aI416
asVprob
p1717
I96
sstp1718
a(I1
V2017:08:01 13:51:20
p1719
(dp1720
V1
p1721
(dp1722
Vcoords
p1723
(lp1724
I320
aI240
aI384
aI384
asVprob
p1725
I97
sstp1726
a(I1
V2017:08:01 13:51:26
p1727
(dp1728
V2
p1729
(dp1730
Vcoords
p1731
(lp1732
I288
aI240
aI352
aI384
asVprob
p1733
I89
sstp1734
a(I2
V2017:08:01 13:52:28
p1735
(dp1736
V1
p1737
(dp1738
Vcoords
p1739
(lp1740
I176
aI208
aI256
aI416
asVprob
p1741
I99
ssV2
p1742
(dp1743
Vcoords
p1744
(lp1745
I416
aI240
aI480
aI416
asVprob
p1746
I95
sstp1747
a(I1
V2017:08:01 13:52:36
p1748
(dp1749
V1
p1750
(dp1751
Vcoords
p1752
(lp1753
I144
aI192
aI240
aI448
asVprob
p1754
I98
sstp1755
a(I1
V2017:08:01 13:53:48
p1756
(dp1757
V2
p1758
(dp1759
Vcoords
p1760
(lp1761
I16
aI112
aI144
aI592
asVprob
p1762
I97
sstp1763
a(I2
V2017:08:01 13:53:58
p1764
(dp1765
V2
p1766
(dp1767
Vcoords
p1768
(lp1769
I240
aI240
aI304
aI400
asVprob
p1770
I96
ssV5
p1771
(dp1772
Vcoords
p1773
(lp1774
I256
aI256
aI320
aI416
asVprob
p1775
I80
sstp1776
a(I1
V2017:08:01 13:58:50
p1777
(dp1778
V1
p1779
(dp1780
Vcoords
p1781
(lp1782
I208
aI176
aI272
aI384
asVprob
p1783
I95
sstp1784
a(I1
V2017:08:01 13:59:00
p1785
(dp1786
V1
p1787
(dp1788
Vcoords
p1789
(lp1790
I320
aI192
aI384
aI368
asVprob
p1791
I97
sstp1792
a(I1
V2017:08:01 14:00:42
p1793
(dp1794
V1
p1795
(dp1796
Vcoords
p1797
(lp1798
I336
aI176
aI416
aI368
asVprob
p1799
I95
sstp1800
a(I1
V2017:08:01 14:06:12
p1801
(dp1802
V1
p1803
(dp1804
Vcoords
p1805
(lp1806
I272
aI176
aI336
aI368
asVprob
p1807
I98
sstp1808
a(I1
V2017:08:01 14:06:52
p1809
(dp1810
V1
p1811
(dp1812
Vcoords
p1813
(lp1814
I256
aI144
aI336
aI384
asVprob
p1815
I96
sstp1816
a(I1
V2017:08:01 14:07:16
p1817
(dp1818
V1
p1819
(dp1820
Vcoords
p1821
(lp1822
I272
aI160
aI352
aI416
asVprob
p1823
I98
sstp1824
a(I2
V2017:08:01 14:10:20
p1825
(dp1826
V1
p1827
(dp1828
Vcoords
p1829
(lp1830
I224
aI176
aI288
aI384
asVprob
p1831
I97
ssV2
p1832
(dp1833
Vcoords
p1834
(lp1835
I304
aI64
aI432
aI464
asVprob
p1836
I97
sstp1837
a(I1
V2017:08:01 14:11:42
p1838
(dp1839
V2
p1840
(dp1841
Vcoords
p1842
(lp1843
I0
aI80
aI112
aI528
asVprob
p1844
I88
sstp1845
a(I1
V2017:08:01 14:11:50
p1846
(dp1847
V1
p1848
(dp1849
Vcoords
p1850
(lp1851
I16
aI32
aI160
aI608
asVprob
p1852
I94
sstp1853
a(I1
V2017:08:01 14:12:12
p1854
(dp1855
V1
p1856
(dp1857
Vcoords
p1858
(lp1859
I320
aI176
aI384
aI368
asVprob
p1860
I89
sstp1861
a(I1
V2017:08:01 14:12:40
p1862
(dp1863
V1
p1864
(dp1865
Vcoords
p1866
(lp1867
I176
aI144
aI288
aI480
asVprob
p1868
I99
sstp1869
a(I1
V2017:08:01 14:14:14
p1870
(dp1871
V1
p1872
(dp1873
Vcoords
p1874
(lp1875
I192
aI208
aI256
aI368
asVprob
p1876
I95
sstp1877
a(I1
V2017:08:01 14:14:40
p1878
(dp1879
V1
p1880
(dp1881
Vcoords
p1882
(lp1883
I176
aI192
aI240
aI368
asVprob
p1884
I96
sstp1885
a(I1
V2017:08:01 14:14:52
p1886
(dp1887
V1
p1888
(dp1889
Vcoords
p1890
(lp1891
I128
aI96
aI272
aI496
asVprob
p1892
I95
sstp1893
a(I1
V2017:08:01 14:14:56
p1894
(dp1895
V2
p1896
(dp1897
Vcoords
p1898
(lp1899
I176
aI192
aI240
aI368
asVprob
p1900
I94
sstp1901
a(I1
V2017:08:01 14:15:02
p1902
(dp1903
V1
p1904
(dp1905
Vcoords
p1906
(lp1907
I176
aI192
aI240
aI368
asVprob
p1908
I91
sstp1909
a(I1
V2017:08:01 14:15:08
p1910
(dp1911
V1
p1912
(dp1913
Vcoords
p1914
(lp1915
I176
aI192
aI240
aI368
asVprob
p1916
I93
sstp1917
a(I1
V2017:08:01 14:15:16
p1918
(dp1919
V2
p1920
(dp1921
Vcoords
p1922
(lp1923
I176
aI192
aI240
aI352
asVprob
p1924
I91
sstp1925
a(I1
V2017:08:01 14:15:20
p1926
(dp1927
V1
p1928
(dp1929
Vcoords
p1930
(lp1931
I176
aI192
aI240
aI352
asVprob
p1932
I98
sstp1933
a(I1
V2017:08:01 14:15:26
p1934
(dp1935
V1
p1936
(dp1937
Vcoords
p1938
(lp1939
I176
aI208
aI240
aI368
asVprob
p1940
I93
sstp1941
a(I1
V2017:08:01 14:15:34
p1942
(dp1943
V1
p1944
(dp1945
Vcoords
p1946
(lp1947
I176
aI192
aI240
aI368
asVprob
p1948
I94
sstp1949
a(I1
V2017:08:01 14:15:42
p1950
(dp1951
V1
p1952
(dp1953
Vcoords
p1954
(lp1955
I176
aI192
aI240
aI352
asVprob
p1956
I96
sstp1957
a(I1
V2017:08:01 14:15:46
p1958
(dp1959
V1
p1960
(dp1961
Vcoords
p1962
(lp1963
I176
aI192
aI240
aI352
asVprob
p1964
I97
sstp1965
a(I1
V2017:08:01 14:16:02
p1966
(dp1967
V1
p1968
(dp1969
Vcoords
p1970
(lp1971
I176
aI192
aI240
aI352
asVprob
p1972
I94
sstp1973
a(I1
V2017:08:01 14:16:12
p1974
(dp1975
V1
p1976
(dp1977
Vcoords
p1978
(lp1979
I176
aI192
aI240
aI368
asVprob
p1980
I97
sstp1981
a(I1
V2017:08:01 14:16:46
p1982
(dp1983
V1
p1984
(dp1985
Vcoords
p1986
(lp1987
I288
aI176
aI352
aI336
asVprob
p1988
I94
sstp1989
a(I1
V2017:08:01 14:17:52
p1990
(dp1991
V1
p1992
(dp1993
Vcoords
p1994
(lp1995
I240
aI160
aI304
aI384
asVprob
p1996
I95
sstp1997
a(I1
V2017:08:01 14:18:54
p1998
(dp1999
V2
p2000
(dp2001
Vcoords
p2002
(lp2003
I288
aI176
aI352
aI368
asVprob
p2004
I90
sstp2005
a(I3
V2017:08:01 14:19:01
p2006
(dp2007
V1
p2008
(dp2009
Vcoords
p2010
(lp2011
I240
aI176
aI304
aI400
asVprob
p2012
I98
ssV3
p2013
(dp2014
Vcoords
p2015
(lp2016
I368
aI160
aI432
aI384
asVprob
p2017
I93
ssV4
p2018
(dp2019
Vcoords
p2020
(lp2021
I336
aI176
aI416
aI400
asVprob
p2022
I85
sstp2023
a(I1
V2017:08:01 14:19:26
p2024
(dp2025
V1
p2026
(dp2027
Vcoords
p2028
(lp2029
I304
aI128
aI400
aI400
asVprob
p2030
I99
sstp2031
a(I2
V2017:08:01 14:21:12
p2032
(dp2033
V1
p2034
(dp2035
Vcoords
p2036
(lp2037
I432
aI128
aI544
aI448
asVprob
p2038
I98
ssV2
p2039
(dp2040
Vcoords
p2041
(lp2042
I272
aI160
aI368
aI432
asVprob
p2043
I97
sstp2044
a(I1
V2017:08:01 14:22:52
p2045
(dp2046
V1
p2047
(dp2048
Vcoords
p2049
(lp2050
I240
aI144
aI352
aI416
asVprob
p2051
I93
sstp2052
a(I1
V2017:08:01 14:23:00
p2053
(dp2054
V1
p2055
(dp2056
Vcoords
p2057
(lp2058
I320
aI128
aI416
aI400
asVprob
p2059
I97
sstp2060
a(I1
V2017:08:01 14:24:46
p2061
(dp2062
V1
p2063
(dp2064
Vcoords
p2065
(lp2066
I320
aI128
aI432
aI448
asVprob
p2067
I99
sstp2068
a(I1
V2017:08:01 14:24:50
p2069
(dp2070
V1
p2071
(dp2072
Vcoords
p2073
(lp2074
I64
aI144
aI176
aI448
asVprob
p2075
I98
sstp2076
a(I1
V2017:08:01 14:25:26
p2077
(dp2078
V1
p2079
(dp2080
Vcoords
p2081
(lp2082
I304
aI128
aI416
aI416
asVprob
p2083
I99
sstp2084
a(I1
V2017:08:01 14:28:56
p2085
(dp2086
V1
p2087
(dp2088
Vcoords
p2089
(lp2090
I144
aI128
aI272
aI464
asVprob
p2091
I98
sstp2092
a(I1
V2017:08:01 14:29:50
p2093
(dp2094
V1
p2095
(dp2096
Vcoords
p2097
(lp2098
I304
aI128
aI416
aI416
asVprob
p2099
I98
sstp2100
a(I1
V2017:08:01 14:30:34
p2101
(dp2102
V1
p2103
(dp2104
Vcoords
p2105
(lp2106
I560
aI128
aI688
aI448
asVprob
p2107
I97
sstp2108
a(I1
V2017:08:01 14:30:42
p2109
(dp2110
V1
p2111
(dp2112
Vcoords
p2113
(lp2114
I336
aI192
aI400
aI352
asVprob
p2115
I96
sstp2116
a(I1
V2017:08:01 14:34:16
p2117
(dp2118
V1
p2119
(dp2120
Vcoords
p2121
(lp2122
I304
aI144
aI400
aI400
asVprob
p2123
I98
sstp2124
a(I1
V2017:08:01 14:36:01
p2125
(dp2126
V1
p2127
(dp2128
Vcoords
p2129
(lp2130
I272
aI128
aI368
aI416
asVprob
p2131
I96
sstp2132
a(I2
V2017:08:01 14:38:36
p2133
(dp2134
V1
p2135
(dp2136
Vcoords
p2137
(lp2138
I272
aI160
aI352
aI384
asVprob
p2139
I98
ssV2
p2140
(dp2141
Vcoords
p2142
(lp2143
I208
aI160
aI272
aI368
asVprob
p2144
I97
sstp2145
a(I1
V2017:08:01 14:38:50
p2146
(dp2147
V2
p2148
(dp2149
Vcoords
p2150
(lp2151
I112
aI112
aI224
aI480
asVprob
p2152
I95
sstp2153
a(I1
V2017:08:01 14:41:14
p2154
(dp2155
V1
p2156
(dp2157
Vcoords
p2158
(lp2159
I160
aI96
aI304
aI464
asVprob
p2160
I98
sstp2161
a(I1
V2017:08:01 14:41:20
p2162
(dp2163
V1
p2164
(dp2165
Vcoords
p2166
(lp2167
I0
aI96
aI128
aI432
asVprob
p2168
I90
sstp2169
a(I2
V2017:08:01 14:47:12
p2170
(dp2171
V1
p2172
(dp2173
Vcoords
p2174
(lp2175
I416
aI176
aI480
aI384
asVprob
p2176
I96
ssV2
p2177
(dp2178
Vcoords
p2179
(lp2180
I336
aI144
aI416
aI400
asVprob
p2181
I95
sstp2182
a(I1
V2017:08:01 14:47:18
p2183
(dp2184
V1
p2185
(dp2186
Vcoords
p2187
(lp2188
I272
aI176
aI352
aI384
asVprob
p2189
I96
sstp2190
a(I2
V2017:08:01 14:47:26
p2191
(dp2192
V1
p2193
(dp2194
Vcoords
p2195
(lp2196
I608
aI144
aI720
aI400
asVprob
p2197
I99
ssV2
p2198
(dp2199
Vcoords
p2200
(lp2201
I304
aI-32
aI528
aI576
asVprob
p2202
I98
sstp2203
a(I1
V2017:08:01 14:47:34
p2204
(dp2205
V2
p2206
(dp2207
Vcoords
p2208
(lp2209
I304
aI0
aI512
aI592
asVprob
p2210
I93
sstp2211
a(I2
V2017:08:01 14:47:46
p2212
(dp2213
V1
p2214
(dp2215
Vcoords
p2216
(lp2217
I224
aI64
aI384
aI512
asVprob
p2218
I99
ssV2
p2219
(dp2220
Vcoords
p2221
(lp2222
I384
aI128
aI496
aI480
asVprob
p2223
I97
sstp2224
a(I1
V2017:08:01 14:48:42
p2225
(dp2226
V1
p2227
(dp2228
Vcoords
p2229
(lp2230
I400
aI176
aI480
aI384
asVprob
p2231
I98
sstp2232
a(I1
V2017:08:01 14:49:20
p2233
(dp2234
V1
p2235
(dp2236
Vcoords
p2237
(lp2238
I32
aI128
aI128
aI464
asVprob
p2239
I91
sstp2240
a(I2
V2017:08:01 14:50:08
p2241
(dp2242
V1
p2243
(dp2244
Vcoords
p2245
(lp2246
I16
aI160
aI112
aI432
asVprob
p2247
I98
ssV2
p2248
(dp2249
Vcoords
p2250
(lp2251
I704
aI80
aI800
aI496
asVprob
p2252
I80
sstp2253
a(I2
V2017:08:01 14:51:42
p2254
(dp2255
V1
p2256
(dp2257
Vcoords
p2258
(lp2259
I256
aI80
aI384
aI480
asVprob
p2260
I95
ssV2
p2261
(dp2262
Vcoords
p2263
(lp2264
I48
aI80
aI176
aI512
asVprob
p2265
I93
sstp2266
a(I1
V2017:08:01 14:51:54
p2267
(dp2268
V1
p2269
(dp2270
Vcoords
p2271
(lp2272
I128
aI96
aI272
aI512
asVprob
p2273
I99
sstp2274
a(I2
V2017:08:01 14:52:06
p2275
(dp2276
V1
p2277
(dp2278
Vcoords
p2279
(lp2280
I80
aI144
aI192
aI432
asVprob
p2281
I99
ssV2
p2282
(dp2283
Vcoords
p2284
(lp2285
I224
aI144
aI304
aI432
asVprob
p2286
I96
sstp2287
a(I1
V2017:08:01 14:53:52
p2288
(dp2289
V1
p2290
(dp2291
Vcoords
p2292
(lp2293
I128
aI128
aI240
aI432
asVprob
p2294
I98
sstp2295
a(I1
V2017:08:01 14:54:02
p2296
(dp2297
V1
p2298
(dp2299
Vcoords
p2300
(lp2301
I256
aI96
aI384
aI432
asVprob
p2302
I98
sstp2303
a(I1
V2017:08:01 14:56:46
p2304
(dp2305
V1
p2306
(dp2307
Vcoords
p2308
(lp2309
I432
aI16
aI608
aI512
asVprob
p2310
I99
sstp2311
a(I1
V2017:08:01 15:00:18
p2312
(dp2313
V1
p2314
(dp2315
Vcoords
p2316
(lp2317
I208
aI0
aI448
aI592
asVprob
p2318
I97
sstp2319
a(I1
V2017:08:01 15:02:14
p2320
(dp2321
V1
p2322
(dp2323
Vcoords
p2324
(lp2325
I80
aI208
aI144
aI400
asVprob
p2326
I95
sstp2327
a(I1
V2017:08:01 15:02:24
p2328
(dp2329
V1
p2330
(dp2331
Vcoords
p2332
(lp2333
I80
aI208
aI144
aI384
asVprob
p2334
I98
sstp2335
a(I1
V2017:08:01 15:02:38
p2336
(dp2337
V1
p2338
(dp2339
Vcoords
p2340
(lp2341
I64
aI128
aI176
aI448
asVprob
p2342
I97
sstp2343
a(I1
V2017:08:01 15:03:10
p2344
(dp2345
V1
p2346
(dp2347
Vcoords
p2348
(lp2349
I432
aI208
aI496
aI384
asVprob
p2350
I96
sstp2351
a(I1
V2017:08:01 15:04:36
p2352
(dp2353
V1
p2354
(dp2355
Vcoords
p2356
(lp2357
I224
aI208
aI288
aI384
asVprob
p2358
I98
sstp2359
a(I1
V2017:08:01 15:04:40
p2360
(dp2361
V1
p2362
(dp2363
Vcoords
p2364
(lp2365
I432
aI208
aI496
aI368
asVprob
p2366
I95
sstp2367
a(I1
V2017:08:01 15:05:26
p2368
(dp2369
V1
p2370
(dp2371
Vcoords
p2372
(lp2373
I272
aI192
aI336
aI400
asVprob
p2374
I94
sstp2375
a(I3
V2017:08:01 15:05:48
p2376
(dp2377
V1
p2378
(dp2379
Vcoords
p2380
(lp2381
I384
aI208
aI480
aI384
asVprob
p2382
I97
ssV3
p2383
(dp2384
Vcoords
p2385
(lp2386
I112
aI112
aI240
aI464
asVprob
p2387
I96
ssV2
p2388
(dp2389
Vcoords
p2390
(lp2391
I288
aI208
aI352
aI384
asVprob
p2392
I96
sstp2393
a(I1
V2017:08:01 15:07:36
p2394
(dp2395
V1
p2396
(dp2397
Vcoords
p2398
(lp2399
I672
aI192
aI800
aI608
asVprob
p2400
I81
sstp2401
a(I1
V2017:08:01 15:07:44
p2402
(dp2403
V1
p2404
(dp2405
Vcoords
p2406
(lp2407
I48
aI144
aI176
aI464
asVprob
p2408
I98
sstp2409
a(I1
V2017:08:01 15:08:34
p2410
(dp2411
V1
p2412
(dp2413
Vcoords
p2414
(lp2415
I160
aI144
aI288
aI464
asVprob
p2416
I97
sstp2417
a(I1
V2017:08:01 15:09:40
p2418
(dp2419
V1
p2420
(dp2421
Vcoords
p2422
(lp2423
I176
aI176
aI272
aI416
asVprob
p2424
I98
sstp2425
a(I1
V2017:08:01 15:10:32
p2426
(dp2427
V1
p2428
(dp2429
Vcoords
p2430
(lp2431
I240
aI0
aI448
aI560
asVprob
p2432
I98
sstp2433
a(I2
V2017:08:01 15:12:30
p2434
(dp2435
V1
p2436
(dp2437
Vcoords
p2438
(lp2439
I256
aI176
aI352
aI432
asVprob
p2440
I98
ssV2
p2441
(dp2442
Vcoords
p2443
(lp2444
I400
aI192
aI496
aI384
asVprob
p2445
I95
sstp2446
a(I1
V2017:08:01 15:15:38
p2447
(dp2448
V1
p2449
(dp2450
Vcoords
p2451
(lp2452
I96
aI160
aI176
aI448
asVprob
p2453
I96
sstp2454
a(I1
V2017:08:01 15:16:00
p2455
(dp2456
V1
p2457
(dp2458
Vcoords
p2459
(lp2460
I304
aI176
aI384
aI400
asVprob
p2461
I94
sstp2462
a(I2
V2017:08:01 15:16:46
p2463
(dp2464
V1
p2465
(dp2466
Vcoords
p2467
(lp2468
I208
aI112
aI320
aI464
asVprob
p2469
I98
ssV2
p2470
(dp2471
Vcoords
p2472
(lp2473
I128
aI144
aI240
aI464
asVprob
p2474
I97
sstp2475
a(I1
V2017:08:01 15:16:52
p2476
(dp2477
V1
p2478
(dp2479
Vcoords
p2480
(lp2481
I336
aI128
aI464
aI464
asVprob
p2482
I98
sstp2483
a(I4
V2017:08:01 15:17:20
p2484
(dp2485
V1
p2486
(dp2487
Vcoords
p2488
(lp2489
I64
aI160
aI144
aI432
asVprob
p2490
I99
ssV3
p2491
(dp2492
Vcoords
p2493
(lp2494
I384
aI192
aI448
aI352
asVprob
p2495
I89
ssV2
p2496
(dp2497
Vcoords
p2498
(lp2499
I224
aI160
aI304
aI384
asVprob
p2500
I98
ssV4
p2501
(dp2502
Vcoords
p2503
(lp2504
I160
aI208
aI224
aI384
asVprob
p2505
I88
sstp2506
a(I1
V2017:08:01 15:18:00
p2507
(dp2508
V1
p2509
(dp2510
Vcoords
p2511
(lp2512
I352
aI224
aI432
aI400
asVprob
p2513
I98
sstp2514
a(I1
V2017:08:01 15:18:14
p2515
(dp2516
V1
p2517
(dp2518
Vcoords
p2519
(lp2520
I224
aI192
aI304
aI400
asVprob
p2521
I98
sstp2522
a(I1
V2017:08:01 15:18:36
p2523
(dp2524
V1
p2525
(dp2526
Vcoords
p2527
(lp2528
I32
aI224
aI96
aI384
asVprob
p2529
I91
sstp2530
a(I1
V2017:08:01 15:19:56
p2531
(dp2532
V2
p2533
(dp2534
Vcoords
p2535
(lp2536
I176
aI128
aI384
aI576
asVprob
p2537
I94
sstp2538
a(I1
V2017:08:01 15:20:48
p2539
(dp2540
V1
p2541
(dp2542
Vcoords
p2543
(lp2544
I144
aI160
aI224
aI416
asVprob
p2545
I97
sstp2546
a(I1
V2017:08:01 15:21:00
p2547
(dp2548
V1
p2549
(dp2550
Vcoords
p2551
(lp2552
I128
aI128
aI224
aI416
asVprob
p2553
I97
sstp2554
a(I5
V2017:08:01 15:22:06
p2555
(dp2556
V1
p2557
(dp2558
Vcoords
p2559
(lp2560
I336
aI192
aI464
aI464
asVprob
p2561
I99
ssV2
p2562
(dp2563
Vcoords
p2564
(lp2565
I640
aI208
aI736
aI512
asVprob
p2566
I97
ssV4
p2567
(dp2568
Vcoords
p2569
(lp2570
I464
aI224
aI544
aI384
asVprob
p2571
I94
ssV7
p2572
(dp2573
Vcoords
p2574
(lp2575
I32
aI176
aI128
aI544
asVprob
p2576
I90
ssV6
p2577
(dp2578
Vcoords
p2579
(lp2580
I720
aI224
aI784
aI416
asVprob
p2581
I92
sstp2582
a(I3
V2017:08:01 15:22:14
p2583
(dp2584
V1
p2585
(dp2586
Vcoords
p2587
(lp2588
I224
aI144
aI432
aI512
asVprob
p2589
I98
ssV3
p2590
(dp2591
Vcoords
p2592
(lp2593
I704
aI224
aI784
aI432
asVprob
p2594
I91
ssV2
p2595
(dp2596
Vcoords
p2597
(lp2598
I400
aI112
aI592
aI592
asVprob
p2599
I96
sstp2600
a(I1
V2017:08:01 15:22:26
p2601
(dp2602
V1
p2603
(dp2604
Vcoords
p2605
(lp2606
I368
aI224
aI432
aI384
asVprob
p2607
I93
sstp2608
a(I1
V2017:08:01 15:22:30
p2609
(dp2610
V1
p2611
(dp2612
Vcoords
p2613
(lp2614
I256
aI192
aI336
aI400
asVprob
p2615
I96
sstp2616
a(I1
V2017:08:01 15:24:16
p2617
(dp2618
V1
p2619
(dp2620
Vcoords
p2621
(lp2622
I368
aI176
aI448
aI416
asVprob
p2623
I98
sstp2624
a(I1
V2017:08:01 15:25:20
p2625
(dp2626
V1
p2627
(dp2628
Vcoords
p2629
(lp2630
I304
aI160
aI384
aI432
asVprob
p2631
I97
sstp2632
a(I1
V2017:08:01 15:26:02
p2633
(dp2634
V1
p2635
(dp2636
Vcoords
p2637
(lp2638
I400
aI192
aI464
aI368
asVprob
p2639
I97
sstp2640
a(I1
V2017:08:01 15:26:30
p2641
(dp2642
V1
p2643
(dp2644
Vcoords
p2645
(lp2646
I64
aI16
aI240
aI576
asVprob
p2647
I95
sstp2648
a(I1
V2017:08:01 15:26:36
p2649
(dp2650
V1
p2651
(dp2652
Vcoords
p2653
(lp2654
I240
aI176
aI304
aI384
asVprob
p2655
I96
sstp2656
a(I1
V2017:08:01 15:27:34
p2657
(dp2658
V1
p2659
(dp2660
Vcoords
p2661
(lp2662
I240
aI176
aI304
aI352
asVprob
p2663
I96
sstp2664
a(I1
V2017:08:01 15:27:58
p2665
(dp2666
V1
p2667
(dp2668
Vcoords
p2669
(lp2670
I352
aI160
aI432
aI384
asVprob
p2671
I97
sstp2672
a(I2
V2017:08:01 15:28:10
p2673
(dp2674
V1
p2675
(dp2676
Vcoords
p2677
(lp2678
I192
aI176
aI288
aI416
asVprob
p2679
I97
ssV2
p2680
(dp2681
Vcoords
p2682
(lp2683
I48
aI80
aI176
aI496
asVprob
p2684
I88
sstp2685
a(I1
V2017:08:01 15:29:38
p2686
(dp2687
V1
p2688
(dp2689
Vcoords
p2690
(lp2691
I224
aI176
aI384
aI448
asVprob
p2692
I94
sstp2693
a(I2
V2017:08:01 15:30:54
p2694
(dp2695
V1
p2696
(dp2697
Vcoords
p2698
(lp2699
I16
aI128
aI160
aI512
asVprob
p2700
I91
ssV2
p2701
(dp2702
Vcoords
p2703
(lp2704
I32
aI112
aI128
aI320
asVprob
p2705
I86
sstp2706
a(I1
V2017:08:01 15:32:52
p2707
(dp2708
V1
p2709
(dp2710
Vcoords
p2711
(lp2712
I352
aI176
aI432
aI368
asVprob
p2713
I99
sstp2714
a(I1
V2017:08:01 15:38:18
p2715
(dp2716
V1
p2717
(dp2718
Vcoords
p2719
(lp2720
I208
aI128
aI304
aI432
asVprob
p2721
I97
sstp2722
a(I1
V2017:08:01 15:40:52
p2723
(dp2724
V1
p2725
(dp2726
Vcoords
p2727
(lp2728
I48
aI96
aI160
aI448
asVprob
p2729
I97
sstp2730
a(I1
V2017:08:01 15:41:02
p2731
(dp2732
V1
p2733
(dp2734
Vcoords
p2735
(lp2736
I416
aI208
aI480
aI368
asVprob
p2737
I97
sstp2738
a(I3
V2017:08:01 15:42:22
p2739
(dp2740
V1
p2741
(dp2742
Vcoords
p2743
(lp2744
I352
aI160
aI448
aI416
asVprob
p2745
I96
ssV3
p2746
(dp2747
Vcoords
p2748
(lp2749
I80
aI112
aI160
aI432
asVprob
p2750
I89
ssV2
p2751
(dp2752
Vcoords
p2753
(lp2754
I208
aI112
aI336
aI448
asVprob
p2755
I95
sstp2756
a(I2
V2017:08:01 15:43:02
p2757
(dp2758
V1
p2759
(dp2760
Vcoords
p2761
(lp2762
I304
aI192
aI368
aI368
asVprob
p2763
I93
ssV2
p2764
(dp2765
Vcoords
p2766
(lp2767
I288
aI208
aI352
aI384
asVprob
p2768
I84
sstp2769
a(I3
V2017:08:01 15:44:02
p2770
(dp2771
V1
p2772
(dp2773
Vcoords
p2774
(lp2775
I240
aI96
aI336
aI432
asVprob
p2776
I96
ssV3
p2777
(dp2778
Vcoords
p2779
(lp2780
I368
aI144
aI464
aI432
asVprob
p2781
I80
ssV2
p2782
(dp2783
Vcoords
p2784
(lp2785
I160
aI160
aI240
aI416
asVprob
p2786
I95
sstp2787
a(I1
V2017:08:01 15:44:08
p2788
(dp2789
V1
p2790
(dp2791
Vcoords
p2792
(lp2793
I208
aI160
aI320
aI432
asVprob
p2794
I98
sstp2795
a(I1
V2017:08:01 15:44:30
p2796
(dp2797
V1
p2798
(dp2799
Vcoords
p2800
(lp2801
I32
aI0
aI272
aI592
asVprob
p2802
I98
sstp2803
a(I1
V2017:08:01 15:45:18
p2804
(dp2805
V1
p2806
(dp2807
Vcoords
p2808
(lp2809
I272
aI144
aI384
aI464
asVprob
p2810
I97
sstp2811
a(I1
V2017:08:01 15:45:56
p2812
(dp2813
V1
p2814
(dp2815
Vcoords
p2816
(lp2817
I352
aI176
aI432
aI416
asVprob
p2818
I96
sstp2819
a(I1
V2017:08:01 15:46:24
p2820
(dp2821
V1
p2822
(dp2823
Vcoords
p2824
(lp2825
I384
aI176
aI480
aI400
asVprob
p2826
I96
sstp2827
a(I1
V2017:08:01 15:46:34
p2828
(dp2829
V1
p2830
(dp2831
Vcoords
p2832
(lp2833
I240
aI160
aI336
aI400
asVprob
p2834
I96
sstp2835
a(I1
V2017:08:01 15:47:50
p2836
(dp2837
V1
p2838
(dp2839
Vcoords
p2840
(lp2841
I256
aI176
aI336
aI384
asVprob
p2842
I94
sstp2843
a(I1
V2017:08:01 15:48:16
p2844
(dp2845
V1
p2846
(dp2847
Vcoords
p2848
(lp2849
I720
aI192
aI784
aI352
asVprob
p2850
I84
sstp2851
a(I1
V2017:08:01 15:48:42
p2852
(dp2853
V2
p2854
(dp2855
Vcoords
p2856
(lp2857
I368
aI208
aI432
aI368
asVprob
p2858
I93
sstp2859
a(I1
V2017:08:01 15:49:02
p2860
(dp2861
V1
p2862
(dp2863
Vcoords
p2864
(lp2865
I368
aI160
aI464
aI400
asVprob
p2866
I98
sstp2867
a(I1
V2017:08:01 15:49:10
p2868
(dp2869
V1
p2870
(dp2871
Vcoords
p2872
(lp2873
I464
aI16
aI784
aI624
asVprob
p2874
I97
sstp2875
a(I1
V2017:08:01 15:49:14
p2876
(dp2877
V1
p2878
(dp2879
Vcoords
p2880
(lp2881
I448
aI16
aI784
aI640
asVprob
p2882
I95
sstp2883
a(I1
V2017:08:01 15:49:34
p2884
(dp2885
V1
p2886
(dp2887
Vcoords
p2888
(lp2889
I448
aI-16
aI800
aI592
asVprob
p2890
I98
sstp2891
a(I4
V2017:08:01 15:50:00
p2892
(dp2893
V1
p2894
(dp2895
Vcoords
p2896
(lp2897
I640
aI96
aI784
aI576
asVprob
p2898
I99
ssV2
p2899
(dp2900
Vcoords
p2901
(lp2902
I464
aI192
aI576
aI432
asVprob
p2903
I98
ssV5
p2904
(dp2905
Vcoords
p2906
(lp2907
I576
aI208
aI656
aI416
asVprob
p2908
I93
ssV4
p2909
(dp2910
Vcoords
p2911
(lp2912
I240
aI192
aI304
aI384
asVprob
p2913
I97
sstp2914
a(I1
V2017:08:01 15:52:06
p2915
(dp2916
V1
p2917
(dp2918
Vcoords
p2919
(lp2920
I672
aI208
aI768
aI448
asVprob
p2921
I95
sstp2922
a(I1
V2017:08:01 15:52:24
p2923
(dp2924
V1
p2925
(dp2926
Vcoords
p2927
(lp2928
I304
aI16
aI544
aI672
asVprob
p2929
I86
sstp2930
a(I1
V2017:08:01 15:52:30
p2931
(dp2932
V1
p2933
(dp2934
Vcoords
p2935
(lp2936
I528
aI144
aI736
aI624
asVprob
p2937
I98
sstp2938
a(I1
V2017:08:01 15:52:42
p2939
(dp2940
V2
p2941
(dp2942
Vcoords
p2943
(lp2944
I432
aI144
aI656
aI608
asVprob
p2945
I92
sstp2946
a(I3
V2017:08:01 15:52:54
p2947
(dp2948
V3
p2949
(dp2950
Vcoords
p2951
(lp2952
I16
aI112
aI176
aI592
asVprob
p2953
I82
ssV2
p2954
(dp2955
Vcoords
p2956
(lp2957
I448
aI32
aI736
aI608
asVprob
p2958
I98
ssV4
p2959
(dp2960
Vcoords
p2961
(lp2962
I432
aI176
aI496
aI272
asVprob
p2963
I80
sstp2964
a(I2
V2017:08:01 15:53:06
p2965
(dp2966
V1
p2967
(dp2968
Vcoords
p2969
(lp2970
I416
aI48
aI688
aI608
asVprob
p2971
I99
ssV4
p2972
(dp2973
Vcoords
p2974
(lp2975
I704
aI208
aI800
aI624
asVprob
p2976
I85
sstp2977
a(I2
V2017:08:01 15:53:16
p2978
(dp2979
V1
p2980
(dp2981
Vcoords
p2982
(lp2983
I672
aI208
aI768
aI400
asVprob
p2984
I98
ssV3
p2985
(dp2986
Vcoords
p2987
(lp2988
I16
aI16
aI208
aI640
asVprob
p2989
I94
sstp2990
a(I3
V2017:08:01 15:53:24
p2991
(dp2992
V1
p2993
(dp2994
Vcoords
p2995
(lp2996
I608
aI96
aI784
aI592
asVprob
p2997
I98
ssV2
p2998
(dp2999
Vcoords
p3000
(lp3001
I528
aI160
aI640
aI480
asVprob
p3002
I96
ssV4
p3003
(dp3004
Vcoords
p3005
(lp3006
I336
aI96
aI544
aI544
asVprob
p3007
I84
sstp3008
a(I4
V2017:08:01 15:53:40
p3009
(dp3010
V1
p3011
(dp3012
Vcoords
p3013
(lp3014
I352
aI160
aI448
aI496
asVprob
p3015
I98
ssV3
p3016
(dp3017
Vcoords
p3018
(lp3019
I448
aI224
aI512
aI448
asVprob
p3020
I96
ssV2
p3021
(dp3022
Vcoords
p3023
(lp3024
I592
aI80
aI720
aI544
asVprob
p3025
I96
ssV4
p3026
(dp3027
Vcoords
p3028
(lp3029
I528
aI192
aI624
aI480
asVprob
p3030
I93
sstp3031
a(I3
V2017:08:01 15:53:50
p3032
(dp3033
V1
p3034
(dp3035
Vcoords
p3036
(lp3037
I208
aI128
aI416
aI608
asVprob
p3038
I99
ssV3
p3039
(dp3040
Vcoords
p3041
(lp3042
I624
aI48
aI768
aI592
asVprob
p3043
I96
ssV2
p3044
(dp3045
Vcoords
p3046
(lp3047
I496
aI224
aI576
aI448
asVprob
p3048
I98
sstp3049
a(I1
V2017:08:01 15:54:00
p3050
(dp3051
V1
p3052
(dp3053
Vcoords
p3054
(lp3055
I32
aI128
aI144
aI464
asVprob
p3056
I94
sstp3057
a(I2
V2017:08:01 15:54:36
p3058
(dp3059
V1
p3060
(dp3061
Vcoords
p3062
(lp3063
I256
aI208
aI320
aI368
asVprob
p3064
I97
ssV2
p3065
(dp3066
Vcoords
p3067
(lp3068
I416
aI208
aI480
aI368
asVprob
p3069
I97
sstp3070
a(I1
V2017:08:01 15:55:22
p3071
(dp3072
V1
p3073
(dp3074
Vcoords
p3075
(lp3076
I320
aI208
aI384
aI384
asVprob
p3077
I97
sstp3078
a(I1
V2017:08:01 15:56:54
p3079
(dp3080
V1
p3081
(dp3082
Vcoords
p3083
(lp3084
I384
aI208
aI448
aI368
asVprob
p3085
I97
sstp3086
a(I1
V2017:08:01 15:57:28
p3087
(dp3088
V1
p3089
(dp3090
Vcoords
p3091
(lp3092
I320
aI192
aI384
aI400
asVprob
p3093
I92
sstp3094
a(I2
V2017:08:01 15:57:54
p3095
(dp3096
V1
p3097
(dp3098
Vcoords
p3099
(lp3100
I528
aI160
aI624
aI432
asVprob
p3101
I99
ssV2
p3102
(dp3103
Vcoords
p3104
(lp3105
I400
aI176
aI496
aI400
asVprob
p3106
I98
sstp3107
a(I1
V2017:08:01 15:58:12
p3108
(dp3109
V1
p3110
(dp3111
Vcoords
p3112
(lp3113
I384
aI176
aI480
aI400
asVprob
p3114
I97
sstp3115
a(I1
V2017:08:01 15:58:48
p3116
(dp3117
V1
p3118
(dp3119
Vcoords
p3120
(lp3121
I80
aI128
aI176
aI432
asVprob
p3122
I97
sstp3123
a(I1
V2017:08:01 15:59:48
p3124
(dp3125
V2
p3126
(dp3127
Vcoords
p3128
(lp3129
I288
aI208
aI352
aI384
asVprob
p3130
I85
sstp3131
a(I1
V2017:08:01 16:00:58
p3132
(dp3133
V1
p3134
(dp3135
Vcoords
p3136
(lp3137
I0
aI0
aI208
aI640
asVprob
p3138
I85
sstp3139
a(I1
V2017:08:01 16:01:02
p3140
(dp3141
V1
p3142
(dp3143
Vcoords
p3144
(lp3145
I0
aI240
aI80
aI576
asVprob
p3146
I83
sstp3147
a(I1
V2017:08:01 16:02:52
p3148
(dp3149
V1
p3150
(dp3151
Vcoords
p3152
(lp3153
I208
aI80
aI320
aI528
asVprob
p3154
I90
sstp3155
a(I3
V2017:08:01 16:07:14
p3156
(dp3157
V1
p3158
(dp3159
Vcoords
p3160
(lp3161
I128
aI208
aI208
aI416
asVprob
p3162
I99
ssV2
p3163
(dp3164
Vcoords
p3165
(lp3166
I208
aI224
aI272
aI400
asVprob
p3167
I95
ssV4
p3168
(dp3169
Vcoords
p3170
(lp3171
I288
aI208
aI352
aI368
asVprob
p3172
I89
sstp3173
a(I2
V2017:08:01 16:08:50
p3174
(dp3175
V1
p3176
(dp3177
Vcoords
p3178
(lp3179
I176
aI144
aI256
aI416
asVprob
p3180
I96
ssV2
p3181
(dp3182
Vcoords
p3183
(lp3184
I288
aI176
aI368
aI400
asVprob
p3185
I94
sstp3186
a(I1
V2017:08:01 16:11:06
p3187
(dp3188
V1
p3189
(dp3190
Vcoords
p3191
(lp3192
I304
aI176
aI384
aI400
asVprob
p3193
I97
sstp3194
a(I4
V2017:08:01 16:11:28
p3195
(dp3196
V1
p3197
(dp3198
Vcoords
p3199
(lp3200
I208
aI144
aI288
aI448
asVprob
p3201
I97
ssV3
p3202
(dp3203
Vcoords
p3204
(lp3205
I288
aI224
aI352
aI400
asVprob
p3206
I89
ssV2
p3207
(dp3208
Vcoords
p3209
(lp3210
I144
aI240
aI208
aI432
asVprob
p3211
I92
ssV4
p3212
(dp3213
Vcoords
p3214
(lp3215
I304
aI224
aI384
aI400
asVprob
p3216
I86
sstp3217
a(I1
V2017:08:01 16:12:38
p3218
(dp3219
V1
p3220
(dp3221
Vcoords
p3222
(lp3223
I288
aI192
aI368
aI432
asVprob
p3224
I93
sstp3225
a(I1
V2017:08:01 16:12:42
p3226
(dp3227
V1
p3228
(dp3229
Vcoords
p3230
(lp3231
I16
aI144
aI96
aI416
asVprob
p3232
I95
sstp3233
a(I1
V2017:08:01 16:13:10
p3234
(dp3235
V1
p3236
(dp3237
Vcoords
p3238
(lp3239
I304
aI144
aI400
aI432
asVprob
p3240
I98
sstp3241
a(I1
V2017:08:01 16:13:32
p3242
(dp3243
V1
p3244
(dp3245
Vcoords
p3246
(lp3247
I288
aI208
aI352
aI368
asVprob
p3248
I95
sstp3249
a(I2
V2017:08:01 16:17:22
p3250
(dp3251
V1
p3252
(dp3253
Vcoords
p3254
(lp3255
I368
aI192
aI448
aI384
asVprob
p3256
I98
ssV2
p3257
(dp3258
Vcoords
p3259
(lp3260
I304
aI192
aI384
aI384
asVprob
p3261
I96
sstp3262
a(I1
V2017:08:01 16:17:56
p3263
(dp3264
V1
p3265
(dp3266
Vcoords
p3267
(lp3268
I160
aI176
aI240
aI400
asVprob
p3269
I97
sstp3270
a(I1
V2017:08:01 16:18:04
p3271
(dp3272
V1
p3273
(dp3274
Vcoords
p3275
(lp3276
I80
aI224
aI144
aI384
asVprob
p3277
I96
sstp3278
a(I1
V2017:08:01 16:19:54
p3279
(dp3280
V1
p3281
(dp3282
Vcoords
p3283
(lp3284
I96
aI64
aI240
aI512
asVprob
p3285
I94
sstp3286
a(I1
V2017:08:01 16:21:16
p3287
(dp3288
V1
p3289
(dp3290
Vcoords
p3291
(lp3292
I192
aI160
aI272
aI384
asVprob
p3293
I97
sstp3294
a(I2
V2017:08:01 16:22:14
p3295
(dp3296
V1
p3297
(dp3298
Vcoords
p3299
(lp3300
I608
aI144
aI704
aI464
asVprob
p3301
I96
ssV2
p3302
(dp3303
Vcoords
p3304
(lp3305
I688
aI176
aI752
aI416
asVprob
p3306
I89
sstp3307
a(I1
V2017:08:01 16:23:40
p3308
(dp3309
V1
p3310
(dp3311
Vcoords
p3312
(lp3313
I256
aI80
aI416
aI528
asVprob
p3314
I88
sstp3315
a(I1
V2017:08:01 16:23:46
p3316
(dp3317
V1
p3318
(dp3319
Vcoords
p3320
(lp3321
I96
aI208
aI176
aI400
asVprob
p3322
I95
sstp3323
a(I1
V2017:08:01 16:24:08
p3324
(dp3325
V1
p3326
(dp3327
Vcoords
p3328
(lp3329
I144
aI176
aI224
aI400
asVprob
p3330
I91
sstp3331
a(I1
V2017:08:01 16:25:22
p3332
(dp3333
V1
p3334
(dp3335
Vcoords
p3336
(lp3337
I96
aI208
aI160
aI400
asVprob
p3338
I93
sstp3339
a(I1
V2017:08:01 16:25:32
p3340
(dp3341
V1
p3342
(dp3343
Vcoords
p3344
(lp3345
I112
aI160
aI192
aI416
asVprob
p3346
I97
sstp3347
a(I1
V2017:08:01 16:25:42
p3348
(dp3349
V1
p3350
(dp3351
Vcoords
p3352
(lp3353
I320
aI208
aI384
aI368
asVprob
p3354
I92
sstp3355
a(I1
V2017:08:01 16:25:50
p3356
(dp3357
V1
p3358
(dp3359
Vcoords
p3360
(lp3361
I144
aI176
aI240
aI432
asVprob
p3362
I97
sstp3363
a(I1
V2017:08:01 16:26:16
p3364
(dp3365
V1
p3366
(dp3367
Vcoords
p3368
(lp3369
I256
aI192
aI336
aI416
asVprob
p3370
I96
sstp3371
a(I2
V2017:08:01 16:26:24
p3372
(dp3373
V1
p3374
(dp3375
Vcoords
p3376
(lp3377
I208
aI192
aI288
aI384
asVprob
p3378
I98
ssV2
p3379
(dp3380
Vcoords
p3381
(lp3382
I16
aI192
aI80
aI400
asVprob
p3383
I94
sstp3384
a(I1
V2017:08:01 16:26:32
p3385
(dp3386
V1
p3387
(dp3388
Vcoords
p3389
(lp3390
I16
aI208
aI80
aI384
asVprob
p3391
I80
sstp3392
a(I1
V2017:08:01 16:33:30
p3393
(dp3394
V1
p3395
(dp3396
Vcoords
p3397
(lp3398
I304
aI192
aI368
aI352
asVprob
p3399
I91
sstp3400
a(I1
V2017:08:01 16:34:48
p3401
(dp3402
V1
p3403
(dp3404
Vcoords
p3405
(lp3406
I336
aI176
aI416
aI400
asVprob
p3407
I98
sstp3408
a(I1
V2017:08:01 16:38:46
p3409
(dp3410
V1
p3411
(dp3412
Vcoords
p3413
(lp3414
I224
aI144
aI304
aI384
asVprob
p3415
I93
sstp3416
a(I1
V2017:08:01 16:39:42
p3417
(dp3418
V1
p3419
(dp3420
Vcoords
p3421
(lp3422
I192
aI160
aI288
aI432
asVprob
p3423
I97
sstp3424
a(I1
V2017:08:01 16:40:18
p3425
(dp3426
V1
p3427
(dp3428
Vcoords
p3429
(lp3430
I208
aI208
aI272
aI384
asVprob
p3431
I96
sstp3432
a(I1
V2017:08:01 16:40:24
p3433
(dp3434
V1
p3435
(dp3436
Vcoords
p3437
(lp3438
I144
aI160
aI256
aI448
asVprob
p3439
I96
sstp3440
a(I1
V2017:08:01 16:41:50
p3441
(dp3442
V3
p3443
(dp3444
Vcoords
p3445
(lp3446
I16
aI208
aI80
aI416
asVprob
p3447
I81
sstp3448
a(I2
V2017:08:01 16:43:00
p3449
(dp3450
V1
p3451
(dp3452
Vcoords
p3453
(lp3454
I224
aI192
aI304
aI416
asVprob
p3455
I95
ssV2
p3456
(dp3457
Vcoords
p3458
(lp3459
I288
aI192
aI368
aI400
asVprob
p3460
I88
sstp3461
a(I1
V2017:08:01 16:43:22
p3462
(dp3463
V1
p3464
(dp3465
Vcoords
p3466
(lp3467
I224
aI176
aI304
aI368
asVprob
p3468
I93
sstp3469
a(I1
V2017:08:01 16:43:28
p3470
(dp3471
V1
p3472
(dp3473
Vcoords
p3474
(lp3475
I224
aI96
aI368
aI496
asVprob
p3476
I98
sstp3477
a(I1
V2017:08:01 16:44:10
p3478
(dp3479
V1
p3480
(dp3481
Vcoords
p3482
(lp3483
I416
aI192
aI480
aI368
asVprob
p3484
I98
sstp3485
a(I1
V2017:08:01 16:44:53
p3486
(dp3487
V1
p3488
(dp3489
Vcoords
p3490
(lp3491
I64
aI112
aI192
aI480
asVprob
p3492
I97
sstp3493
a(I1
V2017:08:01 16:45:22
p3494
(dp3495
V1
p3496
(dp3497
Vcoords
p3498
(lp3499
I16
aI144
aI128
aI432
asVprob
p3500
I94
sstp3501
a(I1
V2017:08:01 16:46:56
p3502
(dp3503
V1
p3504
(dp3505
Vcoords
p3506
(lp3507
I96
aI112
aI240
aI496
asVprob
p3508
I92
sstp3509
a(I1
V2017:08:01 16:48:58
p3510
(dp3511
V1
p3512
(dp3513
Vcoords
p3514
(lp3515
I176
aI160
aI256
aI464
asVprob
p3516
I98
sstp3517
a(I1
V2017:08:01 16:49:44
p3518
(dp3519
V1
p3520
(dp3521
Vcoords
p3522
(lp3523
I272
aI240
aI336
aI352
asVprob
p3524
I93
sstp3525
a(I1
V2017:08:01 16:50:08
p3526
(dp3527
V1
p3528
(dp3529
Vcoords
p3530
(lp3531
I272
aI240
aI336
aI336
asVprob
p3532
I93
sstp3533
a(I1
V2017:08:01 16:52:14
p3534
(dp3535
V1
p3536
(dp3537
Vcoords
p3538
(lp3539
I336
aI160
aI432
aI400
asVprob
p3540
I96
sstp3541
a(I1
V2017:08:01 16:52:56
p3542
(dp3543
V1
p3544
(dp3545
Vcoords
p3546
(lp3547
I384
aI160
aI480
aI384
asVprob
p3548
I96
sstp3549
a(I3
V2017:08:01 16:53:14
p3550
(dp3551
V1
p3552
(dp3553
Vcoords
p3554
(lp3555
I336
aI144
aI432
aI416
asVprob
p3556
I97
ssV3
p3557
(dp3558
Vcoords
p3559
(lp3560
I176
aI176
aI256
aI400
asVprob
p3561
I96
ssV2
p3562
(dp3563
Vcoords
p3564
(lp3565
I288
aI192
aI352
aI384
asVprob
p3566
I97
sstp3567
a(I1
V2017:08:01 16:53:22
p3568
(dp3569
V1
p3570
(dp3571
Vcoords
p3572
(lp3573
I320
aI160
aI416
aI416
asVprob
p3574
I98
sstp3575
a(I1
V2017:08:01 16:53:48
p3576
(dp3577
V2
p3578
(dp3579
Vcoords
p3580
(lp3581
I272
aI240
aI336
aI336
asVprob
p3582
I80
sstp3583
a(I1
V2017:08:01 16:55:06
p3584
(dp3585
V1
p3586
(dp3587
Vcoords
p3588
(lp3589
I272
aI240
aI336
aI336
asVprob
p3590
I80
sstp3591
a(I1
V2017:08:01 16:57:20
p3592
(dp3593
V1
p3594
(dp3595
Vcoords
p3596
(lp3597
I288
aI160
aI384
aI416
asVprob
p3598
I99
sstp3599
a(I1
V2017:08:01 16:57:42
p3600
(dp3601
V1
p3602
(dp3603
Vcoords
p3604
(lp3605
I384
aI176
aI464
aI384
asVprob
p3606
I87
sstp3607
a(I1
V2017:08:01 16:58:04
p3608
(dp3609
V3
p3610
(dp3611
Vcoords
p3612
(lp3613
I272
aI240
aI336
aI336
asVprob
p3614
I84
sstp3615
a(I1
V2017:08:01 16:58:20
p3616
(dp3617
V3
p3618
(dp3619
Vcoords
p3620
(lp3621
I272
aI256
aI336
aI352
asVprob
p3622
I85
sstp3623
a(I1
V2017:08:01 16:58:40
p3624
(dp3625
V1
p3626
(dp3627
Vcoords
p3628
(lp3629
I272
aI240
aI336
aI336
asVprob
p3630
I87
sstp3631
a(I1
V2017:08:01 16:58:44
p3632
(dp3633
V1
p3634
(dp3635
Vcoords
p3636
(lp3637
I272
aI240
aI336
aI336
asVprob
p3638
I85
sstp3639
a(I1
V2017:08:01 16:58:48
p3640
(dp3641
V2
p3642
(dp3643
Vcoords
p3644
(lp3645
I272
aI240
aI336
aI336
asVprob
p3646
I84
sstp3647
a(I1
V2017:08:01 16:59:52
p3648
(dp3649
V1
p3650
(dp3651
Vcoords
p3652
(lp3653
I48
aI112
aI176
aI480
asVprob
p3654
I98
sstp3655
a(I1
V2017:08:01 17:00:40
p3656
(dp3657
V1
p3658
(dp3659
Vcoords
p3660
(lp3661
I272
aI240
aI336
aI336
asVprob
p3662
I89
sstp3663
a(I1
V2017:08:01 17:00:44
p3664
(dp3665
V1
p3666
(dp3667
Vcoords
p3668
(lp3669
I272
aI240
aI336
aI336
asVprob
p3670
I87
sstp3671
a(I1
V2017:08:01 17:00:50
p3672
(dp3673
V1
p3674
(dp3675
Vcoords
p3676
(lp3677
I272
aI240
aI336
aI336
asVprob
p3678
I89
sstp3679
a(I1
V2017:08:01 17:02:26
p3680
(dp3681
V2
p3682
(dp3683
Vcoords
p3684
(lp3685
I272
aI240
aI336
aI336
asVprob
p3686
I86
sstp3687
a(I1
V2017:08:01 17:02:40
p3688
(dp3689
V1
p3690
(dp3691
Vcoords
p3692
(lp3693
I336
aI192
aI400
aI368
asVprob
p3694
I97
sstp3695
a(I1
V2017:08:01 17:03:04
p3696
(dp3697
V1
p3698
(dp3699
Vcoords
p3700
(lp3701
I176
aI192
aI256
aI400
asVprob
p3702
I98
sstp3703
a(I1
V2017:08:01 17:03:08
p3704
(dp3705
V3
p3706
(dp3707
Vcoords
p3708
(lp3709
I272
aI256
aI336
aI352
asVprob
p3710
I84
sstp3711
a(I1
V2017:08:01 17:03:14
p3712
(dp3713
V5
p3714
(dp3715
Vcoords
p3716
(lp3717
I272
aI240
aI336
aI336
asVprob
p3718
I83
sstp3719
a(I1
V2017:08:01 17:03:44
p3720
(dp3721
V1
p3722
(dp3723
Vcoords
p3724
(lp3725
I240
aI192
aI320
aI384
asVprob
p3726
I96
sstp3727
a(I2
V2017:08:01 17:05:10
p3728
(dp3729
V1
p3730
(dp3731
Vcoords
p3732
(lp3733
I224
aI192
aI304
aI400
asVprob
p3734
I99
ssV2
p3735
(dp3736
Vcoords
p3737
(lp3738
I352
aI176
aI416
aI384
asVprob
p3739
I95
sstp3740
a(I1
V2017:08:01 17:05:20
p3741
(dp3742
V1
p3743
(dp3744
Vcoords
p3745
(lp3746
I160
aI128
aI272
aI432
asVprob
p3747
I98
sstp3748
a(I2
V2017:08:01 17:05:54
p3749
(dp3750
V1
p3751
(dp3752
Vcoords
p3753
(lp3754
I64
aI160
aI176
aI464
asVprob
p3755
I98
ssV2
p3756
(dp3757
Vcoords
p3758
(lp3759
I400
aI144
aI496
aI544
asVprob
p3760
I92
sstp3761
a(I1
V2017:08:01 17:06:14
p3762
(dp3763
V1
p3764
(dp3765
Vcoords
p3766
(lp3767
I368
aI-32
aI784
aI656
asVprob
p3768
I96
sstp3769
a(I2
V2017:08:01 17:06:24
p3770
(dp3771
V1
p3772
(dp3773
Vcoords
p3774
(lp3775
I16
aI0
aI256
aI624
asVprob
p3776
I97
ssV2
p3777
(dp3778
Vcoords
p3779
(lp3780
I224
aI48
aI400
aI624
asVprob
p3781
I95
sstp3782
a(I1
V2017:08:01 17:06:32
p3783
(dp3784
V1
p3785
(dp3786
Vcoords
p3787
(lp3788
I144
aI224
aI224
aI416
asVprob
p3789
I95
sstp3790
a(I2
V2017:08:01 17:06:52
p3791
(dp3792
V1
p3793
(dp3794
Vcoords
p3795
(lp3796
I32
aI160
aI144
aI432
asVprob
p3797
I98
ssV3
p3798
(dp3799
Vcoords
p3800
(lp3801
I240
aI192
aI320
aI400
asVprob
p3802
I95
sstp3803
a(I1
V2017:08:01 17:08:58
p3804
(dp3805
V1
p3806
(dp3807
Vcoords
p3808
(lp3809
I416
aI192
aI480
aI368
asVprob
p3810
I93
sstp3811
a(I3
V2017:08:01 17:11:08
p3812
(dp3813
V1
p3814
(dp3815
Vcoords
p3816
(lp3817
I176
aI176
aI272
aI416
asVprob
p3818
I98
ssV3
p3819
(dp3820
Vcoords
p3821
(lp3822
I432
aI240
aI496
aI448
asVprob
p3823
I89
ssV2
p3824
(dp3825
Vcoords
p3826
(lp3827
I336
aI192
aI400
aI384
asVprob
p3828
I93
sstp3829
a(I1
V2017:08:01 17:11:44
p3830
(dp3831
V1
p3832
(dp3833
Vcoords
p3834
(lp3835
I272
aI256
aI336
aI352
asVprob
p3836
I82
sstp3837
a(I3
V2017:08:01 17:13:58
p3838
(dp3839
V1
p3840
(dp3841
Vcoords
p3842
(lp3843
I352
aI128
aI464
aI480
asVprob
p3844
I99
ssV3
p3845
(dp3846
Vcoords
p3847
(lp3848
I320
aI208
aI384
aI480
asVprob
p3849
I86
ssV2
p3850
(dp3851
Vcoords
p3852
(lp3853
I464
aI192
aI544
aI400
asVprob
p3854
I97
sstp3855
a(I2
V2017:08:01 17:14:08
p3856
(dp3857
V1
p3858
(dp3859
Vcoords
p3860
(lp3861
I272
aI176
aI336
aI384
asVprob
p3862
I95
ssV3
p3863
(dp3864
Vcoords
p3865
(lp3866
I224
aI176
aI288
aI384
asVprob
p3867
I88
sstp3868
a(I1
V2017:08:01 17:14:14
p3869
(dp3870
V1
p3871
(dp3872
Vcoords
p3873
(lp3874
I368
aI192
aI448
aI384
asVprob
p3875
I98
sstp3876
a(I1
V2017:08:01 17:14:44
p3877
(dp3878
V1
p3879
(dp3880
Vcoords
p3881
(lp3882
I224
aI64
aI480
aI592
asVprob
p3883
I97
sstp3884
a(I3
V2017:08:01 17:15:28
p3885
(dp3886
V1
p3887
(dp3888
Vcoords
p3889
(lp3890
I256
aI128
aI384
aI464
asVprob
p3891
I98
ssV3
p3892
(dp3893
Vcoords
p3894
(lp3895
I32
aI96
aI192
aI576
asVprob
p3896
I97
ssV2
p3897
(dp3898
Vcoords
p3899
(lp3900
I160
aI112
aI288
aI496
asVprob
p3901
I98
sstp3902
a(I1
V2017:08:01 17:15:34
p3903
(dp3904
V1
p3905
(dp3906
Vcoords
p3907
(lp3908
I384
aI192
aI448
aI352
asVprob
p3909
I97
sstp3910
a(I3
V2017:08:01 17:15:48
p3911
(dp3912
V1
p3913
(dp3914
Vcoords
p3915
(lp3916
I384
aI176
aI448
aI368
asVprob
p3917
I98
ssV3
p3918
(dp3919
Vcoords
p3920
(lp3921
I240
aI192
aI304
aI384
asVprob
p3922
I92
ssV4
p3923
(dp3924
Vcoords
p3925
(lp3926
I192
aI192
aI256
aI400
asVprob
p3927
I88
sstp3928
a(I1
V2017:08:01 17:16:04
p3929
(dp3930
V2
p3931
(dp3932
Vcoords
p3933
(lp3934
I272
aI240
aI336
aI352
asVprob
p3935
I83
sstp3936
a(I1
V2017:08:01 17:16:28
p3937
(dp3938
V1
p3939
(dp3940
Vcoords
p3941
(lp3942
I240
aI160
aI336
aI432
asVprob
p3943
I99
sstp3944
a(I1
V2017:08:01 17:17:12
p3945
(dp3946
V2
p3947
(dp3948
Vcoords
p3949
(lp3950
I16
aI176
aI80
aI352
asVprob
p3951
I81
sstp3952
a(I2
V2017:08:01 17:17:26
p3953
(dp3954
V1
p3955
(dp3956
Vcoords
p3957
(lp3958
I128
aI144
aI256
aI464
asVprob
p3959
I99
ssV2
p3960
(dp3961
Vcoords
p3962
(lp3963
I304
aI160
aI416
aI432
asVprob
p3964
I99
sstp3965
a(I1
V2017:08:01 17:19:56
p3966
(dp3967
V1
p3968
(dp3969
Vcoords
p3970
(lp3971
I192
aI160
aI272
aI416
asVprob
p3972
I97
sstp3973
a(I2
V2017:08:01 17:20:12
p3974
(dp3975
V1
p3976
(dp3977
Vcoords
p3978
(lp3979
I224
aI176
aI304
aI400
asVprob
p3980
I98
ssV2
p3981
(dp3982
Vcoords
p3983
(lp3984
I304
aI160
aI400
aI416
asVprob
p3985
I88
sstp3986
a(I2
V2017:08:01 17:20:24
p3987
(dp3988
V1
p3989
(dp3990
Vcoords
p3991
(lp3992
I208
aI192
aI272
aI384
asVprob
p3993
I94
ssV2
p3994
(dp3995
Vcoords
p3996
(lp3997
I176
aI208
aI240
aI384
asVprob
p3998
I84
sstp3999
a(I1
V2017:08:01 17:20:44
p4000
(dp4001
V1
p4002
(dp4003
Vcoords
p4004
(lp4005
I176
aI80
aI368
aI544
asVprob
p4006
I98
sstp4007
a(I1
V2017:08:01 17:20:56
p4008
(dp4009
V1
p4010
(dp4011
Vcoords
p4012
(lp4013
I272
aI176
aI368
aI432
asVprob
p4014
I97
sstp4015
a(I1
V2017:08:01 17:25:10
p4016
(dp4017
V1
p4018
(dp4019
Vcoords
p4020
(lp4021
I240
aI192
aI304
aI384
asVprob
p4022
I98
sstp4023
a(I1
V2017:08:01 17:25:20
p4024
(dp4025
V1
p4026
(dp4027
Vcoords
p4028
(lp4029
I256
aI128
aI384
aI448
asVprob
p4030
I98
sstp4031
a(I1
V2017:08:01 17:25:40
p4032
(dp4033
V1
p4034
(dp4035
Vcoords
p4036
(lp4037
I96
aI112
aI240
aI464
asVprob
p4038
I97
sstp4039
a(I1
V2017:08:01 17:25:48
p4040
(dp4041
V1
p4042
(dp4043
Vcoords
p4044
(lp4045
I336
aI192
aI400
aI368
asVprob
p4046
I97
sstp4047
a(I1
V2017:08:01 17:26:26
p4048
(dp4049
V1
p4050
(dp4051
Vcoords
p4052
(lp4053
I16
aI-32
aI272
aI608
asVprob
p4054
I98
sstp4055
a(I1
V2017:08:01 17:27:08
p4056
(dp4057
V1
p4058
(dp4059
Vcoords
p4060
(lp4061
I272
aI256
aI336
aI352
asVprob
p4062
I86
sstp4063
a(I1
V2017:08:01 17:27:42
p4064
(dp4065
V1
p4066
(dp4067
Vcoords
p4068
(lp4069
I224
aI176
aI304
aI384
asVprob
p4070
I94
sstp4071
a(I1
V2017:08:01 17:27:52
p4072
(dp4073
V1
p4074
(dp4075
Vcoords
p4076
(lp4077
I272
aI256
aI336
aI352
asVprob
p4078
I85
sstp4079
a(I1
V2017:08:01 17:27:56
p4080
(dp4081
V1
p4082
(dp4083
Vcoords
p4084
(lp4085
I272
aI256
aI336
aI352
asVprob
p4086
I93
sstp4087
a(I1
V2017:08:01 17:30:46
p4088
(dp4089
V1
p4090
(dp4091
Vcoords
p4092
(lp4093
I304
aI160
aI400
aI416
asVprob
p4094
I98
sstp4095
a(I1
V2017:08:01 17:33:52
p4096
(dp4097
V1
p4098
(dp4099
Vcoords
p4100
(lp4101
I224
aI192
aI288
aI384
asVprob
p4102
I97
sstp4103
a(I2
V2017:08:01 17:34:16
p4104
(dp4105
V1
p4106
(dp4107
Vcoords
p4108
(lp4109
I576
aI224
aI656
aI416
asVprob
p4110
I97
ssV2
p4111
(dp4112
Vcoords
p4113
(lp4114
I384
aI256
aI448
aI416
asVprob
p4115
I92
sstp4116
a(I1
V2017:08:01 17:35:52
p4117
(dp4118
V1
p4119
(dp4120
Vcoords
p4121
(lp4122
I32
aI48
aI240
aI576
asVprob
p4123
I95
sstp4124
a(I1
V2017:08:01 17:38:48
p4125
(dp4126
V1
p4127
(dp4128
Vcoords
p4129
(lp4130
I224
aI144
aI320
aI432
asVprob
p4131
I96
sstp4132
a(I2
V2017:08:01 17:39:44
p4133
(dp4134
V1
p4135
(dp4136
Vcoords
p4137
(lp4138
I272
aI192
aI352
aI400
asVprob
p4139
I98
ssV2
p4140
(dp4141
Vcoords
p4142
(lp4143
I384
aI208
aI448
aI384
asVprob
p4144
I91
sstp4145
a(I1
V2017:08:01 17:44:38
p4146
(dp4147
V1
p4148
(dp4149
Vcoords
p4150
(lp4151
I400
aI192
aI496
aI400
asVprob
p4152
I81
sstp4153
a(I2
V2017:08:01 17:44:44
p4154
(dp4155
V1
p4156
(dp4157
Vcoords
p4158
(lp4159
I368
aI144
aI464
aI432
asVprob
p4160
I99
ssV2
p4161
(dp4162
Vcoords
p4163
(lp4164
I80
aI160
aI224
aI528
asVprob
p4165
I98
sstp4166
a(I1
V2017:08:01 17:51:06
p4167
(dp4168
V1
p4169
(dp4170
Vcoords
p4171
(lp4172
I256
aI192
aI336
aI384
asVprob
p4173
I91
sstp4174
a(I1
V2017:08:01 17:51:40
p4175
(dp4176
V1
p4177
(dp4178
Vcoords
p4179
(lp4180
I32
aI32
aI272
aI608
asVprob
p4181
I96
sstp4182
a(I1
V2017:08:01 17:53:30
p4183
(dp4184
V1
p4185
(dp4186
Vcoords
p4187
(lp4188
I352
aI192
aI416
aI368
asVprob
p4189
I98
sstp4190
a(I1
V2017:08:01 17:54:06
p4191
(dp4192
V1
p4193
(dp4194
Vcoords
p4195
(lp4196
I432
aI208
aI496
aI336
asVprob
p4197
I92
sstp4198
a(I1
V2017:08:01 17:58:42
p4199
(dp4200
V1
p4201
(dp4202
Vcoords
p4203
(lp4204
I272
aI208
aI352
aI416
asVprob
p4205
I98
sstp4206
a(I1
V2017:08:01 18:00:06
p4207
(dp4208
V1
p4209
(dp4210
Vcoords
p4211
(lp4212
I32
aI16
aI224
aI592
asVprob
p4213
I95
sstp4214
a(I1
V2017:08:01 18:00:16
p4215
(dp4216
V1
p4217
(dp4218
Vcoords
p4219
(lp4220
I320
aI176
aI416
aI416
asVprob
p4221
I98
sstp4222
a(I2
V2017:08:01 18:01:30
p4223
(dp4224
V1
p4225
(dp4226
Vcoords
p4227
(lp4228
I320
aI160
aI400
aI384
asVprob
p4229
I97
ssV2
p4230
(dp4231
Vcoords
p4232
(lp4233
I112
aI160
aI208
aI416
asVprob
p4234
I93
sstp4235
a(I1
V2017:08:01 18:02:52
p4236
(dp4237
V1
p4238
(dp4239
Vcoords
p4240
(lp4241
I304
aI160
aI384
aI416
asVprob
p4242
I98
sstp4243
a(I1
V2017:08:01 18:03:38
p4244
(dp4245
V1
p4246
(dp4247
Vcoords
p4248
(lp4249
I240
aI192
aI320
aI400
asVprob
p4250
I96
sstp4251
a(I1
V2017:08:01 18:03:44
p4252
(dp4253
V1
p4254
(dp4255
Vcoords
p4256
(lp4257
I320
aI192
aI384
aI384
asVprob
p4258
I92
sstp4259
a(I1
V2017:08:01 18:04:22
p4260
(dp4261
V1
p4262
(dp4263
Vcoords
p4264
(lp4265
I272
aI128
aI384
aI448
asVprob
p4266
I99
sstp4267
a(I1
V2017:08:01 18:07:06
p4268
(dp4269
V1
p4270
(dp4271
Vcoords
p4272
(lp4273
I336
aI80
aI464
aI464
asVprob
p4274
I98
sstp4275
a(I1
V2017:08:01 18:09:10
p4276
(dp4277
V1
p4278
(dp4279
Vcoords
p4280
(lp4281
I304
aI128
aI416
aI480
asVprob
p4282
I96
sstp4283
a(I2
V2017:08:01 18:12:24
p4284
(dp4285
V1
p4286
(dp4287
Vcoords
p4288
(lp4289
I160
aI144
aI272
aI448
asVprob
p4290
I97
ssV2
p4291
(dp4292
Vcoords
p4293
(lp4294
I256
aI112
aI400
aI496
asVprob
p4295
I97
sstp4296
a(I2
V2017:08:01 18:18:18
p4297
(dp4298
V1
p4299
(dp4300
Vcoords
p4301
(lp4302
I304
aI144
aI400
aI416
asVprob
p4303
I98
ssV2
p4304
(dp4305
Vcoords
p4306
(lp4307
I128
aI128
aI256
aI496
asVprob
p4308
I97
sstp4309
a(I1
V2017:08:01 18:18:24
p4310
(dp4311
V2
p4312
(dp4313
Vcoords
p4314
(lp4315
I272
aI208
aI336
aI368
asVprob
p4316
I87
sstp4317
a(I1
V2017:08:01 18:20:22
p4318
(dp4319
V1
p4320
(dp4321
Vcoords
p4322
(lp4323
I64
aI48
aI208
aI512
asVprob
p4324
I82
sstp4325
a(I1
V2017:08:01 18:23:08
p4326
(dp4327
V1
p4328
(dp4329
Vcoords
p4330
(lp4331
I288
aI224
aI352
aI384
asVprob
p4332
I96
sstp4333
a(I1
V2017:08:01 18:27:12
p4334
(dp4335
V1
p4336
(dp4337
Vcoords
p4338
(lp4339
I368
aI208
aI432
aI368
asVprob
p4340
I92
sstp4341
a(I1
V2017:08:01 18:27:58
p4342
(dp4343
V1
p4344
(dp4345
Vcoords
p4346
(lp4347
I304
aI208
aI368
aI384
asVprob
p4348
I98
sstp4349
a(I1
V2017:08:01 18:34:20
p4350
(dp4351
V1
p4352
(dp4353
Vcoords
p4354
(lp4355
I272
aI192
aI352
aI384
asVprob
p4356
I98
sstp4357
a(I1
V2017:08:01 18:37:38
p4358
(dp4359
V1
p4360
(dp4361
Vcoords
p4362
(lp4363
I224
aI160
aI304
aI400
asVprob
p4364
I97
sstp4365
a(I1
V2017:08:01 18:38:42
p4366
(dp4367
V1
p4368
(dp4369
Vcoords
p4370
(lp4371
I384
aI176
aI480
aI400
asVprob
p4372
I99
sstp4373
a(I1
V2017:08:01 18:40:16
p4374
(dp4375
V1
p4376
(dp4377
Vcoords
p4378
(lp4379
I96
aI192
aI176
aI432
asVprob
p4380
I99
sstp4381
a(I1
V2017:08:01 18:40:38
p4382
(dp4383
V1
p4384
(dp4385
Vcoords
p4386
(lp4387
I592
aI224
aI656
aI368
asVprob
p4388
I94
sstp4389
a(I1
V2017:08:01 18:46:20
p4390
(dp4391
V1
p4392
(dp4393
Vcoords
p4394
(lp4395
I336
aI192
aI400
aI368
asVprob
p4396
I95
sstp4397
a(I1
V2017:08:01 18:58:42
p4398
(dp4399
V1
p4400
(dp4401
Vcoords
p4402
(lp4403
I400
aI208
aI480
aI384
asVprob
p4404
I97
sstp4405
a(I1
V2017:08:01 19:01:48
p4406
(dp4407
V1
p4408
(dp4409
Vcoords
p4410
(lp4411
I224
aI128
aI352
aI448
asVprob
p4412
I99
sstp4413
a(I1
V2017:08:01 19:02:16
p4414
(dp4415
V1
p4416
(dp4417
Vcoords
p4418
(lp4419
I384
aI208
aI448
aI368
asVprob
p4420
I98
sstp4421
a(I1
V2017:08:01 19:02:50
p4422
(dp4423
V1
p4424
(dp4425
Vcoords
p4426
(lp4427
I624
aI176
aI720
aI400
asVprob
p4428
I94
sstp4429
a(I2
V2017:08:01 19:07:34
p4430
(dp4431
V1
p4432
(dp4433
Vcoords
p4434
(lp4435
I672
aI192
aI752
aI384
asVprob
p4436
I99
ssV2
p4437
(dp4438
Vcoords
p4439
(lp4440
I416
aI192
aI480
aI416
asVprob
p4441
I97
sstp4442
a(I1
V2017:08:01 19:09:42
p4443
(dp4444
V1
p4445
(dp4446
Vcoords
p4447
(lp4448
I320
aI192
aI384
aI384
asVprob
p4449
I97
sstp4450
a(I3
V2017:08:01 19:11:02
p4451
(dp4452
V1
p4453
(dp4454
Vcoords
p4455
(lp4456
I400
aI192
aI464
aI384
asVprob
p4457
I98
ssV3
p4458
(dp4459
Vcoords
p4460
(lp4461
I256
aI192
aI320
aI368
asVprob
p4462
I96
ssV2
p4463
(dp4464
Vcoords
p4465
(lp4466
I336
aI208
aI400
aI400
asVprob
p4467
I97
sstp4468
a(I1
V2017:08:01 19:13:10
p4469
(dp4470
V1
p4471
(dp4472
Vcoords
p4473
(lp4474
I352
aI192
aI432
aI400
asVprob
p4475
I99
sstp4476
a(I1
V2017:08:01 19:16:42
p4477
(dp4478
V1
p4479
(dp4480
Vcoords
p4481
(lp4482
I448
aI64
aI704
aI544
asVprob
p4483
I98
sstp4484
a(I1
V2017:08:01 19:17:18
p4485
(dp4486
V1
p4487
(dp4488
Vcoords
p4489
(lp4490
I704
aI224
aI768
aI368
asVprob
p4491
I96
sstp4492
a(I2
V2017:08:01 19:19:50
p4493
(dp4494
V1
p4495
(dp4496
Vcoords
p4497
(lp4498
I272
aI160
aI368
aI416
asVprob
p4499
I96
ssV2
p4500
(dp4501
Vcoords
p4502
(lp4503
I112
aI144
aI208
aI432
asVprob
p4504
I91
sstp4505
a(I2
V2017:08:01 19:20:06
p4506
(dp4507
V1
p4508
(dp4509
Vcoords
p4510
(lp4511
I592
aI176
aI704
aI384
asVprob
p4512
I98
ssV2
p4513
(dp4514
Vcoords
p4515
(lp4516
I512
aI208
aI576
aI352
asVprob
p4517
I94
sstp4518
a(I1
V2017:08:01 19:21:10
p4519
(dp4520
V1
p4521
(dp4522
Vcoords
p4523
(lp4524
I32
aI112
aI144
aI528
asVprob
p4525
I95
sstp4526
a(I1
V2017:08:01 19:23:20
p4527
(dp4528
V1
p4529
(dp4530
Vcoords
p4531
(lp4532
I288
aI176
aI352
aI384
asVprob
p4533
I98
sstp4534
a.