(lp0
(I2
V2017:07:26 12:12:26
p1
(dp2
V1
p3
(dp4
Vcoords
p5
(lp6
I336
aI352
aI384
aI480
asVprob
p7
I97
ssV2
p8
(dp9
Vcoords
p10
(lp11
I192
aI336
aI256
aI496
asVprob
p12
I96
sstp13
a(I1
V2017:07:26 12:12:58
p14
(dp15
V1
p16
(dp17
Vcoords
p18
(lp19
I320
aI384
aI368
aI480
asVprob
p20
I94
sstp21
a(I2
V2017:07:26 12:13:06
p22
(dp23
V1
p24
(dp25
Vcoords
p26
(lp27
I272
aI352
aI320
aI464
asVprob
p28
I91
ssV2
p29
(dp30
Vcoords
p31
(lp32
I256
aI352
aI304
aI480
asVprob
p33
I80
sstp34
a(I1
V2017:07:26 12:13:44
p35
(dp36
V1
p37
(dp38
Vcoords
p39
(lp40
I144
aI336
aI208
aI480
asVprob
p41
I96
sstp42
a(I2
V2017:07:26 12:13:52
p43
(dp44
V1
p45
(dp46
Vcoords
p47
(lp48
I128
aI336
aI192
aI480
asVprob
p49
I95
ssV2
p50
(dp51
Vcoords
p52
(lp53
I240
aI304
aI320
aI544
asVprob
p54
I91
sstp55
a(I1
V2017:07:26 12:14:06
p56
(dp57
V1
p58
(dp59
Vcoords
p60
(lp61
I128
aI336
aI192
aI480
asVprob
p62
I97
sstp63
a(I1
V2017:07:26 12:15:12
p64
(dp65
V1
p66
(dp67
Vcoords
p68
(lp69
I192
aI336
aI272
aI528
asVprob
p70
I98
sstp71
a(I1
V2017:07:26 12:15:52
p72
(dp73
V1
p74
(dp75
Vcoords
p76
(lp77
I176
aI304
aI288
aI592
asVprob
p78
I98
sstp79
a(I1
V2017:07:26 12:18:28
p80
(dp81
V1
p82
(dp83
Vcoords
p84
(lp85
I400
aI368
aI448
aI496
asVprob
p86
I95
sstp87
a(I1
V2017:07:26 12:18:32
p88
(dp89
V1
p90
(dp91
Vcoords
p92
(lp93
I192
aI320
aI256
aI496
asVprob
p94
I97
sstp95
a(I1
V2017:07:26 12:23:56
p96
(dp97
V2
p98
(dp99
Vcoords
p100
(lp101
I368
aI384
aI416
aI464
asVprob
p102
I85
sstp103
a(I1
V2017:07:26 12:26:32
p104
(dp105
V1
p106
(dp107
Vcoords
p108
(lp109
I304
aI368
aI352
aI480
asVprob
p110
I97
sstp111
a(I2
V2017:07:26 12:27:04
p112
(dp113
V1
p114
(dp115
Vcoords
p116
(lp117
I112
aI272
aI208
aI512
asVprob
p118
I99
ssV2
p119
(dp120
Vcoords
p121
(lp122
I224
aI192
aI384
aI592
asVprob
p123
I98
sstp124
a(I1
V2017:07:26 12:27:10
p125
(dp126
V1
p127
(dp128
Vcoords
p129
(lp130
I304
aI352
aI352
aI464
asVprob
p131
I88
sstp132
a(I1
V2017:07:26 12:27:14
p133
(dp134
V1
p135
(dp136
Vcoords
p137
(lp138
I336
aI384
aI384
aI464
asVprob
p139
I88
sstp140
a(I4
V2017:07:26 12:27:48
p141
(dp142
V1
p143
(dp144
Vcoords
p145
(lp146
I208
aI288
aI288
aI528
asVprob
p147
I98
ssV3
p148
(dp149
Vcoords
p150
(lp151
I96
aI304
aI176
aI496
asVprob
p152
I96
ssV2
p153
(dp154
Vcoords
p155
(lp156
I320
aI160
aI464
aI608
asVprob
p157
I96
ssV4
p158
(dp159
Vcoords
p160
(lp161
I272
aI336
aI320
aI480
asVprob
p162
I92
sstp163
a(I2
V2017:07:26 12:28:40
p164
(dp165
V1
p166
(dp167
Vcoords
p168
(lp169
I176
aI240
aI288
aI592
asVprob
p170
I93
ssV2
p171
(dp172
Vcoords
p173
(lp174
I112
aI256
aI192
aI544
asVprob
p175
I90
sstp176
a(I1
V2017:07:26 12:28:50
p177
(dp178
V1
p179
(dp180
Vcoords
p181
(lp182
I272
aI368
aI320
aI464
asVprob
p183
I93
sstp184
a(I1
V2017:07:26 12:29:06
p185
(dp186
V1
p187
(dp188
Vcoords
p189
(lp190
I96
aI240
aI176
aI544
asVprob
p191
I96
sstp192
a(I1
V2017:07:26 12:29:12
p193
(dp194
V1
p195
(dp196
Vcoords
p197
(lp198
I272
aI352
aI320
aI464
asVprob
p199
I96
sstp200
a(I3
V2017:07:26 12:29:46
p201
(dp202
V1
p203
(dp204
Vcoords
p205
(lp206
I224
aI368
aI304
aI592
asVprob
p207
I97
ssV3
p208
(dp209
Vcoords
p210
(lp211
I160
aI304
aI224
aI544
asVprob
p212
I95
ssV2
p213
(dp214
Vcoords
p215
(lp216
I96
aI256
aI176
aI576
asVprob
p217
I96
sstp218
a(I1
V2017:07:26 12:30:48
p219
(dp220
V1
p221
(dp222
Vcoords
p223
(lp224
I448
aI288
aI560
aI576
asVprob
p225
I99
sstp226
a(I1
V2017:07:26 12:31:00
p227
(dp228
V1
p229
(dp230
Vcoords
p231
(lp232
I128
aI304
aI208
aI512
asVprob
p233
I97
sstp234
a(I1
V2017:07:26 12:31:20
p235
(dp236
V1
p237
(dp238
Vcoords
p239
(lp240
I208
aI320
aI304
aI544
asVprob
p241
I97
sstp242
a(I2
V2017:07:26 12:32:08
p243
(dp244
V1
p245
(dp246
Vcoords
p247
(lp248
I96
aI320
aI160
aI512
asVprob
p249
I97
ssV2
p250
(dp251
Vcoords
p252
(lp253
I272
aI368
aI320
aI480
asVprob
p254
I93
sstp255
a(I1
V2017:07:26 12:32:58
p256
(dp257
V2
p258
(dp259
Vcoords
p260
(lp261
I416
aI336
aI496
aI528
asVprob
p262
I97
sstp263
a(I1
V2017:07:26 12:33:28
p264
(dp265
V1
p266
(dp267
Vcoords
p268
(lp269
I656
aI384
aI704
aI496
asVprob
p270
I93
sstp271
a(I1
V2017:07:26 12:36:10
p272
(dp273
V1
p274
(dp275
Vcoords
p276
(lp277
I640
aI352
aI720
aI544
asVprob
p278
I98
sstp279
a(I3
V2017:07:26 12:36:22
p280
(dp281
V1
p282
(dp283
Vcoords
p284
(lp285
I208
aI336
aI272
aI496
asVprob
p286
I98
ssV2
p287
(dp288
Vcoords
p289
(lp290
I320
aI368
aI368
aI512
asVprob
p291
I97
ssV4
p292
(dp293
Vcoords
p294
(lp295
I272
aI352
aI320
aI496
asVprob
p296
I87
sstp297
a(I1
V2017:07:26 12:37:28
p298
(dp299
V1
p300
(dp301
Vcoords
p302
(lp303
I368
aI368
aI432
aI512
asVprob
p304
I94
sstp305
a(I1
V2017:07:26 12:38:16
p306
(dp307
V1
p308
(dp309
Vcoords
p310
(lp311
I160
aI320
aI224
aI496
asVprob
p312
I97
sstp313
a(I3
V2017:07:26 12:38:44
p314
(dp315
V1
p316
(dp317
Vcoords
p318
(lp319
I96
aI336
aI160
aI512
asVprob
p320
I97
ssV3
p321
(dp322
Vcoords
p323
(lp324
I336
aI384
aI384
aI480
asVprob
p325
I94
ssV2
p326
(dp327
Vcoords
p328
(lp329
I272
aI352
aI320
aI464
asVprob
p330
I95
sstp331
a(I2
V2017:07:26 12:39:16
p332
(dp333
V1
p334
(dp335
Vcoords
p336
(lp337
I672
aI384
aI720
aI496
asVprob
p338
I93
ssV2
p339
(dp340
Vcoords
p341
(lp342
I688
aI384
aI736
aI496
asVprob
p343
I92
sstp344
a(I2
V2017:07:26 12:39:28
p345
(dp346
V1
p347
(dp348
Vcoords
p349
(lp350
I672
aI384
aI720
aI496
asVprob
p351
I97
ssV2
p352
(dp353
Vcoords
p354
(lp355
I736
aI368
aI784
aI480
asVprob
p356
I93
sstp357
a(I3
V2017:07:26 12:39:38
p358
(dp359
V1
p360
(dp361
Vcoords
p362
(lp363
I656
aI368
aI704
aI496
asVprob
p364
I95
ssV3
p365
(dp366
Vcoords
p367
(lp368
I672
aI368
aI720
aI496
asVprob
p369
I88
ssV2
p370
(dp371
Vcoords
p372
(lp373
I704
aI368
aI752
aI480
asVprob
p374
I94
sstp375
a(I2
V2017:07:26 12:41:18
p376
(dp377
V1
p378
(dp379
Vcoords
p380
(lp381
I304
aI368
aI352
aI480
asVprob
p382
I92
ssV2
p383
(dp384
Vcoords
p385
(lp386
I320
aI368
aI368
aI464
asVprob
p387
I86
sstp388
a(I1
V2017:07:26 12:43:16
p389
(dp390
V1
p391
(dp392
Vcoords
p393
(lp394
I304
aI336
aI352
aI496
asVprob
p395
I96
sstp396
a(I1
V2017:07:26 12:44:10
p397
(dp398
V1
p399
(dp400
Vcoords
p401
(lp402
I352
aI336
aI416
aI528
asVprob
p403
I97
sstp404
a(I1
V2017:07:26 12:44:16
p405
(dp406
V1
p407
(dp408
Vcoords
p409
(lp410
I160
aI320
aI256
aI560
asVprob
p411
I98
sstp412
a(I4
V2017:07:26 12:44:36
p413
(dp414
V1
p415
(dp416
Vcoords
p417
(lp418
I416
aI0
aI832
aI640
asVprob
p419
I97
ssV3
p420
(dp421
Vcoords
p422
(lp423
I144
aI160
aI336
aI624
asVprob
p424
I95
ssV2
p425
(dp426
Vcoords
p427
(lp428
I400
aI352
aI448
aI528
asVprob
p429
I96
ssV4
p430
(dp431
Vcoords
p432
(lp433
I304
aI352
aI368
aI560
asVprob
p434
I94
sstp435
a(I1
V2017:07:26 12:45:12
p436
(dp437
V1
p438
(dp439
Vcoords
p440
(lp441
I352
aI384
aI400
aI464
asVprob
p442
I90
sstp443
a(I2
V2017:07:26 12:45:40
p444
(dp445
V1
p446
(dp447
Vcoords
p448
(lp449
I288
aI352
aI336
aI480
asVprob
p450
I90
ssV2
p451
(dp452
Vcoords
p453
(lp454
I304
aI352
aI352
aI480
asVprob
p455
I89
sstp456
a(I1
V2017:07:26 12:46:36
p457
(dp458
V1
p459
(dp460
Vcoords
p461
(lp462
I304
aI368
aI352
aI480
asVprob
p463
I90
sstp464
a(I1
V2017:07:26 12:46:58
p465
(dp466
V1
p467
(dp468
Vcoords
p469
(lp470
I256
aI352
aI304
aI464
asVprob
p471
I86
sstp472
a(I2
V2017:07:26 12:48:12
p473
(dp474
V1
p475
(dp476
Vcoords
p477
(lp478
I96
aI272
aI208
aI544
asVprob
p479
I99
ssV2
p480
(dp481
Vcoords
p482
(lp483
I320
aI368
aI368
aI464
asVprob
p484
I81
sstp485
a(I1
V2017:07:26 12:48:36
p486
(dp487
V1
p488
(dp489
Vcoords
p490
(lp491
I320
aI384
aI368
aI480
asVprob
p492
I94
sstp493
a(I2
V2017:07:26 12:49:14
p494
(dp495
V1
p496
(dp497
Vcoords
p498
(lp499
I128
aI304
aI208
aI512
asVprob
p500
I98
ssV2
p501
(dp502
Vcoords
p503
(lp504
I336
aI352
aI384
aI496
asVprob
p505
I91
sstp506
a(I2
V2017:07:26 12:50:14
p507
(dp508
V1
p509
(dp510
Vcoords
p511
(lp512
I304
aI336
aI368
aI496
asVprob
p513
I97
ssV2
p514
(dp515
Vcoords
p516
(lp517
I144
aI304
aI208
aI496
asVprob
p518
I96
sstp519
a(I1
V2017:07:26 12:50:22
p520
(dp521
V3
p522
(dp523
Vcoords
p524
(lp525
I96
aI288
aI160
aI480
asVprob
p526
I82
sstp527
a(I1
V2017:07:26 12:50:48
p528
(dp529
V1
p530
(dp531
Vcoords
p532
(lp533
I208
aI272
aI320
aI560
asVprob
p534
I99
sstp535
a(I1
V2017:07:26 12:50:58
p536
(dp537
V1
p538
(dp539
Vcoords
p540
(lp541
I576
aI352
aI640
aI512
asVprob
p542
I87
sstp543
a(I1
V2017:07:26 12:51:44
p544
(dp545
V1
p546
(dp547
Vcoords
p548
(lp549
I176
aI240
aI288
aI576
asVprob
p550
I99
sstp551
a(I1
V2017:07:26 12:52:38
p552
(dp553
V1
p554
(dp555
Vcoords
p556
(lp557
I96
aI304
aI176
aI528
asVprob
p558
I91
sstp559
a(I4
V2017:07:26 12:53:00
p560
(dp561
V1
p562
(dp563
Vcoords
p564
(lp565
I432
aI272
aI560
aI608
asVprob
p566
I99
ssV3
p567
(dp568
Vcoords
p569
(lp570
I128
aI304
aI208
aI512
asVprob
p571
I87
ssV2
p572
(dp573
Vcoords
p574
(lp575
I272
aI320
aI352
aI528
asVprob
p576
I98
ssV4
p577
(dp578
Vcoords
p579
(lp580
I208
aI320
aI272
aI512
asVprob
p581
I82
sstp582
a(I5
V2017:07:26 12:53:10
p583
(dp584
V1
p585
(dp586
Vcoords
p587
(lp588
I96
aI272
aI192
aI544
asVprob
p589
I98
ssV3
p590
(dp591
Vcoords
p592
(lp593
I256
aI352
aI320
aI512
asVprob
p594
I95
ssV2
p595
(dp596
Vcoords
p597
(lp598
I192
aI320
aI256
aI496
asVprob
p599
I97
ssV5
p600
(dp601
Vcoords
p602
(lp603
I320
aI352
aI368
aI464
asVprob
p604
I89
ssV4
p605
(dp606
Vcoords
p607
(lp608
I400
aI336
aI464
aI528
asVprob
p609
I93
sstp610
a(I1
V2017:07:26 12:54:12
p611
(dp612
V1
p613
(dp614
Vcoords
p615
(lp616
I272
aI368
aI320
aI480
asVprob
p617
I95
sstp618
a(I2
V2017:07:26 12:54:46
p619
(dp620
V1
p621
(dp622
Vcoords
p623
(lp624
I96
aI304
aI176
aI512
asVprob
p625
I97
ssV2
p626
(dp627
Vcoords
p628
(lp629
I256
aI336
aI336
aI528
asVprob
p630
I94
sstp631
a(I1
V2017:07:26 12:55:08
p632
(dp633
V1
p634
(dp635
Vcoords
p636
(lp637
I272
aI352
aI336
aI480
asVprob
p638
I83
sstp639
a(I1
V2017:07:26 12:55:34
p640
(dp641
V1
p642
(dp643
Vcoords
p644
(lp645
I256
aI352
aI304
aI480
asVprob
p646
I94
sstp647
a(I1
V2017:07:26 12:55:38
p648
(dp649
V1
p650
(dp651
Vcoords
p652
(lp653
I128
aI288
aI224
aI528
asVprob
p654
I97
sstp655
a(I2
V2017:07:26 12:56:20
p656
(dp657
V1
p658
(dp659
Vcoords
p660
(lp661
I96
aI176
aI272
aI608
asVprob
p662
I97
ssV2
p663
(dp664
Vcoords
p665
(lp666
I288
aI336
aI336
aI480
asVprob
p667
I87
sstp668
a(I1
V2017:07:26 12:56:44
p669
(dp670
V1
p671
(dp672
Vcoords
p673
(lp674
I304
aI368
aI352
aI464
asVprob
p675
I95
sstp676
a(I1
V2017:07:26 12:56:48
p677
(dp678
V1
p679
(dp680
Vcoords
p681
(lp682
I176
aI320
aI256
aI512
asVprob
p683
I96
sstp684
a(I2
V2017:07:26 12:57:28
p685
(dp686
V1
p687
(dp688
Vcoords
p689
(lp690
I512
aI320
aI608
aI576
asVprob
p691
I98
ssV2
p692
(dp693
Vcoords
p694
(lp695
I592
aI336
aI672
aI560
asVprob
p696
I94
sstp697
a(I2
V2017:07:26 12:58:00
p698
(dp699
V1
p700
(dp701
Vcoords
p702
(lp703
I448
aI368
aI496
aI480
asVprob
p704
I93
ssV2
p705
(dp706
Vcoords
p707
(lp708
I624
aI336
aI672
aI512
asVprob
p709
I92
sstp710
a(I2
V2017:07:26 12:58:12
p711
(dp712
V1
p713
(dp714
Vcoords
p715
(lp716
I640
aI384
aI704
aI528
asVprob
p717
I89
ssV3
p718
(dp719
Vcoords
p720
(lp721
I304
aI368
aI352
aI480
asVprob
p722
I80
sstp723
a(I4
V2017:07:26 12:58:16
p724
(dp725
V1
p726
(dp727
Vcoords
p728
(lp729
I272
aI368
aI320
aI480
asVprob
p730
I92
ssV3
p731
(dp732
Vcoords
p733
(lp734
I336
aI352
aI384
aI464
asVprob
p735
I90
ssV5
p736
(dp737
Vcoords
p738
(lp739
I576
aI384
aI624
aI496
asVprob
p740
I82
ssV4
p741
(dp742
Vcoords
p743
(lp744
I624
aI368
aI672
aI496
asVprob
p745
I82
sstp746
a(I1
V2017:07:26 12:58:34
p747
(dp748
V3
p749
(dp750
Vcoords
p751
(lp752
I480
aI384
aI528
aI496
asVprob
p753
I85
sstp754
a(I3
V2017:07:26 12:58:38
p755
(dp756
V1
p757
(dp758
Vcoords
p759
(lp760
I416
aI368
aI464
aI480
asVprob
p761
I91
ssV3
p762
(dp763
Vcoords
p764
(lp765
I272
aI368
aI320
aI464
asVprob
p766
I81
ssV2
p767
(dp768
Vcoords
p769
(lp770
I688
aI368
aI736
aI480
asVprob
p771
I83
sstp772
a(I2
V2017:07:26 12:58:44
p773
(dp774
V1
p775
(dp776
Vcoords
p777
(lp778
I288
aI304
aI368
aI528
asVprob
p779
I94
ssV2
p780
(dp781
Vcoords
p782
(lp783
I192
aI288
aI256
aI496
asVprob
p784
I92
sstp785
a(I1
V2017:07:26 12:58:56
p786
(dp787
V4
p788
(dp789
Vcoords
p790
(lp791
I368
aI384
aI416
aI464
asVprob
p792
I80
sstp793
a(I2
V2017:07:26 12:59:06
p794
(dp795
V1
p796
(dp797
Vcoords
p798
(lp799
I320
aI336
aI384
aI496
asVprob
p800
I96
ssV2
p801
(dp802
Vcoords
p803
(lp804
I624
aI368
aI672
aI480
asVprob
p805
I92
sstp806
a(I1
V2017:07:26 12:59:12
p807
(dp808
V4
p809
(dp810
Vcoords
p811
(lp812
I496
aI384
aI544
aI496
asVprob
p813
I80
sstp814
a(I1
V2017:07:26 12:59:16
p815
(dp816
V1
p817
(dp818
Vcoords
p819
(lp820
I640
aI384
aI688
aI496
asVprob
p821
I91
sstp822
a(I2
V2017:07:26 12:59:26
p823
(dp824
V1
p825
(dp826
Vcoords
p827
(lp828
I176
aI288
aI256
aI528
asVprob
p829
I98
ssV2
p830
(dp831
Vcoords
p832
(lp833
I256
aI288
aI352
aI528
asVprob
p834
I97
sstp835
a(I1
V2017:07:26 13:00:40
p836
(dp837
V1
p838
(dp839
Vcoords
p840
(lp841
I256
aI352
aI304
aI496
asVprob
p842
I97
sstp843
a(I2
V2017:07:26 13:02:10
p844
(dp845
V1
p846
(dp847
Vcoords
p848
(lp849
I112
aI272
aI224
aI544
asVprob
p850
I99
ssV2
p851
(dp852
Vcoords
p853
(lp854
I272
aI256
aI384
aI560
asVprob
p855
I97
sstp856
a(I1
V2017:07:26 13:02:26
p857
(dp858
V1
p859
(dp860
Vcoords
p861
(lp862
I112
aI240
aI240
aI624
asVprob
p863
I98
sstp864
a(I1
V2017:07:26 13:02:56
p865
(dp866
V1
p867
(dp868
Vcoords
p869
(lp870
I272
aI368
aI320
aI464
asVprob
p871
I94
sstp872
a(I2
V2017:07:26 13:04:14
p873
(dp874
V1
p875
(dp876
Vcoords
p877
(lp878
I304
aI368
aI352
aI480
asVprob
p879
I93
ssV2
p880
(dp881
Vcoords
p882
(lp883
I320
aI368
aI368
aI480
asVprob
p884
I88
sstp885
a(I1
V2017:07:26 13:04:30
p886
(dp887
V1
p888
(dp889
Vcoords
p890
(lp891
I256
aI272
aI352
aI560
asVprob
p892
I98
sstp893
a(I1
V2017:07:26 13:04:40
p894
(dp895
V1
p896
(dp897
Vcoords
p898
(lp899
I160
aI320
aI224
aI480
asVprob
p900
I97
sstp901
a(I1
V2017:07:26 13:05:06
p902
(dp903
V1
p904
(dp905
Vcoords
p906
(lp907
I128
aI240
aI256
aI560
asVprob
p908
I99
sstp909
a(I1
V2017:07:26 13:05:36
p910
(dp911
V1
p912
(dp913
Vcoords
p914
(lp915
I128
aI336
aI192
aI480
asVprob
p916
I95
sstp917
a(I1
V2017:07:26 13:06:06
p918
(dp919
V2
p920
(dp921
Vcoords
p922
(lp923
I96
aI208
aI208
aI608
asVprob
p924
I90
sstp925
a(I1
V2017:07:26 13:06:30
p926
(dp927
V1
p928
(dp929
Vcoords
p930
(lp931
I304
aI352
aI352
aI480
asVprob
p932
I94
sstp933
a(I1
V2017:07:26 13:07:00
p934
(dp935
V2
p936
(dp937
Vcoords
p938
(lp939
I336
aI384
aI384
aI464
asVprob
p940
I92
sstp941
a(I1
V2017:07:26 13:08:28
p942
(dp943
V1
p944
(dp945
Vcoords
p946
(lp947
I304
aI352
aI352
aI512
asVprob
p948
I89
sstp949
a(I1
V2017:07:26 13:09:06
p950
(dp951
V1
p952
(dp953
Vcoords
p954
(lp955
I320
aI352
aI368
aI464
asVprob
p956
I92
sstp957
a(I1
V2017:07:26 13:10:04
p958
(dp959
V3
p960
(dp961
Vcoords
p962
(lp963
I256
aI368
aI304
aI448
asVprob
p964
I84
sstp965
a(I1
V2017:07:26 13:10:22
p966
(dp967
V1
p968
(dp969
Vcoords
p970
(lp971
I112
aI336
aI176
aI480
asVprob
p972
I94
sstp973
a(I1
V2017:07:26 13:10:28
p974
(dp975
V1
p976
(dp977
Vcoords
p978
(lp979
I160
aI320
aI224
aI512
asVprob
p980
I95
sstp981
a(I1
V2017:07:26 13:10:32
p982
(dp983
V1
p984
(dp985
Vcoords
p986
(lp987
I256
aI352
aI304
aI464
asVprob
p988
I89
sstp989
a(I2
V2017:07:26 13:12:22
p990
(dp991
V1
p992
(dp993
Vcoords
p994
(lp995
I160
aI304
aI256
aI576
asVprob
p996
I99
ssV2
p997
(dp998
Vcoords
p999
(lp1000
I256
aI336
aI304
aI480
asVprob
p1001
I95
sstp1002
a(I2
V2017:07:26 13:13:22
p1003
(dp1004
V1
p1005
(dp1006
Vcoords
p1007
(lp1008
I96
aI288
aI176
aI528
asVprob
p1009
I97
ssV2
p1010
(dp1011
Vcoords
p1012
(lp1013
I176
aI288
aI272
aI528
asVprob
p1014
I96
sstp1015
a(I1
V2017:07:26 13:14:48
p1016
(dp1017
V1
p1018
(dp1019
Vcoords
p1020
(lp1021
I304
aI352
aI352
aI480
asVprob
p1022
I91
sstp1023
a(I1
V2017:07:26 13:14:58
p1024
(dp1025
V1
p1026
(dp1027
Vcoords
p1028
(lp1029
I496
aI368
aI544
aI496
asVprob
p1030
I94
sstp1031
a(I3
V2017:07:26 13:17:02
p1032
(dp1033
V1
p1034
(dp1035
Vcoords
p1036
(lp1037
I224
aI272
aI336
aI560
asVprob
p1038
I99
ssV3
p1039
(dp1040
Vcoords
p1041
(lp1042
I96
aI288
aI192
aI560
asVprob
p1043
I85
ssV2
p1044
(dp1045
Vcoords
p1046
(lp1047
I128
aI288
aI240
aI544
asVprob
p1048
I91
sstp1049
a(I2
V2017:07:26 13:17:20
p1050
(dp1051
V1
p1052
(dp1053
Vcoords
p1054
(lp1055
I96
aI320
aI160
aI512
asVprob
p1056
I97
ssV2
p1057
(dp1058
Vcoords
p1059
(lp1060
I160
aI304
aI240
aI512
asVprob
p1061
I96
sstp1062
a(I1
V2017:07:26 13:18:10
p1063
(dp1064
V1
p1065
(dp1066
Vcoords
p1067
(lp1068
I608
aI336
aI672
aI528
asVprob
p1069
I95
sstp1070
a(I1
V2017:07:26 13:18:14
p1071
(dp1072
V1
p1073
(dp1074
Vcoords
p1075
(lp1076
I256
aI352
aI320
aI496
asVprob
p1077
I96
sstp1078
a(I1
V2017:07:26 13:19:08
p1079
(dp1080
V1
p1081
(dp1082
Vcoords
p1083
(lp1084
I272
aI368
aI320
aI480
asVprob
p1085
I88
sstp1086
a(I1
V2017:07:26 13:19:12
p1087
(dp1088
V1
p1089
(dp1090
Vcoords
p1091
(lp1092
I192
aI320
aI256
aI496
asVprob
p1093
I89
sstp1094
a(I1
V2017:07:26 13:19:54
p1095
(dp1096
V1
p1097
(dp1098
Vcoords
p1099
(lp1100
I192
aI336
aI256
aI480
asVprob
p1101
I93
sstp1102
a(I1
V2017:07:26 13:20:00
p1103
(dp1104
V1
p1105
(dp1106
Vcoords
p1107
(lp1108
I192
aI320
aI256
aI512
asVprob
p1109
I94
sstp1110
a(I1
V2017:07:26 13:20:30
p1111
(dp1112
V1
p1113
(dp1114
Vcoords
p1115
(lp1116
I304
aI336
aI384
aI496
asVprob
p1117
I98
sstp1118
a(I1
V2017:07:26 13:20:46
p1119
(dp1120
V1
p1121
(dp1122
Vcoords
p1123
(lp1124
I256
aI352
aI320
aI480
asVprob
p1125
I94
sstp1126
a(I3
V2017:07:26 13:21:04
p1127
(dp1128
V1
p1129
(dp1130
Vcoords
p1131
(lp1132
I256
aI320
aI320
aI496
asVprob
p1133
I96
ssV3
p1134
(dp1135
Vcoords
p1136
(lp1137
I400
aI368
aI448
aI496
asVprob
p1138
I93
ssV2
p1139
(dp1140
Vcoords
p1141
(lp1142
I336
aI352
aI384
aI496
asVprob
p1143
I94
sstp1144
a(I1
V2017:07:26 13:21:22
p1145
(dp1146
V1
p1147
(dp1148
Vcoords
p1149
(lp1150
I288
aI352
aI336
aI464
asVprob
p1151
I97
sstp1152
a(I1
V2017:07:26 13:21:26
p1153
(dp1154
V2
p1155
(dp1156
Vcoords
p1157
(lp1158
I336
aI384
aI384
aI496
asVprob
p1159
I83
sstp1160
a(I1
V2017:07:26 13:21:44
p1161
(dp1162
V1
p1163
(dp1164
Vcoords
p1165
(lp1166
I352
aI368
aI400
aI480
asVprob
p1167
I85
sstp1168
a(I2
V2017:07:26 13:22:02
p1169
(dp1170
V1
p1171
(dp1172
Vcoords
p1173
(lp1174
I112
aI256
aI224
aI560
asVprob
p1175
I98
ssV2
p1176
(dp1177
Vcoords
p1178
(lp1179
I352
aI368
aI400
aI496
asVprob
p1180
I88
sstp1181
a(I1
V2017:07:26 13:22:32
p1182
(dp1183
V2
p1184
(dp1185
Vcoords
p1186
(lp1187
I272
aI368
aI320
aI464
asVprob
p1188
I95
sstp1189
a(I1
V2017:07:26 13:22:36
p1190
(dp1191
V1
p1192
(dp1193
Vcoords
p1194
(lp1195
I176
aI320
aI240
aI496
asVprob
p1196
I87
sstp1197
a(I1
V2017:07:26 13:23:18
p1198
(dp1199
V1
p1200
(dp1201
Vcoords
p1202
(lp1203
I144
aI304
aI240
aI528
asVprob
p1204
I96
sstp1205
a(I2
V2017:07:26 13:23:38
p1206
(dp1207
V1
p1208
(dp1209
Vcoords
p1210
(lp1211
I128
aI320
aI192
aI480
asVprob
p1212
I97
ssV2
p1213
(dp1214
Vcoords
p1215
(lp1216
I320
aI368
aI368
aI496
asVprob
p1217
I94
sstp1218
a(I1
V2017:07:26 13:24:02
p1219
(dp1220
V2
p1221
(dp1222
Vcoords
p1223
(lp1224
I416
aI384
aI464
aI496
asVprob
p1225
I83
sstp1226
a(I1
V2017:07:26 13:24:06
p1227
(dp1228
V2
p1229
(dp1230
Vcoords
p1231
(lp1232
I656
aI384
aI704
aI496
asVprob
p1233
I85
sstp1234
a(I1
V2017:07:26 13:24:14
p1235
(dp1236
V1
p1237
(dp1238
Vcoords
p1239
(lp1240
I656
aI384
aI704
aI496
asVprob
p1241
I88
sstp1242
a(I1
V2017:07:26 13:24:20
p1243
(dp1244
V1
p1245
(dp1246
Vcoords
p1247
(lp1248
I688
aI384
aI736
aI496
asVprob
p1249
I90
sstp1250
a(I2
V2017:07:26 13:24:58
p1251
(dp1252
V1
p1253
(dp1254
Vcoords
p1255
(lp1256
I272
aI320
aI352
aI528
asVprob
p1257
I96
ssV2
p1258
(dp1259
Vcoords
p1260
(lp1261
I144
aI304
aI224
aI496
asVprob
p1262
I94
sstp1263
a(I1
V2017:07:26 13:26:16
p1264
(dp1265
V1
p1266
(dp1267
Vcoords
p1268
(lp1269
I176
aI304
aI256
aI512
asVprob
p1270
I95
sstp1271
a(I2
V2017:07:26 13:26:38
p1272
(dp1273
V3
p1274
(dp1275
Vcoords
p1276
(lp1277
I272
aI368
aI320
aI464
asVprob
p1278
I85
ssV5
p1279
(dp1280
Vcoords
p1281
(lp1282
I256
aI368
aI304
aI464
asVprob
p1283
I82
sstp1284
a(I2
V2017:07:26 13:27:02
p1285
(dp1286
V1
p1287
(dp1288
Vcoords
p1289
(lp1290
I208
aI352
aI272
aI496
asVprob
p1291
I94
ssV2
p1292
(dp1293
Vcoords
p1294
(lp1295
I256
aI384
aI304
aI496
asVprob
p1296
I90
sstp1297
a(I1
V2017:07:26 13:27:14
p1298
(dp1299
V1
p1300
(dp1301
Vcoords
p1302
(lp1303
I320
aI368
aI368
aI464
asVprob
p1304
I94
sstp1305
a(I1
V2017:07:26 13:27:28
p1306
(dp1307
V1
p1308
(dp1309
Vcoords
p1310
(lp1311
I96
aI320
aI160
aI512
asVprob
p1312
I98
sstp1313
a(I1
V2017:07:26 13:27:46
p1314
(dp1315
V1
p1316
(dp1317
Vcoords
p1318
(lp1319
I128
aI320
aI208
aI496
asVprob
p1320
I95
sstp1321
a(I1
V2017:07:26 13:28:16
p1322
(dp1323
V1
p1324
(dp1325
Vcoords
p1326
(lp1327
I256
aI368
aI304
aI496
asVprob
p1328
I95
sstp1329
a(I1
V2017:07:26 13:29:12
p1330
(dp1331
V1
p1332
(dp1333
Vcoords
p1334
(lp1335
I736
aI384
aI784
aI480
asVprob
p1336
I95
sstp1337
a(I2
V2017:07:26 13:29:50
p1338
(dp1339
V1
p1340
(dp1341
Vcoords
p1342
(lp1343
I256
aI352
aI304
aI480
asVprob
p1344
I96
ssV2
p1345
(dp1346
Vcoords
p1347
(lp1348
I272
aI352
aI320
aI480
asVprob
p1349
I80
sstp1350
a(I1
V2017:07:26 13:30:36
p1351
(dp1352
V1
p1353
(dp1354
Vcoords
p1355
(lp1356
I112
aI304
aI208
aI528
asVprob
p1357
I98
sstp1358
a(I1
V2017:07:26 13:31:14
p1359
(dp1360
V1
p1361
(dp1362
Vcoords
p1363
(lp1364
I144
aI224
aI304
aI576
asVprob
p1365
I99
sstp1366
a(I1
V2017:07:26 13:32:02
p1367
(dp1368
V1
p1369
(dp1370
Vcoords
p1371
(lp1372
I112
aI336
aI176
aI480
asVprob
p1373
I96
sstp1374
a(I1
V2017:07:26 13:32:40
p1375
(dp1376
V4
p1377
(dp1378
Vcoords
p1379
(lp1380
I288
aI368
aI336
aI464
asVprob
p1381
I80
sstp1382
a(I2
V2017:07:26 13:32:48
p1383
(dp1384
V1
p1385
(dp1386
Vcoords
p1387
(lp1388
I160
aI272
aI256
aI544
asVprob
p1389
I99
ssV2
p1390
(dp1391
Vcoords
p1392
(lp1393
I240
aI272
aI352
aI576
asVprob
p1394
I98
sstp1395
a(I1
V2017:07:26 13:34:34
p1396
(dp1397
V1
p1398
(dp1399
Vcoords
p1400
(lp1401
I176
aI224
aI336
aI592
asVprob
p1402
I97
sstp1403
a(I1
V2017:07:26 13:34:52
p1404
(dp1405
V2
p1406
(dp1407
Vcoords
p1408
(lp1409
I256
aI368
aI304
aI464
asVprob
p1410
I92
sstp1411
a(I1
V2017:07:26 13:34:56
p1412
(dp1413
V2
p1414
(dp1415
Vcoords
p1416
(lp1417
I160
aI336
aI224
aI496
asVprob
p1418
I81
sstp1419
a(I1
V2017:07:26 13:35:36
p1420
(dp1421
V1
p1422
(dp1423
Vcoords
p1424
(lp1425
I224
aI272
aI336
aI560
asVprob
p1426
I99
sstp1427
a(I1
V2017:07:26 13:36:24
p1428
(dp1429
V1
p1430
(dp1431
Vcoords
p1432
(lp1433
I224
aI320
aI304
aI528
asVprob
p1434
I98
sstp1435
a(I1
V2017:07:26 13:38:56
p1436
(dp1437
V1
p1438
(dp1439
Vcoords
p1440
(lp1441
I256
aI368
aI304
aI464
asVprob
p1442
I94
sstp1443
a(I1
V2017:07:26 13:39:04
p1444
(dp1445
V1
p1446
(dp1447
Vcoords
p1448
(lp1449
I96
aI336
aI160
aI496
asVprob
p1450
I98
sstp1451
a(I2
V2017:07:26 13:39:58
p1452
(dp1453
V1
p1454
(dp1455
Vcoords
p1456
(lp1457
I96
aI336
aI160
aI496
asVprob
p1458
I97
ssV2
p1459
(dp1460
Vcoords
p1461
(lp1462
I192
aI336
aI272
aI528
asVprob
p1463
I91
sstp1464
a(I1
V2017:07:26 13:40:04
p1465
(dp1466
V1
p1467
(dp1468
Vcoords
p1469
(lp1470
I192
aI336
aI256
aI496
asVprob
p1471
I95
sstp1472
a(I1
V2017:07:26 13:40:08
p1473
(dp1474
V1
p1475
(dp1476
Vcoords
p1477
(lp1478
I272
aI368
aI320
aI464
asVprob
p1479
I88
sstp1480
a(I1
V2017:07:26 13:43:54
p1481
(dp1482
V1
p1483
(dp1484
Vcoords
p1485
(lp1486
I288
aI352
aI336
aI480
asVprob
p1487
I98
sstp1488
a(I2
V2017:07:26 13:44:02
p1489
(dp1490
V1
p1491
(dp1492
Vcoords
p1493
(lp1494
I304
aI384
aI352
aI480
asVprob
p1495
I91
ssV2
p1496
(dp1497
Vcoords
p1498
(lp1499
I320
aI368
aI368
aI480
asVprob
p1500
I89
sstp1501
a(I1
V2017:07:26 13:45:38
p1502
(dp1503
V1
p1504
(dp1505
Vcoords
p1506
(lp1507
I432
aI256
aI576
aI608
asVprob
p1508
I99
sstp1509
a(I1
V2017:07:26 13:45:48
p1510
(dp1511
V1
p1512
(dp1513
Vcoords
p1514
(lp1515
I288
aI384
aI336
aI480
asVprob
p1516
I96
sstp1517
a(I1
V2017:07:26 13:48:12
p1518
(dp1519
V1
p1520
(dp1521
Vcoords
p1522
(lp1523
I192
aI336
aI256
aI480
asVprob
p1524
I97
sstp1525
a(I1
V2017:07:26 13:48:46
p1526
(dp1527
V1
p1528
(dp1529
Vcoords
p1530
(lp1531
I160
aI256
aI272
aI592
asVprob
p1532
I97
sstp1533
a(I1
V2017:07:26 13:50:04
p1534
(dp1535
V1
p1536
(dp1537
Vcoords
p1538
(lp1539
I96
aI256
aI208
aI576
asVprob
p1540
I97
sstp1541
a(I1
V2017:07:26 13:52:10
p1542
(dp1543
V1
p1544
(dp1545
Vcoords
p1546
(lp1547
I112
aI192
aI256
aI592
asVprob
p1548
I99
sstp1549
a(I3
V2017:07:26 13:52:50
p1550
(dp1551
V1
p1552
(dp1553
Vcoords
p1554
(lp1555
I256
aI336
aI320
aI512
asVprob
p1556
I98
ssV3
p1557
(dp1558
Vcoords
p1559
(lp1560
I208
aI320
aI272
aI496
asVprob
p1561
I97
ssV2
p1562
(dp1563
Vcoords
p1564
(lp1565
I96
aI272
aI176
aI544
asVprob
p1566
I98
sstp1567
a(I1
V2017:07:26 13:53:58
p1568
(dp1569
V1
p1570
(dp1571
Vcoords
p1572
(lp1573
I160
aI240
aI304
aI592
asVprob
p1574
I98
sstp1575
a(I1
V2017:07:26 13:55:06
p1576
(dp1577
V1
p1578
(dp1579
Vcoords
p1580
(lp1581
I288
aI368
aI336
aI464
asVprob
p1582
I94
sstp1583
a(I1
V2017:07:26 13:55:10
p1584
(dp1585
V1
p1586
(dp1587
Vcoords
p1588
(lp1589
I160
aI320
aI224
aI512
asVprob
p1590
I97
sstp1591
a(I1
V2017:07:26 13:56:00
p1592
(dp1593
V1
p1594
(dp1595
Vcoords
p1596
(lp1597
I112
aI224
aI256
aI608
asVprob
p1598
I98
sstp1599
a(I2
V2017:07:26 13:56:22
p1600
(dp1601
V1
p1602
(dp1603
Vcoords
p1604
(lp1605
I592
aI352
aI672
aI544
asVprob
p1606
I95
ssV2
p1607
(dp1608
Vcoords
p1609
(lp1610
I448
aI336
aI528
aI544
asVprob
p1611
I90
sstp1612
a(I1
V2017:07:26 13:56:36
p1613
(dp1614
V1
p1615
(dp1616
Vcoords
p1617
(lp1618
I304
aI352
aI352
aI480
asVprob
p1619
I96
sstp1620
a(I1
V2017:07:26 13:57:10
p1621
(dp1622
V1
p1623
(dp1624
Vcoords
p1625
(lp1626
I320
aI368
aI368
aI480
asVprob
p1627
I90
sstp1628
a(I1
V2017:07:26 13:57:14
p1629
(dp1630
V1
p1631
(dp1632
Vcoords
p1633
(lp1634
I176
aI304
aI256
aI528
asVprob
p1635
I96
sstp1636
a(I1
V2017:07:26 13:58:00
p1637
(dp1638
V1
p1639
(dp1640
Vcoords
p1641
(lp1642
I240
aI336
aI352
aI528
asVprob
p1643
I98
sstp1644
a(I1
V2017:07:26 13:58:06
p1645
(dp1646
V1
p1647
(dp1648
Vcoords
p1649
(lp1650
I320
aI384
aI368
aI464
asVprob
p1651
I87
sstp1652
a(I1
V2017:07:26 13:59:20
p1653
(dp1654
V2
p1655
(dp1656
Vcoords
p1657
(lp1658
I256
aI368
aI304
aI480
asVprob
p1659
I83
sstp1660
a(I1
V2017:07:26 13:59:52
p1661
(dp1662
V1
p1663
(dp1664
Vcoords
p1665
(lp1666
I336
aI352
aI384
aI480
asVprob
p1667
I98
sstp1668
a(I2
V2017:07:26 14:00:04
p1669
(dp1670
V1
p1671
(dp1672
Vcoords
p1673
(lp1674
I96
aI272
aI176
aI528
asVprob
p1675
I97
ssV2
p1676
(dp1677
Vcoords
p1678
(lp1679
I208
aI288
aI288
aI544
asVprob
p1680
I96
sstp1681
a(I1
V2017:07:26 14:00:48
p1682
(dp1683
V1
p1684
(dp1685
Vcoords
p1686
(lp1687
I320
aI304
aI432
aI592
asVprob
p1688
I99
sstp1689
a(I2
V2017:07:26 14:01:22
p1690
(dp1691
V1
p1692
(dp1693
Vcoords
p1694
(lp1695
I224
aI320
aI304
aI496
asVprob
p1696
I97
ssV2
p1697
(dp1698
Vcoords
p1699
(lp1700
I352
aI384
aI400
aI480
asVprob
p1701
I87
sstp1702
a(I1
V2017:07:26 14:01:32
p1703
(dp1704
V1
p1705
(dp1706
Vcoords
p1707
(lp1708
I240
aI352
aI304
aI496
asVprob
p1709
I96
sstp1710
a(I2
V2017:07:26 14:01:44
p1711
(dp1712
V1
p1713
(dp1714
Vcoords
p1715
(lp1716
I272
aI304
aI368
aI528
asVprob
p1717
I98
ssV2
p1718
(dp1719
Vcoords
p1720
(lp1721
I208
aI336
aI272
aI512
asVprob
p1722
I92
sstp1723
a(I2
V2017:07:26 14:02:14
p1724
(dp1725
V1
p1726
(dp1727
Vcoords
p1728
(lp1729
I336
aI352
aI384
aI496
asVprob
p1730
I96
ssV2
p1731
(dp1732
Vcoords
p1733
(lp1734
I272
aI368
aI320
aI480
asVprob
p1735
I95
sstp1736
a(I2
V2017:07:26 14:03:14
p1737
(dp1738
V1
p1739
(dp1740
Vcoords
p1741
(lp1742
I128
aI304
aI192
aI496
asVprob
p1743
I97
ssV2
p1744
(dp1745
Vcoords
p1746
(lp1747
I224
aI336
aI288
aI496
asVprob
p1748
I96
sstp1749
a(I1
V2017:07:26 14:06:32
p1750
(dp1751
V1
p1752
(dp1753
Vcoords
p1754
(lp1755
I96
aI256
aI240
aI624
asVprob
p1756
I87
sstp1757
a(I1
V2017:07:26 14:07:30
p1758
(dp1759
V1
p1760
(dp1761
Vcoords
p1762
(lp1763
I304
aI368
aI352
aI480
asVprob
p1764
I91
sstp1765
a(I2
V2017:07:26 14:08:08
p1766
(dp1767
V1
p1768
(dp1769
Vcoords
p1770
(lp1771
I320
aI368
aI368
aI480
asVprob
p1772
I93
ssV2
p1773
(dp1774
Vcoords
p1775
(lp1776
I304
aI368
aI352
aI480
asVprob
p1777
I91
sstp1778
a(I1
V2017:07:26 14:09:24
p1779
(dp1780
V1
p1781
(dp1782
Vcoords
p1783
(lp1784
I288
aI368
aI336
aI464
asVprob
p1785
I94
sstp1786
a(I1
V2017:07:26 14:09:34
p1787
(dp1788
V1
p1789
(dp1790
Vcoords
p1791
(lp1792
I320
aI384
aI368
aI480
asVprob
p1793
I94
sstp1794
a(I1
V2017:07:26 14:09:56
p1795
(dp1796
V1
p1797
(dp1798
Vcoords
p1799
(lp1800
I192
aI336
aI256
aI480
asVprob
p1801
I97
sstp1802
a(I3
V2017:07:26 14:12:40
p1803
(dp1804
V1
p1805
(dp1806
Vcoords
p1807
(lp1808
I320
aI336
aI384
aI512
asVprob
p1809
I98
ssV3
p1810
(dp1811
Vcoords
p1812
(lp1813
I272
aI352
aI320
aI512
asVprob
p1814
I96
ssV2
p1815
(dp1816
Vcoords
p1817
(lp1818
I80
aI160
aI224
aI592
asVprob
p1819
I96
sstp1820
a(I1
V2017:07:26 14:13:44
p1821
(dp1822
V1
p1823
(dp1824
Vcoords
p1825
(lp1826
I288
aI352
aI336
aI464
asVprob
p1827
I98
sstp1828
a(I1
V2017:07:26 14:14:00
p1829
(dp1830
V1
p1831
(dp1832
Vcoords
p1833
(lp1834
I160
aI224
aI272
aI560
asVprob
p1835
I98
sstp1836
a(I1
V2017:07:26 14:14:26
p1837
(dp1838
V1
p1839
(dp1840
Vcoords
p1841
(lp1842
I176
aI272
aI288
aI560
asVprob
p1843
I98
sstp1844
a(I1
V2017:07:26 14:16:28
p1845
(dp1846
V3
p1847
(dp1848
Vcoords
p1849
(lp1850
I720
aI352
aI784
aI528
asVprob
p1851
I83
sstp1852
a(I1
V2017:07:26 14:18:24
p1853
(dp1854
V1
p1855
(dp1856
Vcoords
p1857
(lp1858
I608
aI352
aI656
aI512
asVprob
p1859
I95
sstp1860
a(I2
V2017:07:26 14:19:56
p1861
(dp1862
V1
p1863
(dp1864
Vcoords
p1865
(lp1866
I304
aI368
aI352
aI496
asVprob
p1867
I93
ssV2
p1868
(dp1869
Vcoords
p1870
(lp1871
I320
aI368
aI368
aI480
asVprob
p1872
I92
sstp1873
a(I1
V2017:07:26 14:20:54
p1874
(dp1875
V1
p1876
(dp1877
Vcoords
p1878
(lp1879
I176
aI272
aI288
aI592
asVprob
p1880
I96
sstp1881
a(I1
V2017:07:26 14:21:58
p1882
(dp1883
V1
p1884
(dp1885
Vcoords
p1886
(lp1887
I352
aI368
aI400
aI480
asVprob
p1888
I92
sstp1889
a(I1
V2017:07:26 14:26:02
p1890
(dp1891
V1
p1892
(dp1893
Vcoords
p1894
(lp1895
I192
aI336
aI256
aI496
asVprob
p1896
I90
sstp1897
a(I1
V2017:07:26 14:26:06
p1898
(dp1899
V1
p1900
(dp1901
Vcoords
p1902
(lp1903
I192
aI288
aI272
aI544
asVprob
p1904
I95
sstp1905
a(I1
V2017:07:26 14:26:18
p1906
(dp1907
V1
p1908
(dp1909
Vcoords
p1910
(lp1911
I256
aI368
aI320
aI496
asVprob
p1912
I96
sstp1913
a(I1
V2017:07:26 14:26:26
p1914
(dp1915
V1
p1916
(dp1917
Vcoords
p1918
(lp1919
I272
aI384
aI320
aI480
asVprob
p1920
I95
sstp1921
a(I1
V2017:07:26 14:27:00
p1922
(dp1923
V1
p1924
(dp1925
Vcoords
p1926
(lp1927
I96
aI336
aI160
aI496
asVprob
p1928
I96
sstp1929
a(I1
V2017:07:26 14:27:04
p1930
(dp1931
V1
p1932
(dp1933
Vcoords
p1934
(lp1935
I320
aI384
aI368
aI480
asVprob
p1936
I95
sstp1937
a(I1
V2017:07:26 14:28:20
p1938
(dp1939
V1
p1940
(dp1941
Vcoords
p1942
(lp1943
I112
aI288
aI192
aI512
asVprob
p1944
I96
sstp1945
a(I1
V2017:07:26 14:28:30
p1946
(dp1947
V1
p1948
(dp1949
Vcoords
p1950
(lp1951
I128
aI336
aI208
aI512
asVprob
p1952
I89
sstp1953
a(I1
V2017:07:26 14:28:34
p1954
(dp1955
V1
p1956
(dp1957
Vcoords
p1958
(lp1959
I240
aI400
aI320
aI544
asVprob
p1960
I89
sstp1961
a(I1
V2017:07:26 14:29:22
p1962
(dp1963
V1
p1964
(dp1965
Vcoords
p1966
(lp1967
I688
aI384
aI736
aI496
asVprob
p1968
I94
sstp1969
a(I1
V2017:07:26 14:29:52
p1970
(dp1971
V1
p1972
(dp1973
Vcoords
p1974
(lp1975
I320
aI368
aI368
aI464
asVprob
p1976
I97
sstp1977
a(I1
V2017:07:26 14:30:02
p1978
(dp1979
V1
p1980
(dp1981
Vcoords
p1982
(lp1983
I176
aI320
aI288
aI576
asVprob
p1984
I99
sstp1985
a(I2
V2017:07:26 14:31:02
p1986
(dp1987
V1
p1988
(dp1989
Vcoords
p1990
(lp1991
I320
aI400
aI368
aI496
asVprob
p1992
I82
ssV2
p1993
(dp1994
Vcoords
p1995
(lp1996
I336
aI384
aI384
aI496
asVprob
p1997
I81
sstp1998
a(I2
V2017:07:26 14:31:10
p1999
(dp2000
V1
p2001
(dp2002
Vcoords
p2003
(lp2004
I208
aI256
aI400
aI608
asVprob
p2005
I99
ssV2
p2006
(dp2007
Vcoords
p2008
(lp2009
I96
aI400
aI208
aI576
asVprob
p2010
I96
sstp2011
a(I1
V2017:07:26 14:32:36
p2012
(dp2013
V1
p2014
(dp2015
Vcoords
p2016
(lp2017
I304
aI352
aI352
aI480
asVprob
p2018
I93
sstp2019
a(I1
V2017:07:26 14:35:40
p2020
(dp2021
V1
p2022
(dp2023
Vcoords
p2024
(lp2025
I240
aI368
aI352
aI544
asVprob
p2026
I95
sstp2027
a.