(lp0
(I1
V2017:07:27 10:55:20
p1
(dp2
V1
p3
(dp4
Vcoords
p5
(lp6
I512
aI0
aI816
aI624
asVprob
p7
I88
sstp8
a(I1
V2017:07:27 10:56:24
p9
(dp10
V1
p11
(dp12
Vcoords
p13
(lp14
I336
aI160
aI464
aI480
asVprob
p15
I96
sstp16
a(I1
V2017:07:27 10:56:34
p17
(dp18
V1
p19
(dp20
Vcoords
p21
(lp22
I480
aI240
aI544
aI368
asVprob
p23
I80
sstp24
a(I1
V2017:07:27 10:57:40
p25
(dp26
V1
p27
(dp28
Vcoords
p29
(lp30
I32
aI112
aI160
aI464
asVprob
p31
I97
sstp32
a(I1
V2017:07:27 10:58:06
p33
(dp34
V1
p35
(dp36
Vcoords
p37
(lp38
I208
aI208
aI256
aI384
asVprob
p39
I97
sstp40
a(I3
V2017:07:27 10:59:24
p41
(dp42
V1
p43
(dp44
Vcoords
p45
(lp46
I208
aI192
aI256
aI352
asVprob
p47
I97
ssV3
p48
(dp49
Vcoords
p50
(lp51
I304
aI224
aI352
aI336
asVprob
p52
I92
ssV2
p53
(dp54
Vcoords
p55
(lp56
I352
aI208
aI400
aI352
asVprob
p57
I96
sstp58
a(I1
V2017:07:27 10:59:46
p59
(dp60
V1
p61
(dp62
Vcoords
p63
(lp64
I192
aI160
aI272
aI384
asVprob
p65
I96
sstp66
a(I4
V2017:07:27 11:00:06
p67
(dp68
V1
p69
(dp70
Vcoords
p71
(lp72
I512
aI208
aI560
aI368
asVprob
p73
I96
ssV3
p74
(dp75
Vcoords
p76
(lp77
I576
aI224
aI624
aI416
asVprob
p78
I87
ssV2
p79
(dp80
Vcoords
p81
(lp82
I624
aI208
aI688
aI400
asVprob
p83
I92
ssV4
p84
(dp85
Vcoords
p86
(lp87
I672
aI208
aI752
aI400
asVprob
p88
I83
sstp89
a(I1
V2017:07:27 11:01:38
p90
(dp91
V1
p92
(dp93
Vcoords
p94
(lp95
I656
aI176
aI752
aI432
asVprob
p96
I97
sstp97
a(I1
V2017:07:27 11:01:48
p98
(dp99
V1
p100
(dp101
Vcoords
p102
(lp103
I608
aI192
aI704
aI400
asVprob
p104
I98
sstp105
a(I1
V2017:07:27 11:02:54
p106
(dp107
V1
p108
(dp109
Vcoords
p110
(lp111
I144
aI192
aI208
aI352
asVprob
p112
I92
sstp113
a(I1
V2017:07:27 11:04:28
p114
(dp115
V1
p116
(dp117
Vcoords
p118
(lp119
I272
aI192
aI352
aI384
asVprob
p120
I96
sstp121
a(I1
V2017:07:27 11:04:32
p122
(dp123
V1
p124
(dp125
Vcoords
p126
(lp127
I192
aI208
aI240
aI368
asVprob
p128
I90
sstp129
a(I1
V2017:07:27 11:05:26
p130
(dp131
V1
p132
(dp133
Vcoords
p134
(lp135
I192
aI176
aI272
aI384
asVprob
p136
I92
sstp137
a(I1
V2017:07:27 11:07:54
p138
(dp139
V1
p140
(dp141
Vcoords
p142
(lp143
I528
aI-16
aI816
aI576
asVprob
p144
I98
sstp145
a(I1
V2017:07:27 11:08:54
p146
(dp147
V1
p148
(dp149
Vcoords
p150
(lp151
I528
aI0
aI816
aI624
asVprob
p152
I83
sstp153
a(I1
V2017:07:27 11:10:52
p154
(dp155
V1
p156
(dp157
Vcoords
p158
(lp159
I192
aI224
aI240
aI368
asVprob
p160
I93
sstp161
a(I2
V2017:07:27 11:12:16
p162
(dp163
V1
p164
(dp165
Vcoords
p166
(lp167
I352
aI-16
aI640
aI576
asVprob
p168
I98
ssV2
p169
(dp170
Vcoords
p171
(lp172
I48
aI0
aI432
aI592
asVprob
p173
I94
sstp174
a(I1
V2017:07:27 11:13:16
p175
(dp176
V2
p177
(dp178
Vcoords
p179
(lp180
I192
aI192
aI272
aI336
asVprob
p181
I94
sstp182
a(I1
V2017:07:27 11:13:30
p183
(dp184
V1
p185
(dp186
Vcoords
p187
(lp188
I288
aI-16
aI688
aI608
asVprob
p189
I98
sstp190
a(I1
V2017:07:27 11:13:50
p191
(dp192
V1
p193
(dp194
Vcoords
p195
(lp196
I64
aI144
aI160
aI400
asVprob
p197
I94
sstp198
a(I1
V2017:07:27 11:14:28
p199
(dp200
V1
p201
(dp202
Vcoords
p203
(lp204
I384
aI-16
aI800
aI624
asVprob
p205
I93
sstp206
a(I2
V2017:07:27 11:14:32
p207
(dp208
V3
p209
(dp210
Vcoords
p211
(lp212
I448
aI-16
aI800
aI624
asVprob
p213
I92
ssV2
p214
(dp215
Vcoords
p216
(lp217
I96
aI192
aI160
aI352
asVprob
p218
I96
sstp219
a(I1
V2017:07:27 11:14:42
p220
(dp221
V2
p222
(dp223
Vcoords
p224
(lp225
I144
aI224
aI192
aI304
asVprob
p226
I84
sstp227
a(I1
V2017:07:27 11:15:10
p228
(dp229
V1
p230
(dp231
Vcoords
p232
(lp233
I64
aI32
aI208
aI480
asVprob
p234
I98
sstp235
a(I2
V2017:07:27 11:15:24
p236
(dp237
V1
p238
(dp239
Vcoords
p240
(lp241
I128
aI176
aI192
aI368
asVprob
p242
I96
ssV2
p243
(dp244
Vcoords
p245
(lp246
I272
aI224
aI320
aI320
asVprob
p247
I96
sstp248
a(I1
V2017:07:27 11:15:50
p249
(dp250
V1
p251
(dp252
Vcoords
p253
(lp254
I704
aI240
aI800
aI560
asVprob
p255
I87
sstp256
a(I1
V2017:07:27 11:17:58
p257
(dp258
V1
p259
(dp260
Vcoords
p261
(lp262
I160
aI160
aI240
aI384
asVprob
p263
I96
sstp264
a(I1
V2017:07:27 11:19:10
p265
(dp266
V1
p267
(dp268
Vcoords
p269
(lp270
I256
aI176
aI352
aI400
asVprob
p271
I94
sstp272
a(I1
V2017:07:27 11:20:22
p273
(dp274
V1
p275
(dp276
Vcoords
p277
(lp278
I64
aI160
aI160
aI384
asVprob
p279
I97
sstp280
a(I4
V2017:07:27 11:22:02
p281
(dp282
V1
p283
(dp284
Vcoords
p285
(lp286
I304
aI224
aI352
aI352
asVprob
p287
I97
ssV3
p288
(dp289
Vcoords
p290
(lp291
I240
aI192
aI288
aI320
asVprob
p292
I84
ssV2
p293
(dp294
Vcoords
p295
(lp296
I432
aI256
aI480
aI368
asVprob
p297
I90
ssV4
p298
(dp299
Vcoords
p300
(lp301
I448
aI256
aI496
aI368
asVprob
p302
I82
sstp303
a(I1
V2017:07:27 11:22:32
p304
(dp305
V1
p306
(dp307
Vcoords
p308
(lp309
I544
aI256
aI608
aI368
asVprob
p310
I91
sstp311
a(I1
V2017:07:27 11:22:44
p312
(dp313
V1
p314
(dp315
Vcoords
p316
(lp317
I544
aI256
aI592
aI352
asVprob
p318
I91
sstp319
a(I1
V2017:07:27 11:22:54
p320
(dp321
V1
p322
(dp323
Vcoords
p324
(lp325
I528
aI256
aI576
aI336
asVprob
p326
I88
sstp327
a(I2
V2017:07:27 11:23:10
p328
(dp329
V1
p330
(dp331
Vcoords
p332
(lp333
I272
aI176
aI336
aI368
asVprob
p334
I98
ssV2
p335
(dp336
Vcoords
p337
(lp338
I176
aI176
aI256
aI384
asVprob
p339
I96
sstp340
a(I1
V2017:07:27 11:23:20
p341
(dp342
V3
p343
(dp344
Vcoords
p345
(lp346
I496
aI240
aI560
aI336
asVprob
p347
I81
sstp348
a(I1
V2017:07:27 11:23:46
p349
(dp350
V1
p351
(dp352
Vcoords
p353
(lp354
I512
aI240
aI560
aI336
asVprob
p355
I81
sstp356
a(I1
V2017:07:27 11:24:02
p357
(dp358
V1
p359
(dp360
Vcoords
p361
(lp362
I272
aI240
aI320
aI320
asVprob
p363
I83
sstp364
a(I1
V2017:07:27 11:28:00
p365
(dp366
V1
p367
(dp368
Vcoords
p369
(lp370
I224
aI128
aI336
aI432
asVprob
p371
I98
sstp372
a(I1
V2017:07:27 11:28:08
p373
(dp374
V1
p375
(dp376
Vcoords
p377
(lp378
I288
aI224
aI336
aI320
asVprob
p379
I91
sstp380
a(I2
V2017:07:27 11:30:30
p381
(dp382
V1
p383
(dp384
Vcoords
p385
(lp386
I272
aI224
aI320
aI336
asVprob
p387
I88
ssV2
p388
(dp389
Vcoords
p390
(lp391
I288
aI224
aI336
aI336
asVprob
p392
I80
sstp393
a(I1
V2017:07:27 11:30:54
p394
(dp395
V1
p396
(dp397
Vcoords
p398
(lp399
I256
aI208
aI304
aI336
asVprob
p400
I91
sstp401
a(I1
V2017:07:27 11:31:44
p402
(dp403
V1
p404
(dp405
Vcoords
p406
(lp407
I96
aI80
aI256
aI480
asVprob
p408
I97
sstp409
a(I1
V2017:07:27 11:32:22
p410
(dp411
V1
p412
(dp413
Vcoords
p414
(lp415
I192
aI192
aI256
aI352
asVprob
p416
I94
sstp417
a(I1
V2017:07:27 11:32:30
p418
(dp419
V1
p420
(dp421
Vcoords
p422
(lp423
I224
aI160
aI320
aI400
asVprob
p424
I99
sstp425
a(I2
V2017:07:27 11:33:36
p426
(dp427
V1
p428
(dp429
Vcoords
p430
(lp431
I128
aI192
aI192
aI384
asVprob
p432
I96
ssV2
p433
(dp434
Vcoords
p435
(lp436
I240
aI208
aI304
aI336
asVprob
p437
I96
sstp438
a(I1
V2017:07:27 11:34:22
p439
(dp440
V1
p441
(dp442
Vcoords
p443
(lp444
I240
aI208
aI304
aI368
asVprob
p445
I94
sstp446
a(I1
V2017:07:27 11:36:20
p447
(dp448
V1
p449
(dp450
Vcoords
p451
(lp452
I256
aI176
aI320
aI368
asVprob
p453
I98
sstp454
a(I1
V2017:07:27 11:37:20
p455
(dp456
V1
p457
(dp458
Vcoords
p459
(lp460
I160
aI176
aI208
aI352
asVprob
p461
I96
sstp462
a(I1
V2017:07:27 11:37:28
p463
(dp464
V1
p465
(dp466
Vcoords
p467
(lp468
I272
aI224
aI320
aI320
asVprob
p469
I87
sstp470
a(I1
V2017:07:27 11:38:16
p471
(dp472
V1
p473
(dp474
Vcoords
p475
(lp476
I128
aI128
aI240
aI384
asVprob
p477
I95
sstp478
a(I2
V2017:07:27 11:38:24
p479
(dp480
V1
p481
(dp482
Vcoords
p483
(lp484
I160
aI208
aI208
aI352
asVprob
p485
I95
ssV2
p486
(dp487
Vcoords
p488
(lp489
I256
aI224
aI304
aI320
asVprob
p490
I89
sstp491
a(I1
V2017:07:27 11:39:04
p492
(dp493
V1
p494
(dp495
Vcoords
p496
(lp497
I64
aI112
aI160
aI400
asVprob
p498
I88
sstp499
a(I2
V2017:07:27 11:40:12
p500
(dp501
V1
p502
(dp503
Vcoords
p504
(lp505
I224
aI176
aI304
aI384
asVprob
p506
I99
ssV2
p507
(dp508
Vcoords
p509
(lp510
I128
aI144
aI208
aI416
asVprob
p511
I96
sstp512
a(I3
V2017:07:27 11:40:54
p513
(dp514
V1
p515
(dp516
Vcoords
p517
(lp518
I128
aI176
aI208
aI384
asVprob
p519
I99
ssV3
p520
(dp521
Vcoords
p522
(lp523
I288
aI224
aI336
aI336
asVprob
p524
I83
ssV2
p525
(dp526
Vcoords
p527
(lp528
I224
aI208
aI272
aI352
asVprob
p529
I94
sstp530
a(I2
V2017:07:27 11:41:14
p531
(dp532
V1
p533
(dp534
Vcoords
p535
(lp536
I224
aI224
aI272
aI320
asVprob
p537
I93
ssV2
p538
(dp539
Vcoords
p540
(lp541
I240
aI224
aI288
aI320
asVprob
p542
I90
sstp543
a(I2
V2017:07:27 11:41:36
p544
(dp545
V1
p546
(dp547
Vcoords
p548
(lp549
I256
aI224
aI304
aI352
asVprob
p550
I96
ssV2
p551
(dp552
Vcoords
p553
(lp554
I160
aI192
aI224
aI384
asVprob
p555
I91
sstp556
a(I1
V2017:07:27 11:41:44
p557
(dp558
V1
p559
(dp560
Vcoords
p561
(lp562
I288
aI192
aI368
aI368
asVprob
p563
I90
sstp564
a(I1
V2017:07:27 11:41:54
p565
(dp566
V1
p567
(dp568
Vcoords
p569
(lp570
I240
aI224
aI288
aI320
asVprob
p571
I94
sstp572
a(I1
V2017:07:27 11:42:00
p573
(dp574
V1
p575
(dp576
Vcoords
p577
(lp578
I80
aI192
aI160
aI384
asVprob
p579
I98
sstp580
a(I3
V2017:07:27 11:42:12
p581
(dp582
V1
p583
(dp584
Vcoords
p585
(lp586
I96
aI128
aI176
aI384
asVprob
p587
I97
ssV3
p588
(dp589
Vcoords
p590
(lp591
I304
aI208
aI368
aI336
asVprob
p592
I87
ssV2
p593
(dp594
Vcoords
p595
(lp596
I224
aI192
aI288
aI336
asVprob
p597
I94
sstp598
a(I2
V2017:07:27 11:43:52
p599
(dp600
V1
p601
(dp602
Vcoords
p603
(lp604
I272
aI208
aI320
aI336
asVprob
p605
I98
ssV2
p606
(dp607
Vcoords
p608
(lp609
I192
aI208
aI240
aI352
asVprob
p610
I96
sstp611
a(I1
V2017:07:27 11:43:58
p612
(dp613
V1
p614
(dp615
Vcoords
p616
(lp617
I224
aI208
aI272
aI336
asVprob
p618
I97
sstp619
a(I5
V2017:07:27 11:45:56
p620
(dp621
V1
p622
(dp623
Vcoords
p624
(lp625
I432
aI208
aI496
aI384
asVprob
p626
I96
ssV3
p627
(dp628
Vcoords
p629
(lp630
I288
aI224
aI336
aI368
asVprob
p631
I96
ssV2
p632
(dp633
Vcoords
p634
(lp635
I80
aI80
aI240
aI480
asVprob
p636
I96
ssV5
p637
(dp638
Vcoords
p639
(lp640
I304
aI224
aI352
aI352
asVprob
p641
I90
ssV4
p642
(dp643
Vcoords
p644
(lp645
I208
aI176
aI272
aI384
asVprob
p646
I95
sstp647
a(I2
V2017:07:27 11:46:08
p648
(dp649
V1
p650
(dp651
Vcoords
p652
(lp653
I224
aI208
aI272
aI304
asVprob
p654
I98
ssV2
p655
(dp656
Vcoords
p657
(lp658
I368
aI192
aI448
aI400
asVprob
p659
I96
sstp660
a(I1
V2017:07:27 11:46:24
p661
(dp662
V1
p663
(dp664
Vcoords
p665
(lp666
I624
aI224
aI672
aI336
asVprob
p667
I93
sstp668
a(I1
V2017:07:27 11:46:30
p669
(dp670
V1
p671
(dp672
Vcoords
p673
(lp674
I320
aI240
aI368
aI320
asVprob
p675
I89
sstp676
a(I3
V2017:07:27 11:46:36
p677
(dp678
V1
p679
(dp680
Vcoords
p681
(lp682
I128
aI192
aI192
aI352
asVprob
p683
I97
ssV3
p684
(dp685
Vcoords
p686
(lp687
I32
aI208
aI80
aI336
asVprob
p688
I91
ssV2
p689
(dp690
Vcoords
p691
(lp692
I208
aI192
aI256
aI352
asVprob
p693
I97
sstp694
a(I1
V2017:07:27 11:47:14
p695
(dp696
V2
p697
(dp698
Vcoords
p699
(lp700
I192
aI224
aI240
aI336
asVprob
p701
I84
sstp702
a(I1
V2017:07:27 11:47:24
p703
(dp704
V6
p705
(dp706
Vcoords
p707
(lp708
I48
aI208
aI96
aI336
asVprob
p709
I81
sstp710
a(I1
V2017:07:27 11:47:28
p711
(dp712
V1
p713
(dp714
Vcoords
p715
(lp716
I112
aI224
aI160
aI352
asVprob
p717
I92
sstp718
a(I1
V2017:07:27 11:47:36
p719
(dp720
V2
p721
(dp722
Vcoords
p723
(lp724
I112
aI208
aI160
aI336
asVprob
p725
I94
sstp726
a(I2
V2017:07:27 11:47:48
p727
(dp728
V1
p729
(dp730
Vcoords
p731
(lp732
I528
aI256
aI576
aI336
asVprob
p733
I93
ssV4
p734
(dp735
Vcoords
p736
(lp737
I96
aI208
aI144
aI320
asVprob
p738
I81
sstp739
a(I2
V2017:07:27 11:47:56
p740
(dp741
V1
p742
(dp743
Vcoords
p744
(lp745
I64
aI208
aI112
aI352
asVprob
p746
I94
ssV3
p747
(dp748
Vcoords
p749
(lp750
I528
aI256
aI576
aI336
asVprob
p751
I88
sstp752
a(I2
V2017:07:27 11:48:16
p753
(dp754
V1
p755
(dp756
Vcoords
p757
(lp758
I80
aI224
aI128
aI352
asVprob
p759
I95
ssV2
p760
(dp761
Vcoords
p762
(lp763
I128
aI224
aI176
aI336
asVprob
p764
I85
sstp765
a(I1
V2017:07:27 11:48:40
p766
(dp767
V1
p768
(dp769
Vcoords
p770
(lp771
I208
aI192
aI256
aI368
asVprob
p772
I95
sstp773
a(I1
V2017:07:27 11:50:14
p774
(dp775
V1
p776
(dp777
Vcoords
p778
(lp779
I32
aI64
aI240
aI576
asVprob
p780
I82
sstp781
a(I1
V2017:07:27 11:50:50
p782
(dp783
V1
p784
(dp785
Vcoords
p786
(lp787
I128
aI160
aI224
aI400
asVprob
p788
I97
sstp789
a(I1
V2017:07:27 11:51:24
p790
(dp791
V1
p792
(dp793
Vcoords
p794
(lp795
I288
aI224
aI336
aI336
asVprob
p796
I95
sstp797
a(I1
V2017:07:27 11:51:34
p798
(dp799
V1
p800
(dp801
Vcoords
p802
(lp803
I224
aI176
aI320
aI384
asVprob
p804
I98
sstp805
a(I1
V2017:07:27 11:51:52
p806
(dp807
V1
p808
(dp809
Vcoords
p810
(lp811
I160
aI208
aI224
aI352
asVprob
p812
I95
sstp813
a(I1
V2017:07:27 11:53:46
p814
(dp815
V1
p816
(dp817
Vcoords
p818
(lp819
I176
aI128
aI288
aI432
asVprob
p820
I97
sstp821
a(I3
V2017:07:27 11:57:02
p822
(dp823
V1
p824
(dp825
Vcoords
p826
(lp827
I112
aI144
aI176
aI416
asVprob
p828
I97
ssV3
p829
(dp830
Vcoords
p831
(lp832
I48
aI176
aI144
aI416
asVprob
p833
I82
ssV2
p834
(dp835
Vcoords
p836
(lp837
I320
aI224
aI368
aI336
asVprob
p838
I96
sstp839
a(I1
V2017:07:27 11:58:22
p840
(dp841
V1
p842
(dp843
Vcoords
p844
(lp845
I224
aI176
aI288
aI368
asVprob
p846
I91
sstp847
a(I1
V2017:07:27 11:59:00
p848
(dp849
V1
p850
(dp851
Vcoords
p852
(lp853
I288
aI208
aI336
aI320
asVprob
p854
I93
sstp855
a(I1
V2017:07:27 12:00:06
p856
(dp857
V1
p858
(dp859
Vcoords
p860
(lp861
I256
aI176
aI336
aI352
asVprob
p862
I94
sstp863
a(I1
V2017:07:27 12:01:12
p864
(dp865
V1
p866
(dp867
Vcoords
p868
(lp869
I208
aI208
aI256
aI320
asVprob
p870
I84
sstp871
a(I1
V2017:07:27 12:02:38
p872
(dp873
V1
p874
(dp875
Vcoords
p876
(lp877
I192
aI192
aI256
aI336
asVprob
p878
I96
sstp879
a(I1
V2017:07:27 12:03:08
p880
(dp881
V1
p882
(dp883
Vcoords
p884
(lp885
I240
aI160
aI336
aI400
asVprob
p886
I94
sstp887
a(I1
V2017:07:27 12:03:36
p888
(dp889
V1
p890
(dp891
Vcoords
p892
(lp893
I688
aI208
aI768
aI400
asVprob
p894
I96
sstp895
a(I1
V2017:07:27 12:03:44
p896
(dp897
V1
p898
(dp899
Vcoords
p900
(lp901
I144
aI240
aI192
aI320
asVprob
p902
I88
sstp903
a(I1
V2017:07:27 12:04:08
p904
(dp905
V1
p906
(dp907
Vcoords
p908
(lp909
I272
aI208
aI320
aI336
asVprob
p910
I93
sstp911
a(I1
V2017:07:27 12:05:08
p912
(dp913
V1
p914
(dp915
Vcoords
p916
(lp917
I112
aI160
aI192
aI400
asVprob
p918
I97
sstp919
a(I2
V2017:07:27 12:06:40
p920
(dp921
V1
p922
(dp923
Vcoords
p924
(lp925
I48
aI64
aI176
aI432
asVprob
p926
I96
ssV2
p927
(dp928
Vcoords
p929
(lp930
I240
aI208
aI288
aI336
asVprob
p931
I93
sstp932
a(I1
V2017:07:27 12:07:12
p933
(dp934
V1
p935
(dp936
Vcoords
p937
(lp938
I192
aI192
aI256
aI352
asVprob
p939
I97
sstp940
a(I1
V2017:07:27 12:09:32
p941
(dp942
V1
p943
(dp944
Vcoords
p945
(lp946
I0
aI-16
aI144
aI592
asVprob
p947
I84
sstp948
a(I2
V2017:07:27 12:10:14
p949
(dp950
V1
p951
(dp952
Vcoords
p953
(lp954
I256
aI208
aI304
aI320
asVprob
p955
I93
ssV2
p956
(dp957
Vcoords
p958
(lp959
I304
aI208
aI352
aI352
asVprob
p960
I89
sstp961
a(I2
V2017:07:27 12:10:20
p962
(dp963
V1
p964
(dp965
Vcoords
p966
(lp967
I256
aI192
aI320
aI352
asVprob
p968
I98
ssV3
p969
(dp970
Vcoords
p971
(lp972
I240
aI208
aI304
aI368
asVprob
p973
I90
sstp974
a(I1
V2017:07:27 12:10:46
p975
(dp976
V1
p977
(dp978
Vcoords
p979
(lp980
I176
aI160
aI272
aI384
asVprob
p981
I95
sstp982
a(I1
V2017:07:27 12:12:24
p983
(dp984
V1
p985
(dp986
Vcoords
p987
(lp988
I528
aI240
aI576
aI336
asVprob
p989
I88
sstp990
a(I2
V2017:07:27 12:12:44
p991
(dp992
V3
p993
(dp994
Vcoords
p995
(lp996
I448
aI224
aI496
aI336
asVprob
p997
I85
ssV2
p998
(dp999
Vcoords
p1000
(lp1001
I464
aI224
aI512
aI336
asVprob
p1002
I85
sstp1003
a(I2
V2017:07:27 12:13:06
p1004
(dp1005
V1
p1006
(dp1007
Vcoords
p1008
(lp1009
I224
aI144
aI336
aI432
asVprob
p1010
I97
ssV2
p1011
(dp1012
Vcoords
p1013
(lp1014
I112
aI176
aI192
aI400
asVprob
p1015
I92
sstp1016
a(I2
V2017:07:27 12:13:38
p1017
(dp1018
V1
p1019
(dp1020
Vcoords
p1021
(lp1022
I288
aI208
aI336
aI336
asVprob
p1023
I94
ssV2
p1024
(dp1025
Vcoords
p1026
(lp1027
I304
aI208
aI352
aI336
asVprob
p1028
I81
sstp1029
a(I1
V2017:07:27 12:14:22
p1030
(dp1031
V1
p1032
(dp1033
Vcoords
p1034
(lp1035
I240
aI224
aI288
aI336
asVprob
p1036
I94
sstp1037
a(I1
V2017:07:27 12:15:32
p1038
(dp1039
V1
p1040
(dp1041
Vcoords
p1042
(lp1043
I144
aI48
aI288
aI512
asVprob
p1044
I98
sstp1045
a(I1
V2017:07:27 12:16:34
p1046
(dp1047
V1
p1048
(dp1049
Vcoords
p1050
(lp1051
I16
aI64
aI224
aI608
asVprob
p1052
I88
sstp1053
a(I1
V2017:07:27 12:17:14
p1054
(dp1055
V1
p1056
(dp1057
Vcoords
p1058
(lp1059
I288
aI224
aI336
aI352
asVprob
p1060
I92
sstp1061
a(I1
V2017:07:27 12:19:06
p1062
(dp1063
V1
p1064
(dp1065
Vcoords
p1066
(lp1067
I16
aI32
aI176
aI528
asVprob
p1068
I87
sstp1069
a(I2
V2017:07:27 12:19:14
p1070
(dp1071
V1
p1072
(dp1073
Vcoords
p1074
(lp1075
I112
aI144
aI224
aI480
asVprob
p1076
I98
ssV2
p1077
(dp1078
Vcoords
p1079
(lp1080
I32
aI128
aI128
aI448
asVprob
p1081
I96
sstp1082
a(I1
V2017:07:27 12:19:34
p1083
(dp1084
V1
p1085
(dp1086
Vcoords
p1087
(lp1088
I256
aI208
aI304
aI336
asVprob
p1089
I97
sstp1090
a(I1
V2017:07:27 12:20:16
p1091
(dp1092
V1
p1093
(dp1094
Vcoords
p1095
(lp1096
I256
aI208
aI304
aI352
asVprob
p1097
I85
sstp1098
a(I3
V2017:07:27 12:20:34
p1099
(dp1100
V1
p1101
(dp1102
Vcoords
p1103
(lp1104
I208
aI176
aI288
aI368
asVprob
p1105
I97
ssV3
p1106
(dp1107
Vcoords
p1108
(lp1109
I112
aI128
aI224
aI432
asVprob
p1110
I89
ssV2
p1111
(dp1112
Vcoords
p1113
(lp1114
I32
aI144
aI112
aI416
asVprob
p1115
I93
sstp1116
a(I1
V2017:07:27 12:21:46
p1117
(dp1118
V3
p1119
(dp1120
Vcoords
p1121
(lp1122
I224
aI224
aI272
aI320
asVprob
p1123
I86
sstp1124
a(I2
V2017:07:27 12:23:30
p1125
(dp1126
V1
p1127
(dp1128
Vcoords
p1129
(lp1130
I288
aI192
aI336
aI352
asVprob
p1131
I97
ssV2
p1132
(dp1133
Vcoords
p1134
(lp1135
I192
aI192
aI272
aI352
asVprob
p1136
I94
sstp1137
a(I1
V2017:07:27 12:24:40
p1138
(dp1139
V1
p1140
(dp1141
Vcoords
p1142
(lp1143
I240
aI192
aI288
aI336
asVprob
p1144
I97
sstp1145
a(I2
V2017:07:27 12:28:18
p1146
(dp1147
V1
p1148
(dp1149
Vcoords
p1150
(lp1151
I128
aI160
aI192
aI368
asVprob
p1152
I98
ssV2
p1153
(dp1154
Vcoords
p1155
(lp1156
I272
aI224
aI320
aI336
asVprob
p1157
I94
sstp1158
a(I1
V2017:07:27 12:28:54
p1159
(dp1160
V1
p1161
(dp1162
Vcoords
p1163
(lp1164
I32
aI144
aI112
aI384
asVprob
p1165
I96
sstp1166
a(I1
V2017:07:27 12:29:16
p1167
(dp1168
V1
p1169
(dp1170
Vcoords
p1171
(lp1172
I240
aI208
aI288
aI320
asVprob
p1173
I80
sstp1174
a(I1
V2017:07:27 12:29:24
p1175
(dp1176
V1
p1177
(dp1178
Vcoords
p1179
(lp1180
I80
aI208
aI128
aI336
asVprob
p1181
I96
sstp1182
a(I1
V2017:07:27 12:29:36
p1183
(dp1184
V1
p1185
(dp1186
Vcoords
p1187
(lp1188
I16
aI96
aI128
aI528
asVprob
p1189
I87
sstp1190
a(I3
V2017:07:27 12:30:02
p1191
(dp1192
V1
p1193
(dp1194
Vcoords
p1195
(lp1196
I176
aI192
aI224
aI336
asVprob
p1197
I97
ssV3
p1198
(dp1199
Vcoords
p1200
(lp1201
I336
aI224
aI384
aI352
asVprob
p1202
I91
ssV2
p1203
(dp1204
Vcoords
p1205
(lp1206
I240
aI224
aI288
aI320
asVprob
p1207
I95
sstp1208
a(I1
V2017:07:27 12:30:24
p1209
(dp1210
V1
p1211
(dp1212
Vcoords
p1213
(lp1214
I256
aI224
aI304
aI336
asVprob
p1215
I93
sstp1216
a(I1
V2017:07:27 12:30:50
p1217
(dp1218
V3
p1219
(dp1220
Vcoords
p1221
(lp1222
I448
aI256
aI496
aI336
asVprob
p1223
I80
sstp1224
a(I2
V2017:07:27 12:31:00
p1225
(dp1226
V1
p1227
(dp1228
Vcoords
p1229
(lp1230
I320
aI224
aI368
aI336
asVprob
p1231
I91
ssV2
p1232
(dp1233
Vcoords
p1234
(lp1235
I304
aI208
aI352
aI320
asVprob
p1236
I89
sstp1237
a(I3
V2017:07:27 12:31:16
p1238
(dp1239
V1
p1240
(dp1241
Vcoords
p1242
(lp1243
I144
aI144
aI240
aI416
asVprob
p1244
I98
ssV3
p1245
(dp1246
Vcoords
p1247
(lp1248
I240
aI176
aI304
aI384
asVprob
p1249
I94
ssV2
p1250
(dp1251
Vcoords
p1252
(lp1253
I64
aI144
aI160
aI400
asVprob
p1254
I95
sstp1255
a(I1
V2017:07:27 12:31:34
p1256
(dp1257
V1
p1258
(dp1259
Vcoords
p1260
(lp1261
I192
aI208
aI240
aI352
asVprob
p1262
I92
sstp1263
a(I1
V2017:07:27 12:31:40
p1264
(dp1265
V1
p1266
(dp1267
Vcoords
p1268
(lp1269
I144
aI128
aI240
aI416
asVprob
p1270
I98
sstp1271
a(I2
V2017:07:27 12:32:08
p1272
(dp1273
V1
p1274
(dp1275
Vcoords
p1276
(lp1277
I304
aI208
aI352
aI336
asVprob
p1278
I92
ssV2
p1279
(dp1280
Vcoords
p1281
(lp1282
I288
aI208
aI336
aI336
asVprob
p1283
I89
sstp1284
a(I1
V2017:07:27 12:32:20
p1285
(dp1286
V1
p1287
(dp1288
Vcoords
p1289
(lp1290
I48
aI144
aI144
aI400
asVprob
p1291
I98
sstp1292
a(I2
V2017:07:27 12:32:32
p1293
(dp1294
V1
p1295
(dp1296
Vcoords
p1297
(lp1298
I176
aI192
aI224
aI368
asVprob
p1299
I97
ssV3
p1300
(dp1301
Vcoords
p1302
(lp1303
I192
aI192
aI240
aI384
asVprob
p1304
I83
sstp1305
a(I1
V2017:07:27 12:32:38
p1306
(dp1307
V1
p1308
(dp1309
Vcoords
p1310
(lp1311
I160
aI160
aI256
aI416
asVprob
p1312
I99
sstp1313
a(I1
V2017:07:27 12:33:36
p1314
(dp1315
V1
p1316
(dp1317
Vcoords
p1318
(lp1319
I160
aI176
aI240
aI384
asVprob
p1320
I98
sstp1321
a(I1
V2017:07:27 12:34:14
p1322
(dp1323
V1
p1324
(dp1325
Vcoords
p1326
(lp1327
I80
aI176
aI144
aI384
asVprob
p1328
I97
sstp1329
a(I1
V2017:07:27 12:34:20
p1330
(dp1331
V1
p1332
(dp1333
Vcoords
p1334
(lp1335
I192
aI128
aI288
aI416
asVprob
p1336
I98
sstp1337
a(I2
V2017:07:27 12:35:12
p1338
(dp1339
V1
p1340
(dp1341
Vcoords
p1342
(lp1343
I96
aI176
aI176
aI384
asVprob
p1344
I97
ssV2
p1345
(dp1346
Vcoords
p1347
(lp1348
I176
aI160
aI256
aI384
asVprob
p1349
I96
sstp1350
a(I1
V2017:07:27 12:35:18
p1351
(dp1352
V1
p1353
(dp1354
Vcoords
p1355
(lp1356
I272
aI176
aI352
aI368
asVprob
p1357
I94
sstp1358
a(I1
V2017:07:27 12:35:40
p1359
(dp1360
V1
p1361
(dp1362
Vcoords
p1363
(lp1364
I384
aI240
aI432
aI320
asVprob
p1365
I93
sstp1366
a(I3
V2017:07:27 12:36:38
p1367
(dp1368
V1
p1369
(dp1370
Vcoords
p1371
(lp1372
I320
aI192
aI368
aI352
asVprob
p1373
I96
ssV3
p1374
(dp1375
Vcoords
p1376
(lp1377
I256
aI192
aI320
aI384
asVprob
p1378
I86
ssV2
p1379
(dp1380
Vcoords
p1381
(lp1382
I144
aI64
aI288
aI448
asVprob
p1383
I95
sstp1384
a(I1
V2017:07:27 12:38:56
p1385
(dp1386
V1
p1387
(dp1388
Vcoords
p1389
(lp1390
I224
aI160
aI336
aI400
asVprob
p1391
I98
sstp1392
a(I2
V2017:07:27 12:39:14
p1393
(dp1394
V1
p1395
(dp1396
Vcoords
p1397
(lp1398
I96
aI160
aI176
aI384
asVprob
p1399
I98
ssV2
p1400
(dp1401
Vcoords
p1402
(lp1403
I160
aI144
aI272
aI384
asVprob
p1404
I89
sstp1405
a(I1
V2017:07:27 12:40:22
p1406
(dp1407
V1
p1408
(dp1409
Vcoords
p1410
(lp1411
I272
aI208
aI352
aI368
asVprob
p1412
I96
sstp1413
a(I1
V2017:07:27 12:40:48
p1414
(dp1415
V1
p1416
(dp1417
Vcoords
p1418
(lp1419
I112
aI144
aI208
aI416
asVprob
p1420
I97
sstp1421
a(I3
V2017:07:27 12:41:32
p1422
(dp1423
V1
p1424
(dp1425
Vcoords
p1426
(lp1427
I192
aI192
aI240
aI352
asVprob
p1428
I94
ssV3
p1429
(dp1430
Vcoords
p1431
(lp1432
I208
aI192
aI256
aI352
asVprob
p1433
I82
ssV2
p1434
(dp1435
Vcoords
p1436
(lp1437
I256
aI192
aI320
aI352
asVprob
p1438
I89
sstp1439
a(I1
V2017:07:27 12:41:54
p1440
(dp1441
V1
p1442
(dp1443
Vcoords
p1444
(lp1445
I112
aI224
aI160
aI304
asVprob
p1446
I89
sstp1447
a(I1
V2017:07:27 12:42:00
p1448
(dp1449
V1
p1450
(dp1451
Vcoords
p1452
(lp1453
I128
aI224
aI176
aI304
asVprob
p1454
I92
sstp1455
a(I1
V2017:07:27 12:42:22
p1456
(dp1457
V2
p1458
(dp1459
Vcoords
p1460
(lp1461
I192
aI192
aI240
aI336
asVprob
p1462
I88
sstp1463
a(I2
V2017:07:27 12:44:06
p1464
(dp1465
V1
p1466
(dp1467
Vcoords
p1468
(lp1469
I208
aI144
aI320
aI448
asVprob
p1470
I98
ssV2
p1471
(dp1472
Vcoords
p1473
(lp1474
I96
aI144
aI192
aI432
asVprob
p1475
I96
sstp1476
a(I1
V2017:07:27 12:44:56
p1477
(dp1478
V1
p1479
(dp1480
Vcoords
p1481
(lp1482
I32
aI160
aI112
aI384
asVprob
p1483
I98
sstp1484
a(I1
V2017:07:27 12:45:08
p1485
(dp1486
V1
p1487
(dp1488
Vcoords
p1489
(lp1490
I48
aI48
aI224
aI560
asVprob
p1491
I92
sstp1492
a(I1
V2017:07:27 12:45:22
p1493
(dp1494
V1
p1495
(dp1496
Vcoords
p1497
(lp1498
I240
aI208
aI288
aI336
asVprob
p1499
I95
sstp1500
a(I1
V2017:07:27 12:45:38
p1501
(dp1502
V1
p1503
(dp1504
Vcoords
p1505
(lp1506
I256
aI208
aI304
aI336
asVprob
p1507
I96
sstp1508
a(I1
V2017:07:27 12:45:54
p1509
(dp1510
V1
p1511
(dp1512
Vcoords
p1513
(lp1514
I320
aI208
aI368
aI320
asVprob
p1515
I92
sstp1516
a(I1
V2017:07:27 12:46:34
p1517
(dp1518
V1
p1519
(dp1520
Vcoords
p1521
(lp1522
I192
aI192
aI240
aI352
asVprob
p1523
I94
sstp1524
a(I1
V2017:07:27 14:23:18
p1525
(dp1526
V1
p1527
(dp1528
Vcoords
p1529
(lp1530
I16
aI0
aI384
aI592
asVprob
p1531
I99
sstp1532
a(I1
V2017:07:27 14:24:56
p1533
(dp1534
V1
p1535
(dp1536
Vcoords
p1537
(lp1538
I80
aI144
aI192
aI416
asVprob
p1539
I96
sstp1540
a(I1
V2017:07:27 14:33:18
p1541
(dp1542
V1
p1543
(dp1544
Vcoords
p1545
(lp1546
I176
aI192
aI240
aI352
asVprob
p1547
I93
sstp1548
a(I1
V2017:07:27 14:34:16
p1549
(dp1550
V1
p1551
(dp1552
Vcoords
p1553
(lp1554
I256
aI208
aI304
aI336
asVprob
p1555
I85
sstp1556
a(I2
V2017:07:27 14:40:24
p1557
(dp1558
V1
p1559
(dp1560
Vcoords
p1561
(lp1562
I160
aI96
aI336
aI464
asVprob
p1563
I98
ssV2
p1564
(dp1565
Vcoords
p1566
(lp1567
I16
aI96
aI112
aI448
asVprob
p1568
I91
sstp1569
a(I2
V2017:07:27 14:41:30
p1570
(dp1571
V1
p1572
(dp1573
Vcoords
p1574
(lp1575
I80
aI160
aI192
aI416
asVprob
p1576
I97
ssV2
p1577
(dp1578
Vcoords
p1579
(lp1580
I240
aI208
aI320
aI352
asVprob
p1581
I89
sstp1582
a(I1
V2017:07:27 14:42:04
p1583
(dp1584
V1
p1585
(dp1586
Vcoords
p1587
(lp1588
I224
aI176
aI304
aI384
asVprob
p1589
I98
sstp1590
a(I1
V2017:07:27 14:43:48
p1591
(dp1592
V1
p1593
(dp1594
Vcoords
p1595
(lp1596
I272
aI208
aI336
aI336
asVprob
p1597
I93
sstp1598
a(I1
V2017:07:27 14:46:34
p1599
(dp1600
V1
p1601
(dp1602
Vcoords
p1603
(lp1604
I128
aI176
aI224
aI416
asVprob
p1605
I98
sstp1606
a(I2
V2017:07:27 14:47:28
p1607
(dp1608
V1
p1609
(dp1610
Vcoords
p1611
(lp1612
I144
aI208
aI192
aI352
asVprob
p1613
I98
ssV3
p1614
(dp1615
Vcoords
p1616
(lp1617
I256
aI208
aI304
aI336
asVprob
p1618
I88
sstp1619
a(I1
V2017:07:27 14:49:02
p1620
(dp1621
V1
p1622
(dp1623
Vcoords
p1624
(lp1625
I96
aI128
aI208
aI448
asVprob
p1626
I97
sstp1627
a(I1
V2017:07:27 14:51:28
p1628
(dp1629
V1
p1630
(dp1631
Vcoords
p1632
(lp1633
I16
aI144
aI112
aI384
asVprob
p1634
I94
sstp1635
a(I1
V2017:07:27 14:54:10
p1636
(dp1637
V1
p1638
(dp1639
Vcoords
p1640
(lp1641
I208
aI176
aI304
aI400
asVprob
p1642
I97
sstp1643
a(I1
V2017:07:27 14:56:06
p1644
(dp1645
V1
p1646
(dp1647
Vcoords
p1648
(lp1649
I48
aI192
aI144
aI416
asVprob
p1650
I94
sstp1651
a(I1
V2017:07:27 14:57:40
p1652
(dp1653
V1
p1654
(dp1655
Vcoords
p1656
(lp1657
I192
aI176
aI272
aI368
asVprob
p1658
I93
sstp1659
a(I1
V2017:07:27 14:57:58
p1660
(dp1661
V1
p1662
(dp1663
Vcoords
p1664
(lp1665
I448
aI256
aI496
aI336
asVprob
p1666
I89
sstp1667
a(I1
V2017:07:27 15:00:58
p1668
(dp1669
V1
p1670
(dp1671
Vcoords
p1672
(lp1673
I192
aI192
aI256
aI336
asVprob
p1674
I89
sstp1675
a(I2
V2017:07:27 15:01:06
p1676
(dp1677
V1
p1678
(dp1679
Vcoords
p1680
(lp1681
I208
aI224
aI256
aI352
asVprob
p1682
I91
ssV2
p1683
(dp1684
Vcoords
p1685
(lp1686
I224
aI224
aI272
aI336
asVprob
p1687
I85
sstp1688
a(I1
V2017:07:27 15:01:42
p1689
(dp1690
V1
p1691
(dp1692
Vcoords
p1693
(lp1694
I272
aI192
aI320
aI336
asVprob
p1695
I94
sstp1696
a(I1
V2017:07:27 15:02:08
p1697
(dp1698
V1
p1699
(dp1700
Vcoords
p1701
(lp1702
I112
aI192
aI176
aI368
asVprob
p1703
I92
sstp1704
a(I1
V2017:07:27 15:07:08
p1705
(dp1706
V1
p1707
(dp1708
Vcoords
p1709
(lp1710
I256
aI192
aI320
aI368
asVprob
p1711
I93
sstp1712
a(I1
V2017:07:27 15:07:44
p1713
(dp1714
V1
p1715
(dp1716
Vcoords
p1717
(lp1718
I16
aI96
aI128
aI432
asVprob
p1719
I91
sstp1720
a(I1
V2017:07:27 15:07:52
p1721
(dp1722
V1
p1723
(dp1724
Vcoords
p1725
(lp1726
I144
aI208
aI208
aI352
asVprob
p1727
I95
sstp1728
a(I2
V2017:07:27 15:08:20
p1729
(dp1730
V1
p1731
(dp1732
Vcoords
p1733
(lp1734
I320
aI224
aI368
aI336
asVprob
p1735
I95
ssV2
p1736
(dp1737
Vcoords
p1738
(lp1739
I304
aI224
aI352
aI336
asVprob
p1740
I83
sstp1741
a(I1
V2017:07:27 15:09:34
p1742
(dp1743
V1
p1744
(dp1745
Vcoords
p1746
(lp1747
I288
aI224
aI336
aI336
asVprob
p1748
I89
sstp1749
a(I1
V2017:07:27 15:10:52
p1750
(dp1751
V1
p1752
(dp1753
Vcoords
p1754
(lp1755
I272
aI224
aI320
aI320
asVprob
p1756
I88
sstp1757
a(I2
V2017:07:27 15:12:20
p1758
(dp1759
V1
p1760
(dp1761
Vcoords
p1762
(lp1763
I80
aI208
aI128
aI352
asVprob
p1764
I96
ssV2
p1765
(dp1766
Vcoords
p1767
(lp1768
I96
aI192
aI144
aI336
asVprob
p1769
I88
sstp1770
a(I2
V2017:07:27 15:12:42
p1771
(dp1772
V1
p1773
(dp1774
Vcoords
p1775
(lp1776
I112
aI208
aI160
aI352
asVprob
p1777
I92
ssV2
p1778
(dp1779
Vcoords
p1780
(lp1781
I64
aI224
aI112
aI304
asVprob
p1782
I92
sstp1783
a(I1
V2017:07:27 15:12:48
p1784
(dp1785
V2
p1786
(dp1787
Vcoords
p1788
(lp1789
I112
aI208
aI160
aI336
asVprob
p1790
I83
sstp1791
a(I1
V2017:07:27 15:12:52
p1792
(dp1793
V1
p1794
(dp1795
Vcoords
p1796
(lp1797
I112
aI208
aI160
aI352
asVprob
p1798
I83
sstp1799
a(I1
V2017:07:27 15:13:06
p1800
(dp1801
V1
p1802
(dp1803
Vcoords
p1804
(lp1805
I96
aI208
aI144
aI352
asVprob
p1806
I81
sstp1807
a(I1
V2017:07:27 15:13:20
p1808
(dp1809
V1
p1810
(dp1811
Vcoords
p1812
(lp1813
I48
aI224
aI96
aI320
asVprob
p1814
I82
sstp1815
a(I1
V2017:07:27 15:13:56
p1816
(dp1817
V1
p1818
(dp1819
Vcoords
p1820
(lp1821
I64
aI208
aI112
aI352
asVprob
p1822
I89
sstp1823
a(I1
V2017:07:27 15:14:08
p1824
(dp1825
V2
p1826
(dp1827
Vcoords
p1828
(lp1829
I80
aI208
aI128
aI336
asVprob
p1830
I95
sstp1831
a(I1
V2017:07:27 15:14:12
p1832
(dp1833
V1
p1834
(dp1835
Vcoords
p1836
(lp1837
I80
aI192
aI128
aI336
asVprob
p1838
I95
sstp1839
a(I1
V2017:07:27 15:14:36
p1840
(dp1841
V1
p1842
(dp1843
Vcoords
p1844
(lp1845
I80
aI208
aI128
aI336
asVprob
p1846
I96
sstp1847
a(I1
V2017:07:27 15:14:44
p1848
(dp1849
V1
p1850
(dp1851
Vcoords
p1852
(lp1853
I128
aI208
aI176
aI352
asVprob
p1854
I94
sstp1855
a(I1
V2017:07:27 15:15:28
p1856
(dp1857
V1
p1858
(dp1859
Vcoords
p1860
(lp1861
I160
aI160
aI272
aI416
asVprob
p1862
I98
sstp1863
a(I1
V2017:07:27 15:21:52
p1864
(dp1865
V1
p1866
(dp1867
Vcoords
p1868
(lp1869
I240
aI192
aI304
aI368
asVprob
p1870
I84
sstp1871
a(I1
V2017:07:27 15:23:06
p1872
(dp1873
V1
p1874
(dp1875
Vcoords
p1876
(lp1877
I48
aI192
aI112
aI368
asVprob
p1878
I94
sstp1879
a(I1
V2017:07:27 15:23:20
p1880
(dp1881
V1
p1882
(dp1883
Vcoords
p1884
(lp1885
I128
aI144
aI240
aI400
asVprob
p1886
I99
sstp1887
a(I1
V2017:07:27 15:26:08
p1888
(dp1889
V2
p1890
(dp1891
Vcoords
p1892
(lp1893
I304
aI208
aI352
aI336
asVprob
p1894
I84
sstp1895
a(I1
V2017:07:27 15:26:58
p1896
(dp1897
V1
p1898
(dp1899
Vcoords
p1900
(lp1901
I96
aI80
aI240
aI448
asVprob
p1902
I98
sstp1903
a(I3
V2017:07:27 15:27:50
p1904
(dp1905
V1
p1906
(dp1907
Vcoords
p1908
(lp1909
I192
aI144
aI304
aI448
asVprob
p1910
I98
ssV3
p1911
(dp1912
Vcoords
p1913
(lp1914
I48
aI128
aI160
aI448
asVprob
p1915
I92
ssV2
p1916
(dp1917
Vcoords
p1918
(lp1919
I304
aI192
aI352
aI336
asVprob
p1920
I97
sstp1921
a(I1
V2017:07:27 15:28:06
p1922
(dp1923
V1
p1924
(dp1925
Vcoords
p1926
(lp1927
I384
aI240
aI432
aI320
asVprob
p1928
I89
sstp1929
a(I1
V2017:07:27 15:28:34
p1930
(dp1931
V1
p1932
(dp1933
Vcoords
p1934
(lp1935
I80
aI128
aI192
aI464
asVprob
p1936
I95
sstp1937
a(I1
V2017:07:27 15:31:24
p1938
(dp1939
V1
p1940
(dp1941
Vcoords
p1942
(lp1943
I48
aI96
aI160
aI432
asVprob
p1944
I96
sstp1945
a(I1
V2017:07:27 15:31:28
p1946
(dp1947
V1
p1948
(dp1949
Vcoords
p1950
(lp1951
I192
aI208
aI240
aI352
asVprob
p1952
I93
sstp1953
a(I1
V2017:07:27 15:32:14
p1954
(dp1955
V1
p1956
(dp1957
Vcoords
p1958
(lp1959
I48
aI144
aI176
aI464
asVprob
p1960
I98
sstp1961
a(I2
V2017:07:27 15:35:24
p1962
(dp1963
V1
p1964
(dp1965
Vcoords
p1966
(lp1967
I176
aI144
aI288
aI448
asVprob
p1968
I92
ssV2
p1969
(dp1970
Vcoords
p1971
(lp1972
I128
aI144
aI256
aI416
asVprob
p1973
I88
sstp1974
a(I1
V2017:07:27 15:36:02
p1975
(dp1976
V1
p1977
(dp1978
Vcoords
p1979
(lp1980
I144
aI128
aI240
aI448
asVprob
p1981
I99
sstp1982
a(I1
V2017:07:27 15:36:14
p1983
(dp1984
V1
p1985
(dp1986
Vcoords
p1987
(lp1988
I224
aI208
aI272
aI336
asVprob
p1989
I98
sstp1990
a(I1
V2017:07:27 15:37:28
p1991
(dp1992
V1
p1993
(dp1994
Vcoords
p1995
(lp1996
I304
aI208
aI352
aI352
asVprob
p1997
I95
sstp1998
a(I4
V2017:07:27 15:38:04
p1999
(dp2000
V1
p2001
(dp2002
Vcoords
p2003
(lp2004
I240
aI208
aI304
aI352
asVprob
p2005
I93
ssV3
p2006
(dp2007
Vcoords
p2008
(lp2009
I64
aI208
aI160
aI368
asVprob
p2010
I83
ssV2
p2011
(dp2012
Vcoords
p2013
(lp2014
I208
aI192
aI256
aI352
asVprob
p2015
I89
ssV4
p2016
(dp2017
Vcoords
p2018
(lp2019
I112
aI208
aI176
aI352
asVprob
p2020
I82
sstp2021
a(I2
V2017:07:27 15:38:10
p2022
(dp2023
V1
p2024
(dp2025
Vcoords
p2026
(lp2027
I192
aI192
aI240
aI352
asVprob
p2028
I95
ssV2
p2029
(dp2030
Vcoords
p2031
(lp2032
I304
aI240
aI352
aI320
asVprob
p2033
I86
sstp2034
a(I1
V2017:07:27 15:38:16
p2035
(dp2036
V1
p2037
(dp2038
Vcoords
p2039
(lp2040
I96
aI176
aI208
aI400
asVprob
p2041
I97
sstp2042
a(I1
V2017:07:27 15:39:38
p2043
(dp2044
V1
p2045
(dp2046
Vcoords
p2047
(lp2048
I96
aI176
aI192
aI384
asVprob
p2049
I96
sstp2050
a(I1
V2017:07:27 15:39:52
p2051
(dp2052
V1
p2053
(dp2054
Vcoords
p2055
(lp2056
I192
aI192
aI256
aI336
asVprob
p2057
I95
sstp2058
a(I1
V2017:07:27 15:41:08
p2059
(dp2060
V1
p2061
(dp2062
Vcoords
p2063
(lp2064
I16
aI16
aI160
aI512
asVprob
p2065
I91
sstp2066
a(I1
V2017:07:27 15:41:52
p2067
(dp2068
V1
p2069
(dp2070
Vcoords
p2071
(lp2072
I208
aI192
aI272
aI384
asVprob
p2073
I99
sstp2074
a(I1
V2017:07:27 15:42:58
p2075
(dp2076
V1
p2077
(dp2078
Vcoords
p2079
(lp2080
I224
aI176
aI320
aI384
asVprob
p2081
I97
sstp2082
a(I3
V2017:07:27 15:43:16
p2083
(dp2084
V1
p2085
(dp2086
Vcoords
p2087
(lp2088
I640
aI224
aI704
aI384
asVprob
p2089
I96
ssV3
p2090
(dp2091
Vcoords
p2092
(lp2093
I496
aI240
aI544
aI352
asVprob
p2094
I87
ssV2
p2095
(dp2096
Vcoords
p2097
(lp2098
I720
aI208
aI800
aI432
asVprob
p2099
I92
sstp2100
a(I1
V2017:07:27 15:44:18
p2101
(dp2102
V1
p2103
(dp2104
Vcoords
p2105
(lp2106
I240
aI208
aI288
aI336
asVprob
p2107
I82
sstp2108
a(I1
V2017:07:27 15:46:26
p2109
(dp2110
V1
p2111
(dp2112
Vcoords
p2113
(lp2114
I288
aI224
aI336
aI336
asVprob
p2115
I95
sstp2116
a(I1
V2017:07:27 15:48:36
p2117
(dp2118
V1
p2119
(dp2120
Vcoords
p2121
(lp2122
I240
aI224
aI288
aI352
asVprob
p2123
I97
sstp2124
a(I1
V2017:07:27 15:49:30
p2125
(dp2126
V1
p2127
(dp2128
Vcoords
p2129
(lp2130
I160
aI128
aI256
aI416
asVprob
p2131
I97
sstp2132
a(I1
V2017:07:27 15:51:12
p2133
(dp2134
V1
p2135
(dp2136
Vcoords
p2137
(lp2138
I208
aI192
aI272
aI368
asVprob
p2139
I95
sstp2140
a(I1
V2017:07:27 15:51:52
p2141
(dp2142
V1
p2143
(dp2144
Vcoords
p2145
(lp2146
I304
aI224
aI352
aI304
asVprob
p2147
I93
sstp2148
a(I1
V2017:07:27 15:51:56
p2149
(dp2150
V1
p2151
(dp2152
Vcoords
p2153
(lp2154
I176
aI192
aI256
aI368
asVprob
p2155
I95
sstp2156
a(I1
V2017:07:27 15:53:16
p2157
(dp2158
V1
p2159
(dp2160
Vcoords
p2161
(lp2162
I32
aI144
aI128
aI384
asVprob
p2163
I94
sstp2164
a(I1
V2017:07:27 15:53:22
p2165
(dp2166
V1
p2167
(dp2168
Vcoords
p2169
(lp2170
I288
aI208
aI336
aI336
asVprob
p2171
I96
sstp2172
a(I2
V2017:07:27 15:53:46
p2173
(dp2174
V1
p2175
(dp2176
Vcoords
p2177
(lp2178
I176
aI176
aI240
aI384
asVprob
p2179
I98
ssV2
p2180
(dp2181
Vcoords
p2182
(lp2183
I256
aI176
aI336
aI384
asVprob
p2184
I94
sstp2185
a(I2
V2017:07:27 15:54:48
p2186
(dp2187
V1
p2188
(dp2189
Vcoords
p2190
(lp2191
I256
aI224
aI304
aI336
asVprob
p2192
I91
ssV2
p2193
(dp2194
Vcoords
p2195
(lp2196
I288
aI224
aI336
aI336
asVprob
p2197
I85
sstp2198
a(I1
V2017:07:27 15:55:18
p2199
(dp2200
V1
p2201
(dp2202
Vcoords
p2203
(lp2204
I144
aI192
aI208
aI368
asVprob
p2205
I96
sstp2206
a(I1
V2017:07:27 15:58:30
p2207
(dp2208
V1
p2209
(dp2210
Vcoords
p2211
(lp2212
I528
aI240
aI576
aI320
asVprob
p2213
I88
sstp2214
a(I1
V2017:07:27 15:58:34
p2215
(dp2216
V1
p2217
(dp2218
Vcoords
p2219
(lp2220
I640
aI224
aI704
aI368
asVprob
p2221
I84
sstp2222
a(I1
V2017:07:27 15:58:50
p2223
(dp2224
V1
p2225
(dp2226
Vcoords
p2227
(lp2228
I112
aI176
aI208
aI400
asVprob
p2229
I96
sstp2230
a(I1
V2017:07:27 15:59:14
p2231
(dp2232
V1
p2233
(dp2234
Vcoords
p2235
(lp2236
I208
aI208
aI256
aI336
asVprob
p2237
I86
sstp2238
a(I1
V2017:07:27 16:01:02
p2239
(dp2240
V1
p2241
(dp2242
Vcoords
p2243
(lp2244
I16
aI80
aI160
aI448
asVprob
p2245
I97
sstp2246
a(I1
V2017:07:27 16:02:20
p2247
(dp2248
V1
p2249
(dp2250
Vcoords
p2251
(lp2252
I288
aI224
aI336
aI320
asVprob
p2253
I97
sstp2254
a(I1
V2017:07:27 16:05:20
p2255
(dp2256
V1
p2257
(dp2258
Vcoords
p2259
(lp2260
I192
aI144
aI320
aI464
asVprob
p2261
I98
sstp2262
a(I1
V2017:07:27 16:05:26
p2263
(dp2264
V1
p2265
(dp2266
Vcoords
p2267
(lp2268
I240
aI208
aI288
aI320
asVprob
p2269
I87
sstp2270
a(I1
V2017:07:27 16:06:16
p2271
(dp2272
V1
p2273
(dp2274
Vcoords
p2275
(lp2276
I80
aI128
aI192
aI448
asVprob
p2277
I97
sstp2278
a(I1
V2017:07:27 16:06:36
p2279
(dp2280
V1
p2281
(dp2282
Vcoords
p2283
(lp2284
I256
aI176
aI336
aI384
asVprob
p2285
I98
sstp2286
a(I1
V2017:07:27 16:08:58
p2287
(dp2288
V1
p2289
(dp2290
Vcoords
p2291
(lp2292
I176
aI112
aI304
aI432
asVprob
p2293
I99
sstp2294
a(I1
V2017:07:27 16:11:38
p2295
(dp2296
V1
p2297
(dp2298
Vcoords
p2299
(lp2300
I64
aI96
aI176
aI432
asVprob
p2301
I97
sstp2302
a(I2
V2017:07:27 16:14:32
p2303
(dp2304
V1
p2305
(dp2306
Vcoords
p2307
(lp2308
I272
aI192
aI352
aI400
asVprob
p2309
I98
ssV2
p2310
(dp2311
Vcoords
p2312
(lp2313
I208
aI192
aI272
aI400
asVprob
p2314
I97
sstp2315
a(I1
V2017:07:27 16:15:22
p2316
(dp2317
V1
p2318
(dp2319
Vcoords
p2320
(lp2321
I288
aI208
aI336
aI320
asVprob
p2322
I96
sstp2323
a(I2
V2017:07:27 16:16:32
p2324
(dp2325
V1
p2326
(dp2327
Vcoords
p2328
(lp2329
I272
aI176
aI336
aI384
asVprob
p2330
I97
ssV2
p2331
(dp2332
Vcoords
p2333
(lp2334
I208
aI176
aI256
aI352
asVprob
p2335
I95
sstp2336
a(I1
V2017:07:27 16:17:20
p2337
(dp2338
V1
p2339
(dp2340
Vcoords
p2341
(lp2342
I288
aI192
aI384
aI400
asVprob
p2343
I98
sstp2344
a(I1
V2017:07:27 16:22:04
p2345
(dp2346
V1
p2347
(dp2348
Vcoords
p2349
(lp2350
I96
aI128
aI224
aI464
asVprob
p2351
I99
sstp2352
a(I1
V2017:07:27 16:24:06
p2353
(dp2354
V1
p2355
(dp2356
Vcoords
p2357
(lp2358
I288
aI208
aI336
aI320
asVprob
p2359
I94
sstp2360
a(I1
V2017:07:27 16:28:50
p2361
(dp2362
V1
p2363
(dp2364
Vcoords
p2365
(lp2366
I336
aI224
aI384
aI320
asVprob
p2367
I80
sstp2368
a(I1
V2017:07:27 16:30:16
p2369
(dp2370
V1
p2371
(dp2372
Vcoords
p2373
(lp2374
I144
aI96
aI288
aI480
asVprob
p2375
I97
sstp2376
a(I1
V2017:07:27 16:31:10
p2377
(dp2378
V2
p2379
(dp2380
Vcoords
p2381
(lp2382
I288
aI208
aI368
aI352
asVprob
p2383
I88
sstp2384
a(I1
V2017:07:27 16:31:26
p2385
(dp2386
V1
p2387
(dp2388
Vcoords
p2389
(lp2390
I464
aI208
aI528
aI400
asVprob
p2391
I97
sstp2392
a.