(lp0
(I2
V2017:08:04 10:22:02
p1
(dp2
V1
p3
(dp4
Vcoords
p5
(lp6
I192
aI0
aI544
aI576
asVprob
p7
I94
ssV3
p8
(dp9
Vcoords
p10
(lp11
I624
aI0
aI800
aI576
asVprob
p12
I81
sstp13
a(I1
V2017:08:04 10:22:38
p14
(dp15
V3
p16
(dp17
Vcoords
p18
(lp19
I48
aI240
aI80
aI304
asVprob
p20
I84
sstp21
a(I2
V2017:08:04 10:24:38
p22
(dp23
V1
p24
(dp25
Vcoords
p26
(lp27
I208
aI144
aI272
aI384
asVprob
p28
I93
ssV2
p29
(dp30
Vcoords
p31
(lp32
I0
aI224
aI224
aI592
asVprob
p33
I88
sstp34
a(I1
V2017:08:04 10:31:02
p35
(dp36
V1
p37
(dp38
Vcoords
p39
(lp40
I288
aI224
aI320
aI320
asVprob
p41
I84
sstp42
a(I1
V2017:08:04 10:33:20
p43
(dp44
V1
p45
(dp46
Vcoords
p47
(lp48
I16
aI0
aI256
aI560
asVprob
p49
I99
sstp50
a(I1
V2017:08:04 10:34:34
p51
(dp52
V1
p53
(dp54
Vcoords
p55
(lp56
I32
aI240
aI64
aI304
asVprob
p57
I90
sstp58
a(I2
V2017:08:04 10:38:02
p59
(dp60
V1
p61
(dp62
Vcoords
p63
(lp64
I192
aI176
aI272
aI400
asVprob
p65
I95
ssV2
p66
(dp67
Vcoords
p68
(lp69
I128
aI192
aI208
aI384
asVprob
p70
I91
sstp71
a(I3
V2017:08:04 10:39:10
p72
(dp73
V1
p74
(dp75
Vcoords
p76
(lp77
I16
aI112
aI112
aI432
asVprob
p78
I95
ssV3
p79
(dp80
Vcoords
p81
(lp82
I80
aI144
aI144
aI384
asVprob
p83
I81
ssV2
p84
(dp85
Vcoords
p86
(lp87
I144
aI80
aI272
aI480
asVprob
p88
I95
sstp89
a(I3
V2017:08:04 10:44:34
p90
(dp91
V1
p92
(dp93
Vcoords
p94
(lp95
I560
aI160
aI640
aI384
asVprob
p96
I98
ssV3
p97
(dp98
Vcoords
p99
(lp100
I480
aI224
aI528
aI352
asVprob
p101
I96
ssV2
p102
(dp103
Vcoords
p104
(lp105
I672
aI176
aI800
aI432
asVprob
p106
I97
sstp107
a(I1
V2017:08:04 10:45:56
p108
(dp109
V2
p110
(dp111
Vcoords
p112
(lp113
I64
aI224
aI112
aI320
asVprob
p114
I81
sstp115
a(I1
V2017:08:04 10:46:28
p116
(dp117
V2
p118
(dp119
Vcoords
p120
(lp121
I80
aI240
aI112
aI304
asVprob
p122
I82
sstp123
a(I3
V2017:08:04 10:47:14
p124
(dp125
V1
p126
(dp127
Vcoords
p128
(lp129
I320
aI240
aI352
aI304
asVprob
p130
I87
ssV3
p131
(dp132
Vcoords
p133
(lp134
I336
aI224
aI368
aI288
asVprob
p135
I86
ssV2
p136
(dp137
Vcoords
p138
(lp139
I416
aI224
aI448
aI288
asVprob
p140
I87
sstp141
a(I1
V2017:08:04 10:47:54
p142
(dp143
V1
p144
(dp145
Vcoords
p146
(lp147
I0
aI192
aI48
aI320
asVprob
p148
I86
sstp149
a(I2
V2017:08:04 10:50:52
p150
(dp151
V1
p152
(dp153
Vcoords
p154
(lp155
I144
aI32
aI304
aI528
asVprob
p156
I97
ssV2
p157
(dp158
Vcoords
p159
(lp160
I48
aI144
aI128
aI400
asVprob
p161
I94
sstp162
a(I1
V2017:08:04 10:51:34
p163
(dp164
V1
p165
(dp166
Vcoords
p167
(lp168
I192
aI96
aI304
aI432
asVprob
p169
I98
sstp170
a(I1
V2017:08:04 10:53:00
p171
(dp172
V1
p173
(dp174
Vcoords
p175
(lp176
I256
aI176
aI336
aI400
asVprob
p177
I98
sstp178
a(I1
V2017:08:04 10:58:26
p179
(dp180
V1
p181
(dp182
Vcoords
p183
(lp184
I80
aI240
aI112
aI304
asVprob
p185
I81
sstp186
a(I2
V2017:08:04 10:58:44
p187
(dp188
V1
p189
(dp190
Vcoords
p191
(lp192
I320
aI224
aI352
aI288
asVprob
p193
I91
ssV3
p194
(dp195
Vcoords
p196
(lp197
I64
aI240
aI96
aI304
asVprob
p198
I81
sstp199
a(I1
V2017:08:04 11:03:42
p200
(dp201
V1
p202
(dp203
Vcoords
p204
(lp205
I320
aI240
aI352
aI304
asVprob
p206
I87
sstp207
a(I1
V2017:08:04 11:06:26
p208
(dp209
V1
p210
(dp211
Vcoords
p212
(lp213
I304
aI224
aI336
aI304
asVprob
p214
I97
sstp215
a(I1
V2017:08:04 11:08:40
p216
(dp217
V1
p218
(dp219
Vcoords
p220
(lp221
I32
aI80
aI160
aI432
asVprob
p222
I94
sstp223
a(I1
V2017:08:04 11:10:34
p224
(dp225
V1
p226
(dp227
Vcoords
p228
(lp229
I96
aI32
aI288
aI528
asVprob
p230
I98
sstp231
a(I1
V2017:08:04 11:11:54
p232
(dp233
V1
p234
(dp235
Vcoords
p236
(lp237
I272
aI224
aI304
aI288
asVprob
p238
I84
sstp239
a(I1
V2017:08:04 11:12:10
p240
(dp241
V1
p242
(dp243
Vcoords
p244
(lp245
I208
aI112
aI320
aI432
asVprob
p246
I99
sstp247
a(I1
V2017:08:04 11:12:52
p248
(dp249
V1
p250
(dp251
Vcoords
p252
(lp253
I80
aI240
aI112
aI304
asVprob
p254
I81
sstp255
a(I1
V2017:08:04 11:15:34
p256
(dp257
V1
p258
(dp259
Vcoords
p260
(lp261
I144
aI80
aI336
aI544
asVprob
p262
I99
sstp263
a(I2
V2017:08:04 11:16:54
p264
(dp265
V1
p266
(dp267
Vcoords
p268
(lp269
I288
aI224
aI320
aI304
asVprob
p270
I93
ssV2
p271
(dp272
Vcoords
p273
(lp274
I320
aI224
aI352
aI288
asVprob
p275
I86
sstp276
a(I3
V2017:08:04 11:17:26
p277
(dp278
V1
p279
(dp280
Vcoords
p281
(lp282
I16
aI176
aI96
aI432
asVprob
p283
I99
ssV3
p284
(dp285
Vcoords
p286
(lp287
I112
aI144
aI208
aI400
asVprob
p288
I95
ssV2
p289
(dp290
Vcoords
p291
(lp292
I528
aI192
aI592
aI368
asVprob
p293
I96
sstp294
a(I1
V2017:08:04 11:17:52
p295
(dp296
V2
p297
(dp298
Vcoords
p299
(lp300
I32
aI240
aI64
aI304
asVprob
p301
I84
sstp302
a(I1
V2017:08:04 11:18:14
p303
(dp304
V1
p305
(dp306
Vcoords
p307
(lp308
I48
aI256
aI80
aI320
asVprob
p309
I94
sstp310
a(I1
V2017:08:04 11:18:36
p311
(dp312
V1
p313
(dp314
Vcoords
p315
(lp316
I32
aI48
aI160
aI480
asVprob
p317
I94
sstp318
a(I1
V2017:08:04 11:19:20
p319
(dp320
V1
p321
(dp322
Vcoords
p323
(lp324
I288
aI224
aI320
aI288
asVprob
p325
I91
sstp326
a(I1
V2017:08:04 11:19:24
p327
(dp328
V1
p329
(dp330
Vcoords
p331
(lp332
I288
aI224
aI320
aI288
asVprob
p333
I89
sstp334
a(I2
V2017:08:04 11:20:10
p335
(dp336
V1
p337
(dp338
Vcoords
p339
(lp340
I80
aI32
aI288
aI528
asVprob
p341
I98
ssV2
p342
(dp343
Vcoords
p344
(lp345
I288
aI224
aI320
aI288
asVprob
p346
I93
sstp347
a(I2
V2017:08:04 11:20:32
p348
(dp349
V1
p350
(dp351
Vcoords
p352
(lp353
I560
aI224
aI592
aI320
asVprob
p354
I93
ssV2
p355
(dp356
Vcoords
p357
(lp358
I288
aI224
aI320
aI304
asVprob
p359
I90
sstp360
a(I2
V2017:08:04 11:20:46
p361
(dp362
V3
p363
(dp364
Vcoords
p365
(lp366
I288
aI224
aI320
aI288
asVprob
p367
I82
ssV4
p368
(dp369
Vcoords
p370
(lp371
I304
aI224
aI336
aI288
asVprob
p372
I80
sstp373
a(I1
V2017:08:04 11:20:52
p374
(dp375
V3
p376
(dp377
Vcoords
p378
(lp379
I576
aI256
aI608
aI320
asVprob
p380
I83
sstp381
a(I1
V2017:08:04 11:22:22
p382
(dp383
V2
p384
(dp385
Vcoords
p386
(lp387
I16
aI240
aI48
aI320
asVprob
p388
I89
sstp389
a(I1
V2017:08:04 11:24:00
p390
(dp391
V1
p392
(dp393
Vcoords
p394
(lp395
I128
aI144
aI224
aI384
asVprob
p396
I99
sstp397
a(I1
V2017:08:04 11:32:06
p398
(dp399
V1
p400
(dp401
Vcoords
p402
(lp403
I336
aI224
aI368
aI304
asVprob
p404
I95
sstp405
a(I1
V2017:08:04 11:36:24
p406
(dp407
V1
p408
(dp409
Vcoords
p410
(lp411
I304
aI224
aI336
aI304
asVprob
p412
I93
sstp413
a(I2
V2017:08:04 11:38:38
p414
(dp415
V1
p416
(dp417
Vcoords
p418
(lp419
I320
aI224
aI352
aI288
asVprob
p420
I90
ssV2
p421
(dp422
Vcoords
p423
(lp424
I304
aI224
aI336
aI288
asVprob
p425
I86
sstp426
a(I2
V2017:08:04 11:40:42
p427
(dp428
V1
p429
(dp430
Vcoords
p431
(lp432
I288
aI224
aI320
aI304
asVprob
p433
I90
ssV4
p434
(dp435
Vcoords
p436
(lp437
I336
aI240
aI368
aI304
asVprob
p438
I80
sstp439
a(I1
V2017:08:04 11:42:46
p440
(dp441
V1
p442
(dp443
Vcoords
p444
(lp445
I288
aI224
aI320
aI288
asVprob
p446
I93
sstp447
a(I2
V2017:08:04 11:42:52
p448
(dp449
V1
p450
(dp451
Vcoords
p452
(lp453
I48
aI240
aI80
aI304
asVprob
p454
I85
ssV2
p455
(dp456
Vcoords
p457
(lp458
I64
aI240
aI96
aI304
asVprob
p459
I83
sstp460
a(I1
V2017:08:04 11:43:54
p461
(dp462
V1
p463
(dp464
Vcoords
p465
(lp466
I304
aI224
aI336
aI304
asVprob
p467
I92
sstp468
a(I1
V2017:08:04 11:44:18
p469
(dp470
V1
p471
(dp472
Vcoords
p473
(lp474
I48
aI112
aI192
aI448
asVprob
p475
I96
sstp476
a(I1
V2017:08:04 11:48:14
p477
(dp478
V1
p479
(dp480
Vcoords
p481
(lp482
I32
aI192
aI96
aI384
asVprob
p483
I94
sstp484
a(I2
V2017:08:04 11:48:46
p485
(dp486
V1
p487
(dp488
Vcoords
p489
(lp490
I48
aI240
aI80
aI304
asVprob
p491
I89
ssV2
p492
(dp493
Vcoords
p494
(lp495
I32
aI240
aI64
aI304
asVprob
p496
I85
sstp497
a(I1
V2017:08:04 11:49:26
p498
(dp499
V1
p500
(dp501
Vcoords
p502
(lp503
I64
aI208
aI112
aI336
asVprob
p504
I96
sstp505
a(I1
V2017:08:04 11:53:40
p506
(dp507
V1
p508
(dp509
Vcoords
p510
(lp511
I16
aI240
aI48
aI304
asVprob
p512
I92
sstp513
a(I1
V2017:08:04 11:55:56
p514
(dp515
V1
p516
(dp517
Vcoords
p518
(lp519
I304
aI208
aI352
aI336
asVprob
p520
I95
sstp521
a(I1
V2017:08:04 11:59:24
p522
(dp523
V2
p524
(dp525
Vcoords
p526
(lp527
I48
aI240
aI80
aI304
asVprob
p528
I90
sstp529
a(I1
V2017:08:04 12:02:08
p530
(dp531
V1
p532
(dp533
Vcoords
p534
(lp535
I16
aI240
aI48
aI304
asVprob
p536
I87
sstp537
a(I1
V2017:08:04 12:04:06
p538
(dp539
V1
p540
(dp541
Vcoords
p542
(lp543
I64
aI240
aI96
aI304
asVprob
p544
I84
sstp545
a(I1
V2017:08:04 12:05:42
p546
(dp547
V1
p548
(dp549
Vcoords
p550
(lp551
I256
aI160
aI320
aI368
asVprob
p552
I98
sstp553
a(I1
V2017:08:04 12:05:54
p554
(dp555
V1
p556
(dp557
Vcoords
p558
(lp559
I224
aI176
aI288
aI384
asVprob
p560
I97
sstp561
a(I2
V2017:08:04 12:06:36
p562
(dp563
V1
p564
(dp565
Vcoords
p566
(lp567
I304
aI224
aI336
aI288
asVprob
p568
I91
ssV2
p569
(dp570
Vcoords
p571
(lp572
I320
aI224
aI352
aI304
asVprob
p573
I83
sstp574
a(I2
V2017:08:04 12:06:56
p575
(dp576
V1
p577
(dp578
Vcoords
p579
(lp580
I656
aI224
aI720
aI368
asVprob
p581
I96
ssV2
p582
(dp583
Vcoords
p584
(lp585
I48
aI32
aI224
aI560
asVprob
p586
I93
sstp587
a(I2
V2017:08:04 12:07:22
p588
(dp589
V1
p590
(dp591
Vcoords
p592
(lp593
I208
aI128
aI320
aI432
asVprob
p594
I98
ssV2
p595
(dp596
Vcoords
p597
(lp598
I96
aI128
aI208
aI432
asVprob
p599
I94
sstp600
a(I1
V2017:08:04 12:08:06
p601
(dp602
V1
p603
(dp604
Vcoords
p605
(lp606
I32
aI240
aI64
aI304
asVprob
p607
I80
sstp608
a(I1
V2017:08:04 12:08:24
p609
(dp610
V1
p611
(dp612
Vcoords
p613
(lp614
I16
aI240
aI48
aI304
asVprob
p615
I89
sstp616
a(I2
V2017:08:04 12:08:30
p617
(dp618
V1
p619
(dp620
Vcoords
p621
(lp622
I16
aI240
aI48
aI320
asVprob
p623
I90
ssV2
p624
(dp625
Vcoords
p626
(lp627
I0
aI240
aI32
aI320
asVprob
p628
I85
sstp629
a(I2
V2017:08:04 12:09:18
p630
(dp631
V1
p632
(dp633
Vcoords
p634
(lp635
I16
aI240
aI48
aI320
asVprob
p636
I92
ssV2
p637
(dp638
Vcoords
p639
(lp640
I32
aI240
aI64
aI320
asVprob
p641
I85
sstp642
a(I3
V2017:08:04 12:10:40
p643
(dp644
V1
p645
(dp646
Vcoords
p647
(lp648
I176
aI176
aI256
aI368
asVprob
p649
I98
ssV3
p650
(dp651
Vcoords
p652
(lp653
I128
aI208
aI192
aI368
asVprob
p654
I96
ssV2
p655
(dp656
Vcoords
p657
(lp658
I288
aI160
aI384
aI368
asVprob
p659
I97
sstp660
a(I2
V2017:08:04 12:12:42
p661
(dp662
V1
p663
(dp664
Vcoords
p665
(lp666
I64
aI48
aI240
aI512
asVprob
p667
I99
ssV2
p668
(dp669
Vcoords
p670
(lp671
I272
aI192
aI320
aI336
asVprob
p672
I90
sstp673
a(I2
V2017:08:04 12:13:40
p674
(dp675
V1
p676
(dp677
Vcoords
p678
(lp679
I96
aI208
aI160
aI336
asVprob
p680
I91
ssV2
p681
(dp682
Vcoords
p683
(lp684
I48
aI224
aI80
aI288
asVprob
p685
I81
sstp686
a(I1
V2017:08:04 12:14:22
p687
(dp688
V1
p689
(dp690
Vcoords
p691
(lp692
I32
aI16
aI256
aI544
asVprob
p693
I95
sstp694
a(I1
V2017:08:04 12:15:48
p695
(dp696
V2
p697
(dp698
Vcoords
p699
(lp700
I352
aI224
aI384
aI304
asVprob
p701
I87
sstp702
a(I1
V2017:08:04 12:16:56
p703
(dp704
V1
p705
(dp706
Vcoords
p707
(lp708
I352
aI240
aI384
aI304
asVprob
p709
I86
sstp710
a(I1
V2017:08:04 12:17:36
p711
(dp712
V1
p713
(dp714
Vcoords
p715
(lp716
I16
aI240
aI48
aI304
asVprob
p717
I89
sstp718
a(I1
V2017:08:04 12:17:58
p719
(dp720
V1
p721
(dp722
Vcoords
p723
(lp724
I128
aI176
aI192
aI352
asVprob
p725
I96
sstp726
a(I3
V2017:08:04 12:20:14
p727
(dp728
V1
p729
(dp730
Vcoords
p731
(lp732
I128
aI192
aI192
aI336
asVprob
p733
I96
ssV3
p734
(dp735
Vcoords
p736
(lp737
I16
aI176
aI64
aI352
asVprob
p738
I93
ssV4
p739
(dp740
Vcoords
p741
(lp742
I112
aI208
aI176
aI368
asVprob
p743
I93
sstp744
a(I1
V2017:08:04 12:21:10
p745
(dp746
V1
p747
(dp748
Vcoords
p749
(lp750
I320
aI224
aI352
aI304
asVprob
p751
I95
sstp752
a(I1
V2017:08:04 12:22:00
p753
(dp754
V1
p755
(dp756
Vcoords
p757
(lp758
I304
aI224
aI336
aI304
asVprob
p759
I87
sstp760
a(I3
V2017:08:04 12:22:42
p761
(dp762
V1
p763
(dp764
Vcoords
p765
(lp766
I16
aI0
aI240
aI560
asVprob
p767
I97
ssV3
p768
(dp769
Vcoords
p770
(lp771
I672
aI240
aI704
aI336
asVprob
p772
I80
ssV2
p773
(dp774
Vcoords
p775
(lp776
I272
aI176
aI336
aI368
asVprob
p777
I97
sstp778
a(I1
V2017:08:04 12:25:54
p779
(dp780
V1
p781
(dp782
Vcoords
p783
(lp784
I0
aI112
aI96
aI464
asVprob
p785
I87
sstp786
a(I2
V2017:08:04 12:27:12
p787
(dp788
V1
p789
(dp790
Vcoords
p791
(lp792
I336
aI224
aI368
aI304
asVprob
p793
I96
ssV2
p794
(dp795
Vcoords
p796
(lp797
I352
aI224
aI384
aI304
asVprob
p798
I89
sstp799
a(I1
V2017:08:04 12:27:18
p800
(dp801
V2
p802
(dp803
Vcoords
p804
(lp805
I736
aI256
aI784
aI336
asVprob
p806
I87
sstp807
a(I2
V2017:08:04 12:27:48
p808
(dp809
V1
p810
(dp811
Vcoords
p812
(lp813
I304
aI240
aI336
aI304
asVprob
p814
I90
ssV2
p815
(dp816
Vcoords
p817
(lp818
I400
aI224
aI432
aI304
asVprob
p819
I87
sstp820
a(I2
V2017:08:04 12:27:52
p821
(dp822
V1
p823
(dp824
Vcoords
p825
(lp826
I16
aI224
aI64
aI352
asVprob
p827
I93
ssV2
p828
(dp829
Vcoords
p830
(lp831
I320
aI224
aI368
aI304
asVprob
p832
I87
sstp833
a(I1
V2017:08:04 12:28:22
p834
(dp835
V1
p836
(dp837
Vcoords
p838
(lp839
I64
aI208
aI112
aI336
asVprob
p840
I88
sstp841
a(I1
V2017:08:04 12:30:14
p842
(dp843
V1
p844
(dp845
Vcoords
p846
(lp847
I224
aI192
aI288
aI368
asVprob
p848
I97
sstp849
a(I1
V2017:08:04 12:30:44
p850
(dp851
V1
p852
(dp853
Vcoords
p854
(lp855
I32
aI224
aI80
aI336
asVprob
p856
I91
sstp857
a(I1
V2017:08:04 12:31:06
p858
(dp859
V1
p860
(dp861
Vcoords
p862
(lp863
I288
aI208
aI352
aI368
asVprob
p864
I92
sstp865
a(I2
V2017:08:04 12:31:42
p866
(dp867
V1
p868
(dp869
Vcoords
p870
(lp871
I336
aI224
aI368
aI288
asVprob
p872
I96
ssV2
p873
(dp874
Vcoords
p875
(lp876
I32
aI224
aI64
aI320
asVprob
p877
I86
sstp878
a(I2
V2017:08:04 12:33:04
p879
(dp880
V1
p881
(dp882
Vcoords
p883
(lp884
I64
aI272
aI112
aI352
asVprob
p885
I87
ssV2
p886
(dp887
Vcoords
p888
(lp889
I48
aI272
aI96
aI352
asVprob
p890
I84
sstp891
a(I2
V2017:08:04 12:33:20
p892
(dp893
V1
p894
(dp895
Vcoords
p896
(lp897
I32
aI256
aI96
aI352
asVprob
p898
I86
ssV2
p899
(dp900
Vcoords
p901
(lp902
I288
aI224
aI320
aI288
asVprob
p903
I85
sstp904
a(I1
V2017:08:04 12:34:04
p905
(dp906
V2
p907
(dp908
Vcoords
p909
(lp910
I48
aI256
aI112
aI352
asVprob
p911
I81
sstp912
a(I1
V2017:08:04 12:36:24
p913
(dp914
V1
p915
(dp916
Vcoords
p917
(lp918
I336
aI240
aI368
aI304
asVprob
p919
I94
sstp920
a(I1
V2017:08:04 12:36:46
p921
(dp922
V1
p923
(dp924
Vcoords
p925
(lp926
I32
aI256
aI96
aI352
asVprob
p927
I83
sstp928
a(I1
V2017:08:04 12:37:52
p929
(dp930
V3
p931
(dp932
Vcoords
p933
(lp934
I304
aI224
aI336
aI304
asVprob
p935
I86
sstp936
a(I1
V2017:08:04 12:38:34
p937
(dp938
V3
p939
(dp940
Vcoords
p941
(lp942
I48
aI272
aI96
aI352
asVprob
p943
I80
sstp944
a(I1
V2017:08:04 12:38:48
p945
(dp946
V1
p947
(dp948
Vcoords
p949
(lp950
I48
aI256
aI112
aI352
asVprob
p951
I85
sstp952
a(I1
V2017:08:04 12:40:14
p953
(dp954
V2
p955
(dp956
Vcoords
p957
(lp958
I48
aI272
aI96
aI352
asVprob
p959
I84
sstp960
a(I1
V2017:08:04 12:40:34
p961
(dp962
V3
p963
(dp964
Vcoords
p965
(lp966
I48
aI256
aI112
aI352
asVprob
p967
I84
sstp968
a(I1
V2017:08:04 12:41:12
p969
(dp970
V3
p971
(dp972
Vcoords
p973
(lp974
I48
aI256
aI112
aI352
asVprob
p975
I83
sstp976
a(I1
V2017:08:04 12:41:34
p977
(dp978
V1
p979
(dp980
Vcoords
p981
(lp982
I48
aI256
aI112
aI352
asVprob
p983
I86
sstp984
a(I2
V2017:08:04 12:42:50
p985
(dp986
V1
p987
(dp988
Vcoords
p989
(lp990
I304
aI208
aI368
aI336
asVprob
p991
I96
ssV2
p992
(dp993
Vcoords
p994
(lp995
I160
aI192
aI224
aI336
asVprob
p996
I94
sstp997
a(I2
V2017:08:04 12:43:30
p998
(dp999
V3
p1000
(dp1001
Vcoords
p1002
(lp1003
I272
aI224
aI304
aI320
asVprob
p1004
I84
ssV2
p1005
(dp1006
Vcoords
p1007
(lp1008
I304
aI224
aI336
aI320
asVprob
p1009
I90
sstp1010
a(I3
V2017:08:04 12:44:30
p1011
(dp1012
V1
p1013
(dp1014
Vcoords
p1015
(lp1016
I320
aI240
aI352
aI304
asVprob
p1017
I92
ssV4
p1018
(dp1019
Vcoords
p1020
(lp1021
I352
aI240
aI384
aI304
asVprob
p1022
I83
ssV6
p1023
(dp1024
Vcoords
p1025
(lp1026
I336
aI240
aI368
aI304
asVprob
p1027
I80
sstp1028
a(I1
V2017:08:04 12:44:54
p1029
(dp1030
V1
p1031
(dp1032
Vcoords
p1033
(lp1034
I48
aI272
aI96
aI352
asVprob
p1035
I88
sstp1036
a(I1
V2017:08:04 12:45:00
p1037
(dp1038
V1
p1039
(dp1040
Vcoords
p1041
(lp1042
I80
aI272
aI128
aI368
asVprob
p1043
I93
sstp1044
a(I1
V2017:08:04 12:45:36
p1045
(dp1046
V3
p1047
(dp1048
Vcoords
p1049
(lp1050
I48
aI272
aI96
aI352
asVprob
p1051
I86
sstp1052
a(I1
V2017:08:04 12:45:54
p1053
(dp1054
V4
p1055
(dp1056
Vcoords
p1057
(lp1058
I48
aI272
aI96
aI352
asVprob
p1059
I81
sstp1060
a(I1
V2017:08:04 12:46:36
p1061
(dp1062
V1
p1063
(dp1064
Vcoords
p1065
(lp1066
I48
aI256
aI112
aI352
asVprob
p1067
I88
sstp1068
a(I2
V2017:08:04 12:46:48
p1069
(dp1070
V1
p1071
(dp1072
Vcoords
p1073
(lp1074
I704
aI256
aI736
aI320
asVprob
p1075
I91
ssV3
p1076
(dp1077
Vcoords
p1078
(lp1079
I48
aI272
aI96
aI352
asVprob
p1080
I87
sstp1081
a(I2
V2017:08:04 12:46:54
p1082
(dp1083
V3
p1084
(dp1085
Vcoords
p1086
(lp1087
I320
aI240
aI352
aI304
asVprob
p1088
I81
ssV2
p1089
(dp1090
Vcoords
p1091
(lp1092
I32
aI256
aI96
aI352
asVprob
p1093
I81
sstp1094
a(I1
V2017:08:04 12:48:04
p1095
(dp1096
V2
p1097
(dp1098
Vcoords
p1099
(lp1100
I384
aI240
aI416
aI304
asVprob
p1101
I82
sstp1102
a(I1
V2017:08:04 12:48:08
p1103
(dp1104
V1
p1105
(dp1106
Vcoords
p1107
(lp1108
I32
aI256
aI96
aI352
asVprob
p1109
I82
sstp1110
a(I1
V2017:08:04 12:48:12
p1111
(dp1112
V3
p1113
(dp1114
Vcoords
p1115
(lp1116
I16
aI240
aI48
aI304
asVprob
p1117
I83
sstp1118
a(I1
V2017:08:04 12:48:16
p1119
(dp1120
V1
p1121
(dp1122
Vcoords
p1123
(lp1124
I48
aI256
aI112
aI352
asVprob
p1125
I87
sstp1126
a(I4
V2017:08:04 12:48:32
p1127
(dp1128
V1
p1129
(dp1130
Vcoords
p1131
(lp1132
I96
aI48
aI288
aI560
asVprob
p1133
I97
ssV3
p1134
(dp1135
Vcoords
p1136
(lp1137
I352
aI240
aI384
aI304
asVprob
p1138
I88
ssV2
p1139
(dp1140
Vcoords
p1141
(lp1142
I32
aI144
aI112
aI400
asVprob
p1143
I95
ssV4
p1144
(dp1145
Vcoords
p1146
(lp1147
I304
aI224
aI336
aI288
asVprob
p1148
I84
sstp1149
a(I1
V2017:08:04 12:48:56
p1150
(dp1151
V3
p1152
(dp1153
Vcoords
p1154
(lp1155
I48
aI256
aI112
aI352
asVprob
p1156
I87
sstp1157
a(I2
V2017:08:04 12:49:46
p1158
(dp1159
V5
p1160
(dp1161
Vcoords
p1162
(lp1163
I48
aI272
aI96
aI352
asVprob
p1164
I81
ssV4
p1165
(dp1166
Vcoords
p1167
(lp1168
I64
aI256
aI112
aI336
asVprob
p1169
I81
sstp1170
a(I1
V2017:08:04 12:49:56
p1171
(dp1172
V3
p1173
(dp1174
Vcoords
p1175
(lp1176
I64
aI272
aI112
aI352
asVprob
p1177
I80
sstp1178
a(I1
V2017:08:04 12:50:52
p1179
(dp1180
V1
p1181
(dp1182
Vcoords
p1183
(lp1184
I48
aI272
aI96
aI352
asVprob
p1185
I81
sstp1186
a(I1
V2017:08:04 12:52:12
p1187
(dp1188
V1
p1189
(dp1190
Vcoords
p1191
(lp1192
I64
aI272
aI112
aI352
asVprob
p1193
I91
sstp1194
a(I1
V2017:08:04 12:52:18
p1195
(dp1196
V1
p1197
(dp1198
Vcoords
p1199
(lp1200
I400
aI208
aI464
aI352
asVprob
p1201
I97
sstp1202
a(I1
V2017:08:04 12:52:30
p1203
(dp1204
V2
p1205
(dp1206
Vcoords
p1207
(lp1208
I48
aI272
aI96
aI352
asVprob
p1209
I85
sstp1210
a(I1
V2017:08:04 12:52:36
p1211
(dp1212
V1
p1213
(dp1214
Vcoords
p1215
(lp1216
I336
aI208
aI384
aI320
asVprob
p1217
I94
sstp1218
a(I4
V2017:08:04 12:52:58
p1219
(dp1220
V1
p1221
(dp1222
Vcoords
p1223
(lp1224
I288
aI192
aI336
aI352
asVprob
p1225
I97
ssV3
p1226
(dp1227
Vcoords
p1228
(lp1229
I144
aI176
aI208
aI368
asVprob
p1230
I97
ssV2
p1231
(dp1232
Vcoords
p1233
(lp1234
I16
aI112
aI128
aI464
asVprob
p1235
I97
ssV4
p1236
(dp1237
Vcoords
p1238
(lp1239
I336
aI208
aI384
aI320
asVprob
p1240
I92
sstp1241
a(I1
V2017:08:04 12:53:20
p1242
(dp1243
V1
p1244
(dp1245
Vcoords
p1246
(lp1247
I80
aI240
aI128
aI352
asVprob
p1248
I85
sstp1249
a(I1
V2017:08:04 12:53:24
p1250
(dp1251
V2
p1252
(dp1253
Vcoords
p1254
(lp1255
I80
aI240
aI128
aI352
asVprob
p1256
I82
sstp1257
a(I1
V2017:08:04 12:54:08
p1258
(dp1259
V2
p1260
(dp1261
Vcoords
p1262
(lp1263
I64
aI256
aI112
aI336
asVprob
p1264
I83
sstp1265
a(I1
V2017:08:04 12:55:46
p1266
(dp1267
V1
p1268
(dp1269
Vcoords
p1270
(lp1271
I288
aI192
aI352
aI336
asVprob
p1272
I95
sstp1273
a(I1
V2017:08:04 12:56:42
p1274
(dp1275
V2
p1276
(dp1277
Vcoords
p1278
(lp1279
I48
aI256
aI112
aI352
asVprob
p1280
I86
sstp1281
a(I6
V2017:08:04 12:57:10
p1282
(dp1283
V1
p1284
(dp1285
Vcoords
p1286
(lp1287
I320
aI224
aI352
aI304
asVprob
p1288
I92
ssV3
p1289
(dp1290
Vcoords
p1291
(lp1292
I464
aI208
aI512
aI336
asVprob
p1293
I90
ssV2
p1294
(dp1295
Vcoords
p1296
(lp1297
I512
aI192
aI560
aI336
asVprob
p1298
I91
ssV5
p1299
(dp1300
Vcoords
p1301
(lp1302
I448
aI208
aI496
aI336
asVprob
p1303
I88
ssV4
p1304
(dp1305
Vcoords
p1306
(lp1307
I560
aI224
aI608
aI336
asVprob
p1308
I90
ssV7
p1309
(dp1310
Vcoords
p1311
(lp1312
I400
aI224
aI432
aI320
asVprob
p1313
I86
sstp1314
a(I4
V2017:08:04 13:01:36
p1315
(dp1316
V3
p1317
(dp1318
Vcoords
p1319
(lp1320
I304
aI240
aI336
aI304
asVprob
p1321
I92
ssV2
p1322
(dp1323
Vcoords
p1324
(lp1325
I496
aI224
aI544
aI320
asVprob
p1326
I92
ssV4
p1327
(dp1328
Vcoords
p1329
(lp1330
I272
aI240
aI304
aI304
asVprob
p1331
I92
ssV6
p1332
(dp1333
Vcoords
p1334
(lp1335
I512
aI224
aI560
aI320
asVprob
p1336
I90
sstp1337
a(I2
V2017:08:04 13:03:28
p1338
(dp1339
V3
p1340
(dp1341
Vcoords
p1342
(lp1343
I336
aI224
aI384
aI304
asVprob
p1344
I91
ssV2
p1345
(dp1346
Vcoords
p1347
(lp1348
I32
aI32
aI256
aI592
asVprob
p1349
I91
sstp1350
a(I1
V2017:08:04 13:03:44
p1351
(dp1352
V1
p1353
(dp1354
Vcoords
p1355
(lp1356
I320
aI240
aI352
aI304
asVprob
p1357
I97
sstp1358
a(I5
V2017:08:04 13:04:22
p1359
(dp1360
V1
p1361
(dp1362
Vcoords
p1363
(lp1364
I272
aI224
aI304
aI304
asVprob
p1365
I94
ssV3
p1366
(dp1367
Vcoords
p1368
(lp1369
I448
aI224
aI496
aI320
asVprob
p1370
I90
ssV2
p1371
(dp1372
Vcoords
p1373
(lp1374
I144
aI192
aI208
aI368
asVprob
p1375
I91
ssV5
p1376
(dp1377
Vcoords
p1378
(lp1379
I304
aI224
aI336
aI320
asVprob
p1380
I87
ssV4
p1381
(dp1382
Vcoords
p1383
(lp1384
I400
aI224
aI432
aI320
asVprob
p1385
I90
sstp1386
a(I2
V2017:08:04 13:05:12
p1387
(dp1388
V1
p1389
(dp1390
Vcoords
p1391
(lp1392
I288
aI224
aI320
aI320
asVprob
p1393
I93
ssV3
p1394
(dp1395
Vcoords
p1396
(lp1397
I512
aI224
aI544
aI320
asVprob
p1398
I83
sstp1399
a(I2
V2017:08:04 13:05:28
p1400
(dp1401
V2
p1402
(dp1403
Vcoords
p1404
(lp1405
I496
aI208
aI544
aI336
asVprob
p1406
I89
ssV4
p1407
(dp1408
Vcoords
p1409
(lp1410
I512
aI208
aI560
aI320
asVprob
p1411
I82
sstp1412
a(I2
V2017:08:04 13:05:38
p1413
(dp1414
V1
p1415
(dp1416
Vcoords
p1417
(lp1418
I272
aI224
aI304
aI320
asVprob
p1419
I95
ssV3
p1420
(dp1421
Vcoords
p1422
(lp1423
I448
aI240
aI480
aI304
asVprob
p1424
I80
sstp1425
a(I4
V2017:08:04 13:06:12
p1426
(dp1427
V3
p1428
(dp1429
Vcoords
p1430
(lp1431
I320
aI224
aI352
aI320
asVprob
p1432
I84
ssV2
p1433
(dp1434
Vcoords
p1435
(lp1436
I336
aI224
aI368
aI304
asVprob
p1437
I87
ssV5
p1438
(dp1439
Vcoords
p1440
(lp1441
I416
aI224
aI464
aI320
asVprob
p1442
I81
ssV4
p1443
(dp1444
Vcoords
p1445
(lp1446
I304
aI224
aI336
aI320
asVprob
p1447
I82
sstp1448
a(I2
V2017:08:04 13:07:20
p1449
(dp1450
V3
p1451
(dp1452
Vcoords
p1453
(lp1454
I80
aI224
aI112
aI320
asVprob
p1455
I90
ssV2
p1456
(dp1457
Vcoords
p1458
(lp1459
I720
aI240
aI752
aI320
asVprob
p1460
I91
sstp1461
a(I4
V2017:08:04 13:07:46
p1462
(dp1463
V1
p1464
(dp1465
Vcoords
p1466
(lp1467
I448
aI224
aI480
aI320
asVprob
p1468
I96
ssV3
p1469
(dp1470
Vcoords
p1471
(lp1472
I656
aI224
aI720
aI336
asVprob
p1473
I96
ssV2
p1474
(dp1475
Vcoords
p1476
(lp1477
I400
aI224
aI432
aI320
asVprob
p1478
I96
ssV4
p1479
(dp1480
Vcoords
p1481
(lp1482
I80
aI224
aI128
aI320
asVprob
p1483
I92
sstp1484
a(I1
V2017:08:04 13:08:00
p1485
(dp1486
V1
p1487
(dp1488
Vcoords
p1489
(lp1490
I48
aI240
aI96
aI336
asVprob
p1491
I89
sstp1492
a(I3
V2017:08:04 13:15:54
p1493
(dp1494
V1
p1495
(dp1496
Vcoords
p1497
(lp1498
I272
aI176
aI336
aI368
asVprob
p1499
I98
ssV3
p1500
(dp1501
Vcoords
p1502
(lp1503
I512
aI224
aI560
aI336
asVprob
p1504
I93
ssV2
p1505
(dp1506
Vcoords
p1507
(lp1508
I208
aI192
aI272
aI368
asVprob
p1509
I95
sstp1510
a(I2
V2017:08:04 13:16:56
p1511
(dp1512
V1
p1513
(dp1514
Vcoords
p1515
(lp1516
I320
aI224
aI352
aI304
asVprob
p1517
I91
ssV2
p1518
(dp1519
Vcoords
p1520
(lp1521
I272
aI240
aI304
aI304
asVprob
p1522
I90
sstp1523
a(I1
V2017:08:04 13:19:04
p1524
(dp1525
V1
p1526
(dp1527
Vcoords
p1528
(lp1529
I-16
aI16
aI368
aI640
asVprob
p1530
I89
sstp1531
a(I1
V2017:08:04 13:29:14
p1532
(dp1533
V1
p1534
(dp1535
Vcoords
p1536
(lp1537
I128
aI160
aI208
aI400
asVprob
p1538
I96
sstp1539
a(I4
V2017:08:04 13:43:28
p1540
(dp1541
V1
p1542
(dp1543
Vcoords
p1544
(lp1545
I352
aI224
aI400
aI320
asVprob
p1546
I94
ssV3
p1547
(dp1548
Vcoords
p1549
(lp1550
I448
aI240
aI480
aI320
asVprob
p1551
I91
ssV2
p1552
(dp1553
Vcoords
p1554
(lp1555
I736
aI224
aI784
aI352
asVprob
p1556
I91
ssV4
p1557
(dp1558
Vcoords
p1559
(lp1560
I496
aI240
aI528
aI320
asVprob
p1561
I84
sstp1562
a(I1
V2017:08:04 13:46:16
p1563
(dp1564
V1
p1565
(dp1566
Vcoords
p1567
(lp1568
I32
aI240
aI80
aI320
asVprob
p1569
I86
sstp1570
a(I1
V2017:08:04 13:47:22
p1571
(dp1572
V2
p1573
(dp1574
Vcoords
p1575
(lp1576
I288
aI224
aI320
aI320
asVprob
p1577
I89
sstp1578
a(I2
V2017:08:04 13:48:10
p1579
(dp1580
V3
p1581
(dp1582
Vcoords
p1583
(lp1584
I352
aI224
aI384
aI288
asVprob
p1585
I85
ssV5
p1586
(dp1587
Vcoords
p1588
(lp1589
I336
aI224
aI368
aI288
asVprob
p1590
I80
sstp1591
a(I3
V2017:08:04 13:48:24
p1592
(dp1593
V1
p1594
(dp1595
Vcoords
p1596
(lp1597
I480
aI176
aI624
aI448
asVprob
p1598
I98
ssV2
p1599
(dp1600
Vcoords
p1601
(lp1602
I16
aI224
aI64
aI336
asVprob
p1603
I93
ssV5
p1604
(dp1605
Vcoords
p1606
(lp1607
I16
aI208
aI48
aI320
asVprob
p1608
I87
sstp1609
a(I2
V2017:08:04 13:51:18
p1610
(dp1611
V1
p1612
(dp1613
Vcoords
p1614
(lp1615
I80
aI160
aI160
aI384
asVprob
p1616
I98
ssV2
p1617
(dp1618
Vcoords
p1619
(lp1620
I192
aI128
aI288
aI384
asVprob
p1621
I97
sstp1622
a(I2
V2017:08:04 13:53:30
p1623
(dp1624
V1
p1625
(dp1626
Vcoords
p1627
(lp1628
I336
aI224
aI384
aI320
asVprob
p1629
I89
ssV2
p1630
(dp1631
Vcoords
p1632
(lp1633
I320
aI224
aI352
aI320
asVprob
p1634
I80
sstp1635
a(I1
V2017:08:04 13:54:08
p1636
(dp1637
V1
p1638
(dp1639
Vcoords
p1640
(lp1641
I112
aI192
aI176
aI352
asVprob
p1642
I94
sstp1643
a(I1
V2017:08:04 13:54:42
p1644
(dp1645
V2
p1646
(dp1647
Vcoords
p1648
(lp1649
I288
aI208
aI336
aI320
asVprob
p1650
I92
sstp1651
a(I1
V2017:08:04 13:58:02
p1652
(dp1653
V1
p1654
(dp1655
Vcoords
p1656
(lp1657
I192
aI160
aI256
aI368
asVprob
p1658
I98
sstp1659
a(I1
V2017:08:04 14:00:18
p1660
(dp1661
V1
p1662
(dp1663
Vcoords
p1664
(lp1665
I336
aI240
aI368
aI304
asVprob
p1666
I89
sstp1667
a(I1
V2017:08:04 14:05:26
p1668
(dp1669
V3
p1670
(dp1671
Vcoords
p1672
(lp1673
I80
aI256
aI112
aI336
asVprob
p1674
I80
sstp1675
a(I1
V2017:08:04 14:10:02
p1676
(dp1677
V1
p1678
(dp1679
Vcoords
p1680
(lp1681
I352
aI224
aI384
aI304
asVprob
p1682
I97
sstp1683
a(I1
V2017:08:04 14:12:34
p1684
(dp1685
V1
p1686
(dp1687
Vcoords
p1688
(lp1689
I304
aI224
aI336
aI304
asVprob
p1690
I97
sstp1691
a(I1
V2017:08:04 14:12:40
p1692
(dp1693
V1
p1694
(dp1695
Vcoords
p1696
(lp1697
I32
aI128
aI128
aI400
asVprob
p1698
I97
sstp1699
a(I1
V2017:08:04 14:15:03
p1700
(dp1701
V1
p1702
(dp1703
Vcoords
p1704
(lp1705
I352
aI224
aI384
aI288
asVprob
p1706
I90
sstp1707
a(I1
V2017:08:04 14:16:06
p1708
(dp1709
V1
p1710
(dp1711
Vcoords
p1712
(lp1713
I16
aI240
aI48
aI320
asVprob
p1714
I88
sstp1715
a(I2
V2017:08:04 14:19:32
p1716
(dp1717
V3
p1718
(dp1719
Vcoords
p1720
(lp1721
I48
aI224
aI96
aI336
asVprob
p1722
I87
ssV2
p1723
(dp1724
Vcoords
p1725
(lp1726
I64
aI224
aI112
aI336
asVprob
p1727
I87
sstp1728
a(I2
V2017:08:04 14:27:12
p1729
(dp1730
V1
p1731
(dp1732
Vcoords
p1733
(lp1734
I304
aI240
aI336
aI304
asVprob
p1735
I96
ssV2
p1736
(dp1737
Vcoords
p1738
(lp1739
I16
aI224
aI48
aI320
asVprob
p1740
I80
sstp1741
a(I2
V2017:08:04 14:27:52
p1742
(dp1743
V1
p1744
(dp1745
Vcoords
p1746
(lp1747
I64
aI240
aI112
aI352
asVprob
p1748
I87
ssV2
p1749
(dp1750
Vcoords
p1751
(lp1752
I80
aI240
aI128
aI352
asVprob
p1753
I83
sstp1754
a(I1
V2017:08:04 14:29:06
p1755
(dp1756
V1
p1757
(dp1758
Vcoords
p1759
(lp1760
I64
aI240
aI112
aI352
asVprob
p1761
I93
sstp1762
a(I3
V2017:08:04 14:29:52
p1763
(dp1764
V1
p1765
(dp1766
Vcoords
p1767
(lp1768
I752
aI256
aI784
aI352
asVprob
p1769
I97
ssV3
p1770
(dp1771
Vcoords
p1772
(lp1773
I320
aI272
aI352
aI336
asVprob
p1774
I91
ssV2
p1775
(dp1776
Vcoords
p1777
(lp1778
I80
aI272
aI112
aI352
asVprob
p1779
I93
sstp1780
a(I1
V2017:08:04 14:30:38
p1781
(dp1782
V1
p1783
(dp1784
Vcoords
p1785
(lp1786
I48
aI272
aI80
aI352
asVprob
p1787
I81
sstp1788
a(I1
V2017:08:04 14:31:44
p1789
(dp1790
V1
p1791
(dp1792
Vcoords
p1793
(lp1794
I32
aI144
aI208
aI528
asVprob
p1795
I98
sstp1796
a(I1
V2017:08:04 14:33:34
p1797
(dp1798
V1
p1799
(dp1800
Vcoords
p1801
(lp1802
I48
aI256
aI80
aI336
asVprob
p1803
I87
sstp1804
a(I1
V2017:08:04 14:33:46
p1805
(dp1806
V1
p1807
(dp1808
Vcoords
p1809
(lp1810
I32
aI240
aI80
aI320
asVprob
p1811
I81
sstp1812
a(I1
V2017:08:04 14:34:08
p1813
(dp1814
V1
p1815
(dp1816
Vcoords
p1817
(lp1818
I64
aI240
aI112
aI320
asVprob
p1819
I80
sstp1820
a(I1
V2017:08:04 14:34:28
p1821
(dp1822
V1
p1823
(dp1824
Vcoords
p1825
(lp1826
I48
aI240
aI96
aI320
asVprob
p1827
I85
sstp1828
a(I4
V2017:08:04 14:36:02
p1829
(dp1830
V1
p1831
(dp1832
Vcoords
p1833
(lp1834
I384
aI224
aI432
aI336
asVprob
p1835
I94
ssV3
p1836
(dp1837
Vcoords
p1838
(lp1839
I336
aI224
aI400
aI352
asVprob
p1840
I91
ssV5
p1841
(dp1842
Vcoords
p1843
(lp1844
I288
aI224
aI320
aI304
asVprob
p1845
I81
ssV4
p1846
(dp1847
Vcoords
p1848
(lp1849
I272
aI224
aI304
aI304
asVprob
p1850
I90
sstp1851
a(I1
V2017:08:04 14:36:18
p1852
(dp1853
V1
p1854
(dp1855
Vcoords
p1856
(lp1857
I64
aI240
aI96
aI320
asVprob
p1858
I89
sstp1859
a(I1
V2017:08:04 14:37:04
p1860
(dp1861
V1
p1862
(dp1863
Vcoords
p1864
(lp1865
I64
aI240
aI96
aI304
asVprob
p1866
I82
sstp1867
a(I1
V2017:08:04 14:37:46
p1868
(dp1869
V2
p1870
(dp1871
Vcoords
p1872
(lp1873
I272
aI240
aI304
aI304
asVprob
p1874
I81
sstp1875
a(I1
V2017:08:04 14:37:52
p1876
(dp1877
V1
p1878
(dp1879
Vcoords
p1880
(lp1881
I272
aI224
aI304
aI320
asVprob
p1882
I87
sstp1883
a(I1
V2017:08:04 14:38:00
p1884
(dp1885
V1
p1886
(dp1887
Vcoords
p1888
(lp1889
I208
aI192
aI272
aI336
asVprob
p1890
I93
sstp1891
a(I1
V2017:08:04 14:38:26
p1892
(dp1893
V1
p1894
(dp1895
Vcoords
p1896
(lp1897
I64
aI224
aI96
aI320
asVprob
p1898
I87
sstp1899
a(I1
V2017:08:04 14:38:34
p1900
(dp1901
V1
p1902
(dp1903
Vcoords
p1904
(lp1905
I32
aI208
aI96
aI304
asVprob
p1906
I82
sstp1907
a(I1
V2017:08:04 14:38:50
p1908
(dp1909
V1
p1910
(dp1911
Vcoords
p1912
(lp1913
I80
aI224
aI112
aI320
asVprob
p1914
I83
sstp1915
a(I1
V2017:08:04 14:38:56
p1916
(dp1917
V1
p1918
(dp1919
Vcoords
p1920
(lp1921
I64
aI208
aI112
aI304
asVprob
p1922
I89
sstp1923
a(I1
V2017:08:04 14:39:20
p1924
(dp1925
V1
p1926
(dp1927
Vcoords
p1928
(lp1929
I80
aI224
aI128
aI304
asVprob
p1930
I86
sstp1931
a(I1
V2017:08:04 14:39:32
p1932
(dp1933
V1
p1934
(dp1935
Vcoords
p1936
(lp1937
I0
aI0
aI112
aI448
asVprob
p1938
I86
sstp1939
a(I1
V2017:08:04 14:40:30
p1940
(dp1941
V1
p1942
(dp1943
Vcoords
p1944
(lp1945
I128
aI160
aI224
aI400
asVprob
p1946
I98
sstp1947
a(I2
V2017:08:04 14:41:46
p1948
(dp1949
V1
p1950
(dp1951
Vcoords
p1952
(lp1953
I240
aI112
aI352
aI416
asVprob
p1954
I98
ssV2
p1955
(dp1956
Vcoords
p1957
(lp1958
I160
aI160
aI240
aI416
asVprob
p1959
I97
sstp1960
a(I1
V2017:08:04 14:42:06
p1961
(dp1962
V1
p1963
(dp1964
Vcoords
p1965
(lp1966
I96
aI96
aI192
aI320
asVprob
p1967
I86
sstp1968
a(I1
V2017:08:04 14:43:22
p1969
(dp1970
V3
p1971
(dp1972
Vcoords
p1973
(lp1974
I336
aI224
aI368
aI304
asVprob
p1975
I81
sstp1976
a(I1
V2017:08:04 14:43:46
p1977
(dp1978
V1
p1979
(dp1980
Vcoords
p1981
(lp1982
I272
aI208
aI320
aI336
asVprob
p1983
I83
sstp1984
a(I1
V2017:08:04 14:43:58
p1985
(dp1986
V1
p1987
(dp1988
Vcoords
p1989
(lp1990
I288
aI208
aI352
aI352
asVprob
p1991
I98
sstp1992
a(I1
V2017:08:04 14:44:26
p1993
(dp1994
V1
p1995
(dp1996
Vcoords
p1997
(lp1998
I80
aI224
aI128
aI320
asVprob
p1999
I80
sstp2000
a(I2
V2017:08:04 14:44:42
p2001
(dp2002
V1
p2003
(dp2004
Vcoords
p2005
(lp2006
I672
aI240
aI704
aI336
asVprob
p2007
I91
ssV2
p2008
(dp2009
Vcoords
p2010
(lp2011
I560
aI224
aI592
aI320
asVprob
p2012
I84
sstp2013
a(I1
V2017:08:04 14:45:06
p2014
(dp2015
V2
p2016
(dp2017
Vcoords
p2018
(lp2019
I64
aI208
aI96
aI288
asVprob
p2020
I91
sstp2021
a(I2
V2017:08:04 14:45:16
p2022
(dp2023
V1
p2024
(dp2025
Vcoords
p2026
(lp2027
I336
aI224
aI368
aI320
asVprob
p2028
I91
ssV2
p2029
(dp2030
Vcoords
p2031
(lp2032
I48
aI224
aI96
aI304
asVprob
p2033
I84
sstp2034
a(I1
V2017:08:04 14:45:38
p2035
(dp2036
V2
p2037
(dp2038
Vcoords
p2039
(lp2040
I336
aI224
aI368
aI320
asVprob
p2041
I89
sstp2042
a(I1
V2017:08:04 14:46:10
p2043
(dp2044
V1
p2045
(dp2046
Vcoords
p2047
(lp2048
I32
aI224
aI80
aI368
asVprob
p2049
I95
sstp2050
a(I1
V2017:08:04 14:46:42
p2051
(dp2052
V1
p2053
(dp2054
Vcoords
p2055
(lp2056
I304
aI208
aI368
aI336
asVprob
p2057
I91
sstp2058
a(I2
V2017:08:04 14:47:12
p2059
(dp2060
V1
p2061
(dp2062
Vcoords
p2063
(lp2064
I128
aI112
aI240
aI416
asVprob
p2065
I97
ssV2
p2066
(dp2067
Vcoords
p2068
(lp2069
I272
aI144
aI352
aI368
asVprob
p2070
I97
sstp2071
a(I1
V2017:08:04 14:49:26
p2072
(dp2073
V2
p2074
(dp2075
Vcoords
p2076
(lp2077
I272
aI224
aI304
aI288
asVprob
p2078
I80
sstp2079
a(I1
V2017:08:04 14:49:44
p2080
(dp2081
V1
p2082
(dp2083
Vcoords
p2084
(lp2085
I288
aI224
aI320
aI304
asVprob
p2086
I86
sstp2087
a(I1
V2017:08:04 14:49:48
p2088
(dp2089
V1
p2090
(dp2091
Vcoords
p2092
(lp2093
I64
aI160
aI144
aI384
asVprob
p2094
I94
sstp2095
a(I1
V2017:08:04 14:50:10
p2096
(dp2097
V1
p2098
(dp2099
Vcoords
p2100
(lp2101
I432
aI144
aI528
aI432
asVprob
p2102
I97
sstp2103
a(I3
V2017:08:04 14:50:52
p2104
(dp2105
V1
p2106
(dp2107
Vcoords
p2108
(lp2109
I208
aI128
aI304
aI448
asVprob
p2110
I99
ssV3
p2111
(dp2112
Vcoords
p2113
(lp2114
I80
aI128
aI160
aI448
asVprob
p2115
I92
ssV2
p2116
(dp2117
Vcoords
p2118
(lp2119
I32
aI128
aI128
aI400
asVprob
p2120
I97
sstp2121
a(I3
V2017:08:04 14:51:38
p2122
(dp2123
V1
p2124
(dp2125
Vcoords
p2126
(lp2127
I352
aI224
aI384
aI320
asVprob
p2128
I93
ssV3
p2129
(dp2130
Vcoords
p2131
(lp2132
I96
aI224
aI160
aI368
asVprob
p2133
I81
ssV2
p2134
(dp2135
Vcoords
p2136
(lp2137
I272
aI192
aI336
aI320
asVprob
p2138
I93
sstp2139
a(I1
V2017:08:04 14:52:40
p2140
(dp2141
V1
p2142
(dp2143
Vcoords
p2144
(lp2145
I288
aI208
aI336
aI336
asVprob
p2146
I98
sstp2147
a(I3
V2017:08:04 14:54:06
p2148
(dp2149
V1
p2150
(dp2151
Vcoords
p2152
(lp2153
I80
aI176
aI160
aI384
asVprob
p2154
I95
ssV3
p2155
(dp2156
Vcoords
p2157
(lp2158
I288
aI240
aI320
aI304
asVprob
p2159
I88
ssV2
p2160
(dp2161
Vcoords
p2162
(lp2163
I304
aI240
aI336
aI304
asVprob
p2164
I91
sstp2165
a(I1
V2017:08:04 14:54:10
p2166
(dp2167
V1
p2168
(dp2169
Vcoords
p2170
(lp2171
I272
aI240
aI320
aI320
asVprob
p2172
I95
sstp2173
a(I2
V2017:08:04 14:55:18
p2174
(dp2175
V1
p2176
(dp2177
Vcoords
p2178
(lp2179
I320
aI240
aI352
aI304
asVprob
p2180
I89
ssV2
p2181
(dp2182
Vcoords
p2183
(lp2184
I80
aI192
aI144
aI336
asVprob
p2185
I89
sstp2186
a(I1
V2017:08:04 14:55:42
p2187
(dp2188
V2
p2189
(dp2190
Vcoords
p2191
(lp2192
I16
aI208
aI96
aI352
asVprob
p2193
I84
sstp2194
a(I4
V2017:08:04 14:56:40
p2195
(dp2196
V1
p2197
(dp2198
Vcoords
p2199
(lp2200
I176
aI176
aI240
aI352
asVprob
p2201
I97
ssV3
p2202
(dp2203
Vcoords
p2204
(lp2205
I64
aI224
aI112
aI320
asVprob
p2206
I85
ssV2
p2207
(dp2208
Vcoords
p2209
(lp2210
I80
aI224
aI128
aI336
asVprob
p2211
I86
ssV4
p2212
(dp2213
Vcoords
p2214
(lp2215
I32
aI192
aI80
aI304
asVprob
p2216
I84
sstp2217
a(I3
V2017:08:04 14:57:26
p2218
(dp2219
V1
p2220
(dp2221
Vcoords
p2222
(lp2223
I96
aI144
aI176
aI368
asVprob
p2224
I97
ssV3
p2225
(dp2226
Vcoords
p2227
(lp2228
I352
aI224
aI384
aI288
asVprob
p2229
I94
ssV4
p2230
(dp2231
Vcoords
p2232
(lp2233
I304
aI224
aI336
aI304
asVprob
p2234
I90
sstp2235
a(I3
V2017:08:04 14:57:48
p2236
(dp2237
V1
p2238
(dp2239
Vcoords
p2240
(lp2241
I16
aI144
aI96
aI384
asVprob
p2242
I99
ssV3
p2243
(dp2244
Vcoords
p2245
(lp2246
I240
aI160
aI336
aI416
asVprob
p2247
I98
ssV2
p2248
(dp2249
Vcoords
p2250
(lp2251
I112
aI128
aI208
aI400
asVprob
p2252
I98
sstp2253
a(I1
V2017:08:04 14:58:10
p2254
(dp2255
V1
p2256
(dp2257
Vcoords
p2258
(lp2259
I64
aI208
aI112
aI336
asVprob
p2260
I93
sstp2261
a(I2
V2017:08:04 14:58:20
p2262
(dp2263
V1
p2264
(dp2265
Vcoords
p2266
(lp2267
I208
aI112
aI320
aI464
asVprob
p2268
I99
ssV2
p2269
(dp2270
Vcoords
p2271
(lp2272
I48
aI224
aI96
aI320
asVprob
p2273
I90
sstp2274
a(I3
V2017:08:04 14:58:56
p2275
(dp2276
V1
p2277
(dp2278
Vcoords
p2279
(lp2280
I80
aI208
aI128
aI320
asVprob
p2281
I93
ssV3
p2282
(dp2283
Vcoords
p2284
(lp2285
I16
aI240
aI48
aI304
asVprob
p2286
I81
ssV2
p2287
(dp2288
Vcoords
p2289
(lp2290
I336
aI224
aI368
aI304
asVprob
p2291
I81
sstp2292
a(I1
V2017:08:04 14:59:06
p2293
(dp2294
V1
p2295
(dp2296
Vcoords
p2297
(lp2298
I80
aI208
aI128
aI320
asVprob
p2299
I95
sstp2300
a(I2
V2017:08:04 14:59:12
p2301
(dp2302
V1
p2303
(dp2304
Vcoords
p2305
(lp2306
I80
aI208
aI128
aI336
asVprob
p2307
I94
ssV2
p2308
(dp2309
Vcoords
p2310
(lp2311
I32
aI240
aI64
aI304
asVprob
p2312
I81
sstp2313
a(I2
V2017:08:04 14:59:28
p2314
(dp2315
V1
p2316
(dp2317
Vcoords
p2318
(lp2319
I80
aI208
aI128
aI336
asVprob
p2320
I92
ssV2
p2321
(dp2322
Vcoords
p2323
(lp2324
I16
aI240
aI48
aI304
asVprob
p2325
I80
sstp2326
a(I1
V2017:08:04 14:59:34
p2327
(dp2328
V2
p2329
(dp2330
Vcoords
p2331
(lp2332
I16
aI240
aI48
aI304
asVprob
p2333
I90
sstp2334
a(I1
V2017:08:04 14:59:38
p2335
(dp2336
V1
p2337
(dp2338
Vcoords
p2339
(lp2340
I288
aI224
aI320
aI288
asVprob
p2341
I92
sstp2342
a(I1
V2017:08:04 15:02:02
p2343
(dp2344
V1
p2345
(dp2346
Vcoords
p2347
(lp2348
I32
aI112
aI176
aI432
asVprob
p2349
I98
sstp2350
a(I1
V2017:08:04 15:02:06
p2351
(dp2352
V1
p2353
(dp2354
Vcoords
p2355
(lp2356
I288
aI224
aI320
aI304
asVprob
p2357
I86
sstp2358
a(I1
V2017:08:04 15:02:18
p2359
(dp2360
V1
p2361
(dp2362
Vcoords
p2363
(lp2364
I224
aI80
aI336
aI416
asVprob
p2365
I96
sstp2366
a(I1
V2017:08:04 15:04:20
p2367
(dp2368
V1
p2369
(dp2370
Vcoords
p2371
(lp2372
I80
aI-16
aI272
aI528
asVprob
p2373
I97
sstp2374
a(I1
V2017:08:04 15:04:26
p2375
(dp2376
V1
p2377
(dp2378
Vcoords
p2379
(lp2380
I352
aI240
aI384
aI304
asVprob
p2381
I91
sstp2382
a(I1
V2017:08:04 15:05:16
p2383
(dp2384
V2
p2385
(dp2386
Vcoords
p2387
(lp2388
I288
aI208
aI336
aI304
asVprob
p2389
I80
sstp2390
a(I1
V2017:08:04 15:06:08
p2391
(dp2392
V1
p2393
(dp2394
Vcoords
p2395
(lp2396
I336
aI208
aI384
aI320
asVprob
p2397
I97
sstp2398
a(I2
V2017:08:04 15:07:32
p2399
(dp2400
V1
p2401
(dp2402
Vcoords
p2403
(lp2404
I320
aI240
aI352
aI320
asVprob
p2405
I86
ssV2
p2406
(dp2407
Vcoords
p2408
(lp2409
I336
aI240
aI368
aI304
asVprob
p2410
I84
sstp2411
a(I1
V2017:08:04 15:10:48
p2412
(dp2413
V1
p2414
(dp2415
Vcoords
p2416
(lp2417
I288
aI192
aI352
aI352
asVprob
p2418
I97
sstp2419
a(I1
V2017:08:04 15:12:32
p2420
(dp2421
V1
p2422
(dp2423
Vcoords
p2424
(lp2425
I96
aI112
aI192
aI432
asVprob
p2426
I98
sstp2427
a(I10
V2017:08:04 15:23:16
p2428
(dp2429
V10
p2430
(dp2431
Vcoords
p2432
(lp2433
I528
aI224
aI560
aI320
asVprob
p2434
I82
ssV1
p2435
(dp2436
Vcoords
p2437
(lp2438
I48
aI112
aI144
aI416
asVprob
p2439
I97
ssV3
p2440
(dp2441
Vcoords
p2442
(lp2443
I304
aI192
aI352
aI336
asVprob
p2444
I94
ssV2
p2445
(dp2446
Vcoords
p2447
(lp2448
I224
aI192
aI288
aI352
asVprob
p2449
I96
ssV5
p2450
(dp2451
Vcoords
p2452
(lp2453
I352
aI208
aI400
aI320
asVprob
p2454
I88
ssV4
p2455
(dp2456
Vcoords
p2457
(lp2458
I480
aI240
aI512
aI320
asVprob
p2459
I88
ssV7
p2460
(dp2461
Vcoords
p2462
(lp2463
I416
aI224
aI448
aI320
asVprob
p2464
I85
ssV6
p2465
(dp2466
Vcoords
p2467
(lp2468
I368
aI208
aI416
aI336
asVprob
p2469
I85
ssV9
p2470
(dp2471
Vcoords
p2472
(lp2473
I560
aI208
aI624
aI368
asVprob
p2474
I83
ssV8
p2475
(dp2476
Vcoords
p2477
(lp2478
I512
aI240
aI560
aI336
asVprob
p2479
I84
sstp2480
a(I8
V2017:08:04 15:29:54
p2481
(dp2482
V1
p2483
(dp2484
Vcoords
p2485
(lp2486
I160
aI128
aI256
aI432
asVprob
p2487
I98
ssV3
p2488
(dp2489
Vcoords
p2490
(lp2491
I384
aI224
aI416
aI336
asVprob
p2492
I94
ssV2
p2493
(dp2494
Vcoords
p2495
(lp2496
I48
aI176
aI144
aI464
asVprob
p2497
I97
ssV5
p2498
(dp2499
Vcoords
p2500
(lp2501
I640
aI208
aI688
aI352
asVprob
p2502
I93
ssV4
p2503
(dp2504
Vcoords
p2505
(lp2506
I656
aI208
aI704
aI368
asVprob
p2507
I94
ssV7
p2508
(dp2509
Vcoords
p2510
(lp2511
I512
aI224
aI544
aI320
asVprob
p2512
I90
ssV6
p2513
(dp2514
Vcoords
p2515
(lp2516
I256
aI160
aI304
aI320
asVprob
p2517
I90
ssV8
p2518
(dp2519
Vcoords
p2520
(lp2521
I320
aI224
aI352
aI320
asVprob
p2522
I86
sstp2523
a(I1
V2017:08:04 15:36:04
p2524
(dp2525
V3
p2526
(dp2527
Vcoords
p2528
(lp2529
I80
aI224
aI112
aI336
asVprob
p2530
I82
sstp2531
a(I3
V2017:08:04 15:37:26
p2532
(dp2533
V1
p2534
(dp2535
Vcoords
p2536
(lp2537
I672
aI240
aI704
aI320
asVprob
p2538
I92
ssV3
p2539
(dp2540
Vcoords
p2541
(lp2542
I720
aI256
aI752
aI320
asVprob
p2543
I81
ssV2
p2544
(dp2545
Vcoords
p2546
(lp2547
I624
aI240
aI656
aI304
asVprob
p2548
I87
sstp2549
a(I2
V2017:08:04 15:38:14
p2550
(dp2551
V1
p2552
(dp2553
Vcoords
p2554
(lp2555
I672
aI240
aI704
aI304
asVprob
p2556
I88
ssV2
p2557
(dp2558
Vcoords
p2559
(lp2560
I688
aI240
aI720
aI320
asVprob
p2561
I83
sstp2562
a(I1
V2017:08:04 15:38:28
p2563
(dp2564
V1
p2565
(dp2566
Vcoords
p2567
(lp2568
I48
aI240
aI80
aI304
asVprob
p2569
I90
sstp2570
a(I1
V2017:08:04 15:38:50
p2571
(dp2572
V1
p2573
(dp2574
Vcoords
p2575
(lp2576
I640
aI240
aI672
aI320
asVprob
p2577
I83
sstp2578
a(I1
V2017:08:04 15:38:54
p2579
(dp2580
V2
p2581
(dp2582
Vcoords
p2583
(lp2584
I576
aI240
aI608
aI304
asVprob
p2585
I85
sstp2586
a(I1
V2017:08:04 15:39:54
p2587
(dp2588
V1
p2589
(dp2590
Vcoords
p2591
(lp2592
I144
aI192
aI224
aI352
asVprob
p2593
I92
sstp2594
a(I1
V2017:08:04 15:40:34
p2595
(dp2596
V1
p2597
(dp2598
Vcoords
p2599
(lp2600
I496
aI240
aI528
aI304
asVprob
p2601
I93
sstp2602
a(I1
V2017:08:04 15:40:38
p2603
(dp2604
V1
p2605
(dp2606
Vcoords
p2607
(lp2608
I704
aI224
aI752
aI352
asVprob
p2609
I95
sstp2610
a(I1
V2017:08:04 15:40:48
p2611
(dp2612
V1
p2613
(dp2614
Vcoords
p2615
(lp2616
I272
aI224
aI304
aI304
asVprob
p2617
I92
sstp2618
a(I2
V2017:08:04 15:41:10
p2619
(dp2620
V1
p2621
(dp2622
Vcoords
p2623
(lp2624
I16
aI240
aI48
aI304
asVprob
p2625
I88
ssV2
p2626
(dp2627
Vcoords
p2628
(lp2629
I288
aI240
aI320
aI304
asVprob
p2630
I86
sstp2631
a(I1
V2017:08:04 15:41:14
p2632
(dp2633
V1
p2634
(dp2635
Vcoords
p2636
(lp2637
I16
aI240
aI48
aI304
asVprob
p2638
I80
sstp2639
a(I1
V2017:08:04 15:41:40
p2640
(dp2641
V1
p2642
(dp2643
Vcoords
p2644
(lp2645
I16
aI240
aI48
aI304
asVprob
p2646
I84
sstp2647
a(I2
V2017:08:04 15:41:50
p2648
(dp2649
V1
p2650
(dp2651
Vcoords
p2652
(lp2653
I224
aI160
aI320
aI384
asVprob
p2654
I97
ssV2
p2655
(dp2656
Vcoords
p2657
(lp2658
I112
aI144
aI208
aI400
asVprob
p2659
I97
sstp2660
a(I1
V2017:08:04 15:41:54
p2661
(dp2662
V1
p2663
(dp2664
Vcoords
p2665
(lp2666
I336
aI224
aI368
aI288
asVprob
p2667
I86
sstp2668
a(I1
V2017:08:04 15:43:10
p2669
(dp2670
V1
p2671
(dp2672
Vcoords
p2673
(lp2674
I16
aI240
aI48
aI304
asVprob
p2675
I81
sstp2676
a(I1
V2017:08:04 15:43:16
p2677
(dp2678
V1
p2679
(dp2680
Vcoords
p2681
(lp2682
I16
aI240
aI48
aI304
asVprob
p2683
I90
sstp2684
a(I1
V2017:08:04 15:43:24
p2685
(dp2686
V1
p2687
(dp2688
Vcoords
p2689
(lp2690
I16
aI240
aI48
aI304
asVprob
p2691
I92
sstp2692
a(I1
V2017:08:04 15:43:34
p2693
(dp2694
V1
p2695
(dp2696
Vcoords
p2697
(lp2698
I272
aI224
aI304
aI304
asVprob
p2699
I91
sstp2700
a(I1
V2017:08:04 15:43:40
p2701
(dp2702
V1
p2703
(dp2704
Vcoords
p2705
(lp2706
I16
aI240
aI48
aI304
asVprob
p2707
I89
sstp2708
a(I1
V2017:08:04 15:43:58
p2709
(dp2710
V1
p2711
(dp2712
Vcoords
p2713
(lp2714
I16
aI240
aI48
aI304
asVprob
p2715
I93
sstp2716
a(I1
V2017:08:04 15:44:28
p2717
(dp2718
V1
p2719
(dp2720
Vcoords
p2721
(lp2722
I16
aI240
aI48
aI304
asVprob
p2723
I86
sstp2724
a(I3
V2017:08:04 15:45:02
p2725
(dp2726
V1
p2727
(dp2728
Vcoords
p2729
(lp2730
I288
aI80
aI400
aI464
asVprob
p2731
I99
ssV3
p2732
(dp2733
Vcoords
p2734
(lp2735
I224
aI144
aI304
aI384
asVprob
p2736
I90
ssV2
p2737
(dp2738
Vcoords
p2739
(lp2740
I128
aI144
aI192
aI400
asVprob
p2741
I92
sstp2742
a(I2
V2017:08:04 15:46:12
p2743
(dp2744
V1
p2745
(dp2746
Vcoords
p2747
(lp2748
I352
aI240
aI384
aI304
asVprob
p2749
I89
ssV2
p2750
(dp2751
Vcoords
p2752
(lp2753
I320
aI224
aI352
aI304
asVprob
p2754
I84
sstp2755
a(I2
V2017:08:04 16:46:31
p2756
(dp2757
V1
p2758
(dp2759
Vcoords
p2760
(lp2761
I448
aI192
aI496
aI352
asVprob
p2762
I95
ssV2
p2763
(dp2764
Vcoords
p2765
(lp2766
I384
aI208
aI432
aI336
asVprob
p2767
I87
sstp2768
a(I1
V2017:08:04 16:47:07
p2769
(dp2770
V1
p2771
(dp2772
Vcoords
p2773
(lp2774
I0
aI0
aI128
aI640
asVprob
p2775
I89
sstp2776
a(I2
V2017:08:04 16:48:37
p2777
(dp2778
V1
p2779
(dp2780
Vcoords
p2781
(lp2782
I288
aI192
aI368
aI352
asVprob
p2783
I97
ssV2
p2784
(dp2785
Vcoords
p2786
(lp2787
I208
aI176
aI272
aI368
asVprob
p2788
I97
sstp2789
a(I2
V2017:08:04 16:51:51
p2790
(dp2791
V1
p2792
(dp2793
Vcoords
p2794
(lp2795
I288
aI224
aI320
aI304
asVprob
p2796
I90
ssV2
p2797
(dp2798
Vcoords
p2799
(lp2800
I336
aI224
aI368
aI320
asVprob
p2801
I87
sstp2802
a(I2
V2017:08:04 16:52:28
p2803
(dp2804
V1
p2805
(dp2806
Vcoords
p2807
(lp2808
I352
aI240
aI384
aI320
asVprob
p2809
I93
ssV2
p2810
(dp2811
Vcoords
p2812
(lp2813
I48
aI160
aI112
aI400
asVprob
p2814
I93
sstp2815
a(I1
V2017:08:04 16:52:43
p2816
(dp2817
V1
p2818
(dp2819
Vcoords
p2820
(lp2821
I304
aI208
aI352
aI336
asVprob
p2822
I82
sstp2823
a(I1
V2017:08:04 16:53:03
p2824
(dp2825
V1
p2826
(dp2827
Vcoords
p2828
(lp2829
I272
aI240
aI304
aI320
asVprob
p2830
I91
sstp2831
a(I1
V2017:08:04 16:53:29
p2832
(dp2833
V1
p2834
(dp2835
Vcoords
p2836
(lp2837
I64
aI192
aI128
aI368
asVprob
p2838
I96
sstp2839
a(I1
V2017:08:04 16:54:03
p2840
(dp2841
V1
p2842
(dp2843
Vcoords
p2844
(lp2845
I336
aI224
aI368
aI288
asVprob
p2846
I90
sstp2847
a(I1
V2017:08:04 16:54:11
p2848
(dp2849
V1
p2850
(dp2851
Vcoords
p2852
(lp2853
I96
aI144
aI176
aI416
asVprob
p2854
I98
sstp2855
a(I1
V2017:08:04 16:54:29
p2856
(dp2857
V2
p2858
(dp2859
Vcoords
p2860
(lp2861
I352
aI240
aI384
aI304
asVprob
p2862
I86
sstp2863
a(I1
V2017:08:04 16:56:05
p2864
(dp2865
V1
p2866
(dp2867
Vcoords
p2868
(lp2869
I320
aI240
aI352
aI320
asVprob
p2870
I94
sstp2871
a(I2
V2017:08:04 17:03:35
p2872
(dp2873
V1
p2874
(dp2875
Vcoords
p2876
(lp2877
I208
aI64
aI352
aI464
asVprob
p2878
I97
ssV2
p2879
(dp2880
Vcoords
p2881
(lp2882
I32
aI0
aI256
aI608
asVprob
p2883
I95
sstp2884
a(I1
V2017:08:04 17:04:37
p2885
(dp2886
V2
p2887
(dp2888
Vcoords
p2889
(lp2890
I48
aI208
aI96
aI336
asVprob
p2891
I95
sstp2892
a(I2
V2017:08:04 17:04:55
p2893
(dp2894
V1
p2895
(dp2896
Vcoords
p2897
(lp2898
I32
aI160
aI128
aI432
asVprob
p2899
I98
ssV2
p2900
(dp2901
Vcoords
p2902
(lp2903
I304
aI208
aI352
aI352
asVprob
p2904
I96
sstp2905
a(I1
V2017:08:04 17:05:21
p2906
(dp2907
V1
p2908
(dp2909
Vcoords
p2910
(lp2911
I64
aI224
aI112
aI336
asVprob
p2912
I95
sstp2913
a(I2
V2017:08:04 17:05:29
p2914
(dp2915
V1
p2916
(dp2917
Vcoords
p2918
(lp2919
I320
aI240
aI352
aI304
asVprob
p2920
I92
ssV2
p2921
(dp2922
Vcoords
p2923
(lp2924
I304
aI240
aI336
aI304
asVprob
p2925
I84
sstp2926
a(I1
V2017:08:04 17:07:47
p2927
(dp2928
V1
p2929
(dp2930
Vcoords
p2931
(lp2932
I16
aI144
aI112
aI400
asVprob
p2933
I94
sstp2934
a(I2
V2017:08:04 17:20:43
p2935
(dp2936
V1
p2937
(dp2938
Vcoords
p2939
(lp2940
I352
aI128
aI480
aI416
asVprob
p2941
I98
ssV3
p2942
(dp2943
Vcoords
p2944
(lp2945
I48
aI240
aI80
aI304
asVprob
p2946
I82
sstp2947
a(I1
V2017:08:04 17:21:59
p2948
(dp2949
V1
p2950
(dp2951
Vcoords
p2952
(lp2953
I336
aI224
aI368
aI320
asVprob
p2954
I93
sstp2955
a(I2
V2017:08:04 17:26:01
p2956
(dp2957
V1
p2958
(dp2959
Vcoords
p2960
(lp2961
I208
aI208
aI272
aI352
asVprob
p2962
I96
ssV2
p2963
(dp2964
Vcoords
p2965
(lp2966
I336
aI240
aI368
aI352
asVprob
p2967
I86
sstp2968
a(I1
V2017:08:04 17:33:35
p2969
(dp2970
V1
p2971
(dp2972
Vcoords
p2973
(lp2974
I80
aI272
aI112
aI336
asVprob
p2975
I92
sstp2976
a(I1
V2017:08:04 17:35:41
p2977
(dp2978
V1
p2979
(dp2980
Vcoords
p2981
(lp2982
I80
aI272
aI112
aI336
asVprob
p2983
I88
sstp2984
a(I1
V2017:08:04 17:38:19
p2985
(dp2986
V1
p2987
(dp2988
Vcoords
p2989
(lp2990
I336
aI240
aI384
aI352
asVprob
p2991
I92
sstp2992
a(I1
V2017:08:04 17:41:11
p2993
(dp2994
V1
p2995
(dp2996
Vcoords
p2997
(lp2998
I96
aI304
aI128
aI368
asVprob
p2999
I84
sstp3000
a(I1
V2017:08:04 17:41:53
p3001
(dp3002
V1
p3003
(dp3004
Vcoords
p3005
(lp3006
I288
aI256
aI320
aI336
asVprob
p3007
I93
sstp3008
a(I1
V2017:08:04 17:42:03
p3009
(dp3010
V1
p3011
(dp3012
Vcoords
p3013
(lp3014
I96
aI304
aI128
aI368
asVprob
p3015
I81
sstp3016
a(I1
V2017:08:04 17:42:37
p3017
(dp3018
V1
p3019
(dp3020
Vcoords
p3021
(lp3022
I96
aI304
aI128
aI368
asVprob
p3023
I87
sstp3024
a(I1
V2017:08:04 17:43:21
p3025
(dp3026
V1
p3027
(dp3028
Vcoords
p3029
(lp3030
I96
aI304
aI128
aI368
asVprob
p3031
I87
sstp3032
a(I1
V2017:08:04 17:45:17
p3033
(dp3034
V1
p3035
(dp3036
Vcoords
p3037
(lp3038
I96
aI304
aI128
aI368
asVprob
p3039
I81
sstp3040
a(I2
V2017:08:04 18:15:07
p3041
(dp3042
V1
p3043
(dp3044
Vcoords
p3045
(lp3046
I160
aI208
aI224
aI384
asVprob
p3047
I96
ssV2
p3048
(dp3049
Vcoords
p3050
(lp3051
I272
aI208
aI336
aI368
asVprob
p3052
I93
sstp3053
a(I1
V2017:08:04 18:16:11
p3054
(dp3055
V1
p3056
(dp3057
Vcoords
p3058
(lp3059
I32
aI256
aI64
aI320
asVprob
p3060
I86
sstp3061
a(I1
V2017:08:04 18:22:27
p3062
(dp3063
V1
p3064
(dp3065
Vcoords
p3066
(lp3067
I112
aI48
aI256
aI512
asVprob
p3068
I93
sstp3069
a(I1
V2017:08:04 18:23:07
p3070
(dp3071
V1
p3072
(dp3073
Vcoords
p3074
(lp3075
I96
aI304
aI128
aI368
asVprob
p3076
I83
sstp3077
a(I1
V2017:08:04 18:27:53
p3078
(dp3079
V1
p3080
(dp3081
Vcoords
p3082
(lp3083
I144
aI192
aI240
aI416
asVprob
p3084
I98
sstp3085
a(I2
V2017:08:04 18:28:45
p3086
(dp3087
V1
p3088
(dp3089
Vcoords
p3090
(lp3091
I320
aI272
aI352
aI336
asVprob
p3092
I81
ssV2
p3093
(dp3094
Vcoords
p3095
(lp3096
I336
aI272
aI368
aI336
asVprob
p3097
I80
sstp3098
a(I2
V2017:08:04 18:29:29
p3099
(dp3100
V1
p3101
(dp3102
Vcoords
p3103
(lp3104
I320
aI272
aI368
aI352
asVprob
p3105
I94
ssV3
p3106
(dp3107
Vcoords
p3108
(lp3109
I512
aI288
aI544
aI368
asVprob
p3110
I81
sstp3111
a(I1
V2017:08:04 18:30:15
p3112
(dp3113
V1
p3114
(dp3115
Vcoords
p3116
(lp3117
I336
aI256
aI384
aI352
asVprob
p3118
I95
sstp3119
a(I1
V2017:08:04 18:32:29
p3120
(dp3121
V1
p3122
(dp3123
Vcoords
p3124
(lp3125
I112
aI304
aI144
aI368
asVprob
p3126
I80
sstp3127
a(I1
V2017:08:04 18:33:17
p3128
(dp3129
V1
p3130
(dp3131
Vcoords
p3132
(lp3133
I112
aI320
aI144
aI384
asVprob
p3134
I80
sstp3135
a(I2
V2017:08:04 18:34:39
p3136
(dp3137
V1
p3138
(dp3139
Vcoords
p3140
(lp3141
I112
aI320
aI144
aI384
asVprob
p3142
I86
ssV2
p3143
(dp3144
Vcoords
p3145
(lp3146
I96
aI304
aI128
aI368
asVprob
p3147
I82
sstp3148
a(I1
V2017:08:04 18:41:17
p3149
(dp3150
V1
p3151
(dp3152
Vcoords
p3153
(lp3154
I16
aI192
aI80
aI368
asVprob
p3155
I95
sstp3156
a(I2
V2017:08:04 18:41:59
p3157
(dp3158
V1
p3159
(dp3160
Vcoords
p3161
(lp3162
I224
aI112
aI336
aI448
asVprob
p3163
I99
ssV2
p3164
(dp3165
Vcoords
p3166
(lp3167
I96
aI144
aI192
aI432
asVprob
p3168
I98
sstp3169
a(I4
V2017:08:04 18:45:27
p3170
(dp3171
V1
p3172
(dp3173
Vcoords
p3174
(lp3175
I80
aI176
aI144
aI384
asVprob
p3176
I98
ssV3
p3177
(dp3178
Vcoords
p3179
(lp3180
I320
aI192
aI384
aI368
asVprob
p3181
I95
ssV2
p3182
(dp3183
Vcoords
p3184
(lp3185
I240
aI176
aI304
aI384
asVprob
p3186
I98
ssV4
p3187
(dp3188
Vcoords
p3189
(lp3190
I144
aI192
aI208
aI368
asVprob
p3191
I95
sstp3192
a(I1
V2017:08:04 18:49:15
p3193
(dp3194
V1
p3195
(dp3196
Vcoords
p3197
(lp3198
I32
aI32
aI256
aI624
asVprob
p3199
I96
sstp3200
a(I1
V2017:08:04 18:57:39
p3201
(dp3202
V2
p3203
(dp3204
Vcoords
p3205
(lp3206
I16
aI272
aI48
aI336
asVprob
p3207
I86
sstp3208
a(I1
V2017:08:04 19:00:45
p3209
(dp3210
V1
p3211
(dp3212
Vcoords
p3213
(lp3214
I272
aI256
aI320
aI336
asVprob
p3215
I91
sstp3216
a(I1
V2017:08:04 19:03:11
p3217
(dp3218
V1
p3219
(dp3220
Vcoords
p3221
(lp3222
I272
aI272
aI304
aI336
asVprob
p3223
I85
sstp3224
a(I1
V2017:08:04 19:03:23
p3225
(dp3226
V1
p3227
(dp3228
Vcoords
p3229
(lp3230
I416
aI256
aI448
aI336
asVprob
p3231
I82
sstp3232
a.