(lp0
(I2
V2017:09:24 12:01:41
p1
(dp2
V1
p3
(dp4
Vcoords
p5
(lp6
I640
aI272
aI720
aI448
asVprob
p7
I94
ssV2
p8
(dp9
Vcoords
p10
(lp11
I736
aI224
aI800
aI448
asVprob
p12
I87
sstp13
a(I1
V2017:09:24 12:01:53
p14
(dp15
V1
p16
(dp17
Vcoords
p18
(lp19
I720
aI288
aI768
aI416
asVprob
p20
I84
sstp21
a(I2
V2017:09:24 12:02:11
p22
(dp23
V1
p24
(dp25
Vcoords
p26
(lp27
I224
aI256
aI288
aI432
asVprob
p28
I96
ssV2
p29
(dp30
Vcoords
p31
(lp32
I272
aI272
aI320
aI432
asVprob
p33
I87
sstp34
a(I1
V2017:09:24 12:02:15
p35
(dp36
V1
p37
(dp38
Vcoords
p39
(lp40
I272
aI256
aI336
aI400
asVprob
p41
I93
sstp42
a(I1
V2017:09:24 12:03:23
p43
(dp44
V1
p45
(dp46
Vcoords
p47
(lp48
I720
aI304
aI768
aI384
asVprob
p49
I87
sstp50
a(I1
V2017:09:24 12:03:35
p51
(dp52
V1
p53
(dp54
Vcoords
p55
(lp56
I720
aI288
aI768
aI384
asVprob
p57
I84
sstp58
a(I1
V2017:09:24 12:03:41
p59
(dp60
V1
p61
(dp62
Vcoords
p63
(lp64
I720
aI288
aI768
aI384
asVprob
p65
I87
sstp66
a(I2
V2017:09:24 12:03:49
p67
(dp68
V1
p69
(dp70
Vcoords
p71
(lp72
I272
aI256
aI320
aI416
asVprob
p73
I97
ssV2
p74
(dp75
Vcoords
p76
(lp77
I720
aI304
aI768
aI384
asVprob
p78
I83
sstp79
a(I1
V2017:09:24 12:03:55
p80
(dp81
V1
p82
(dp83
Vcoords
p84
(lp85
I720
aI304
aI768
aI400
asVprob
p86
I86
sstp87
a(I1
V2017:09:24 12:04:13
p88
(dp89
V1
p90
(dp91
Vcoords
p92
(lp93
I736
aI288
aI784
aI400
asVprob
p94
I81
sstp95
a(I1
V2017:09:24 12:04:19
p96
(dp97
V1
p98
(dp99
Vcoords
p100
(lp101
I720
aI288
aI768
aI400
asVprob
p102
I93
sstp103
a(I1
V2017:09:24 12:06:25
p104
(dp105
V1
p106
(dp107
Vcoords
p108
(lp109
I144
aI288
aI240
aI448
asVprob
p110
I89
sstp111
a(I2
V2017:09:24 12:07:05
p112
(dp113
V1
p114
(dp115
Vcoords
p116
(lp117
I112
aI272
aI176
aI448
asVprob
p118
I93
ssV2
p119
(dp120
Vcoords
p121
(lp122
I128
aI256
aI192
aI432
asVprob
p123
I82
sstp124
a(I1
V2017:09:24 12:09:23
p125
(dp126
V1
p127
(dp128
Vcoords
p129
(lp130
I176
aI304
aI224
aI384
asVprob
p131
I82
sstp132
a(I1
V2017:09:24 12:12:21
p133
(dp134
V1
p135
(dp136
Vcoords
p137
(lp138
I256
aI272
aI304
aI400
asVprob
p139
I89
sstp140
a(I1
V2017:09:24 12:13:23
p141
(dp142
V1
p143
(dp144
Vcoords
p145
(lp146
I80
aI256
aI144
aI416
asVprob
p147
I94
sstp148
a(I1
V2017:09:24 12:15:25
p149
(dp150
V1
p151
(dp152
Vcoords
p153
(lp154
I576
aI48
aI784
aI592
asVprob
p155
I96
sstp156
a(I1
V2017:09:24 12:19:25
p157
(dp158
V1
p159
(dp160
Vcoords
p161
(lp162
I512
aI240
aI608
aI480
asVprob
p163
I94
sstp164
a(I2
V2017:09:24 12:19:47
p165
(dp166
V1
p167
(dp168
Vcoords
p169
(lp170
I208
aI256
aI272
aI432
asVprob
p171
I95
ssV2
p172
(dp173
Vcoords
p174
(lp175
I272
aI256
aI320
aI432
asVprob
p176
I91
sstp177
a(I1
V2017:09:24 12:20:15
p178
(dp179
V1
p180
(dp181
Vcoords
p182
(lp183
I736
aI272
aI784
aI416
asVprob
p184
I93
sstp185
a(I2
V2017:09:24 12:21:03
p186
(dp187
V1
p188
(dp189
Vcoords
p190
(lp191
I496
aI160
aI656
aI592
asVprob
p192
I98
ssV2
p193
(dp194
Vcoords
p195
(lp196
I416
aI304
aI464
aI384
asVprob
p197
I83
sstp198
a(I1
V2017:09:24 12:21:53
p199
(dp200
V1
p201
(dp202
Vcoords
p203
(lp204
I400
aI304
aI448
aI400
asVprob
p205
I83
sstp206
a(I1
V2017:09:24 12:21:59
p207
(dp208
V1
p209
(dp210
Vcoords
p211
(lp212
I400
aI304
aI448
aI400
asVprob
p213
I87
sstp214
a(I1
V2017:09:24 12:22:15
p215
(dp216
V1
p217
(dp218
Vcoords
p219
(lp220
I432
aI304
aI480
aI400
asVprob
p221
I96
sstp222
a(I1
V2017:09:24 12:22:25
p223
(dp224
V1
p225
(dp226
Vcoords
p227
(lp228
I432
aI288
aI480
aI400
asVprob
p229
I96
sstp230
a(I1
V2017:09:24 12:22:33
p231
(dp232
V1
p233
(dp234
Vcoords
p235
(lp236
I592
aI240
aI672
aI464
asVprob
p237
I98
sstp238
a(I1
V2017:09:24 12:22:53
p239
(dp240
V2
p241
(dp242
Vcoords
p243
(lp244
I400
aI320
aI448
aI400
asVprob
p245
I84
sstp246
a(I3
V2017:09:24 12:23:51
p247
(dp248
V1
p249
(dp250
Vcoords
p251
(lp252
I512
aI272
aI576
aI448
asVprob
p253
I90
ssV3
p254
(dp255
Vcoords
p256
(lp257
I560
aI256
aI624
aI448
asVprob
p258
I84
ssV2
p259
(dp260
Vcoords
p261
(lp262
I400
aI288
aI448
aI400
asVprob
p263
I87
sstp264
a(I1
V2017:09:24 12:24:01
p265
(dp266
V1
p267
(dp268
Vcoords
p269
(lp270
I384
aI288
aI432
aI400
asVprob
p271
I92
sstp272
a(I1
V2017:09:24 12:24:07
p273
(dp274
V1
p275
(dp276
Vcoords
p277
(lp278
I320
aI288
aI368
aI416
asVprob
p279
I88
sstp280
a(I5
V2017:09:24 12:24:59
p281
(dp282
V1
p283
(dp284
Vcoords
p285
(lp286
I304
aI160
aI416
aI576
asVprob
p287
I97
ssV3
p288
(dp289
Vcoords
p290
(lp291
I96
aI256
aI160
aI448
asVprob
p292
I93
ssV2
p293
(dp294
Vcoords
p295
(lp296
I640
aI256
aI704
aI448
asVprob
p297
I97
ssV5
p298
(dp299
Vcoords
p300
(lp301
I608
aI272
aI656
aI448
asVprob
p302
I89
ssV4
p303
(dp304
Vcoords
p305
(lp306
I240
aI224
aI320
aI480
asVprob
p307
I92
sstp308
a(I2
V2017:09:24 12:27:07
p309
(dp310
V1
p311
(dp312
Vcoords
p313
(lp314
I512
aI272
aI576
aI432
asVprob
p315
I96
ssV2
p316
(dp317
Vcoords
p318
(lp319
I432
aI288
aI480
aI432
asVprob
p320
I93
sstp321
a(I2
V2017:09:24 12:27:35
p322
(dp323
V1
p324
(dp325
Vcoords
p326
(lp327
I432
aI272
aI480
aI416
asVprob
p328
I92
ssV2
p329
(dp330
Vcoords
p331
(lp332
I512
aI272
aI576
aI432
asVprob
p333
I88
sstp334
a(I2
V2017:09:24 12:28:09
p335
(dp336
V3
p337
(dp338
Vcoords
p339
(lp340
I736
aI288
aI784
aI432
asVprob
p341
I82
ssV2
p342
(dp343
Vcoords
p344
(lp345
I720
aI272
aI768
aI416
asVprob
p346
I83
sstp347
a(I1
V2017:09:24 12:28:33
p348
(dp349
V1
p350
(dp351
Vcoords
p352
(lp353
I416
aI256
aI496
aI464
asVprob
p354
I97
sstp355
a(I3
V2017:09:24 12:28:51
p356
(dp357
V1
p358
(dp359
Vcoords
p360
(lp361
I688
aI240
aI752
aI432
asVprob
p362
I97
ssV3
p363
(dp364
Vcoords
p365
(lp366
I640
aI288
aI688
aI432
asVprob
p367
I91
ssV4
p368
(dp369
Vcoords
p370
(lp371
I624
aI304
aI672
aI432
asVprob
p372
I82
sstp373
a(I2
V2017:09:24 12:30:31
p374
(dp375
V1
p376
(dp377
Vcoords
p378
(lp379
I528
aI256
aI592
aI448
asVprob
p380
I97
ssV2
p381
(dp382
Vcoords
p383
(lp384
I464
aI272
aI528
aI432
asVprob
p385
I89
sstp386
a(I1
V2017:09:24 12:35:05
p387
(dp388
V1
p389
(dp390
Vcoords
p391
(lp392
I608
aI224
aI688
aI464
asVprob
p393
I98
sstp394
a(I1
V2017:09:24 12:36:47
p395
(dp396
V1
p397
(dp398
Vcoords
p399
(lp400
I688
aI256
aI752
aI448
asVprob
p401
I97
sstp402
a(I1
V2017:09:24 12:38:27
p403
(dp404
V1
p405
(dp406
Vcoords
p407
(lp408
I64
aI224
aI128
aI464
asVprob
p409
I93
sstp410
a(I1
V2017:09:24 12:38:31
p411
(dp412
V1
p413
(dp414
Vcoords
p415
(lp416
I720
aI240
aI800
aI448
asVprob
p417
I92
sstp418
a(I2
V2017:09:24 12:39:37
p419
(dp420
V1
p421
(dp422
Vcoords
p423
(lp424
I592
aI64
aI800
aI592
asVprob
p425
I99
ssV2
p426
(dp427
Vcoords
p428
(lp429
I400
aI256
aI480
aI464
asVprob
p430
I96
sstp431
a(I4
V2017:09:24 12:42:09
p432
(dp433
V1
p434
(dp435
Vcoords
p436
(lp437
I624
aI256
aI688
aI464
asVprob
p438
I94
ssV3
p439
(dp440
Vcoords
p441
(lp442
I272
aI288
aI320
aI400
asVprob
p443
I90
ssV2
p444
(dp445
Vcoords
p446
(lp447
I560
aI288
aI624
aI448
asVprob
p448
I93
ssV4
p449
(dp450
Vcoords
p451
(lp452
I288
aI288
aI336
aI416
asVprob
p453
I85
sstp454
a(I2
V2017:09:24 12:43:23
p455
(dp456
V1
p457
(dp458
Vcoords
p459
(lp460
I560
aI256
aI640
aI464
asVprob
p461
I97
ssV2
p462
(dp463
Vcoords
p464
(lp465
I704
aI272
aI752
aI432
asVprob
p466
I93
sstp467
a(I1
V2017:09:24 12:46:07
p468
(dp469
V1
p470
(dp471
Vcoords
p472
(lp473
I640
aI240
aI704
aI464
asVprob
p474
I90
sstp475
a(I2
V2017:09:24 12:46:43
p476
(dp477
V1
p478
(dp479
Vcoords
p480
(lp481
I416
aI304
aI464
aI400
asVprob
p482
I91
ssV2
p483
(dp484
Vcoords
p485
(lp486
I432
aI304
aI480
aI400
asVprob
p487
I80
sstp488
a(I2
V2017:09:24 12:47:57
p489
(dp490
V1
p491
(dp492
Vcoords
p493
(lp494
I416
aI320
aI464
aI432
asVprob
p495
I88
ssV2
p496
(dp497
Vcoords
p498
(lp499
I432
aI320
aI480
aI416
asVprob
p500
I84
sstp501
a(I1
V2017:09:24 12:48:25
p502
(dp503
V1
p504
(dp505
Vcoords
p506
(lp507
I256
aI272
aI304
aI416
asVprob
p508
I95
sstp509
a(I2
V2017:09:24 12:49:09
p510
(dp511
V1
p512
(dp513
Vcoords
p514
(lp515
I560
aI240
aI656
aI480
asVprob
p516
I97
ssV2
p517
(dp518
Vcoords
p519
(lp520
I640
aI192
aI768
aI544
asVprob
p521
I94
sstp522
a(I1
V2017:09:24 12:52:17
p523
(dp524
V1
p525
(dp526
Vcoords
p527
(lp528
I352
aI288
aI496
aI528
asVprob
p529
I89
sstp530
a(I1
V2017:09:24 12:53:17
p531
(dp532
V1
p533
(dp534
Vcoords
p535
(lp536
I496
aI272
aI560
aI448
asVprob
p537
I95
sstp538
a(I1
V2017:09:24 12:55:19
p539
(dp540
V1
p541
(dp542
Vcoords
p543
(lp544
I128
aI272
aI176
aI416
asVprob
p545
I95
sstp546
a(I2
V2017:09:24 12:55:51
p547
(dp548
V1
p549
(dp550
Vcoords
p551
(lp552
I288
aI288
aI336
aI416
asVprob
p553
I85
ssV2
p554
(dp555
Vcoords
p556
(lp557
I240
aI304
aI288
aI432
asVprob
p558
I84
sstp559
a(I1
V2017:09:24 12:56:21
p560
(dp561
V1
p562
(dp563
Vcoords
p564
(lp565
I720
aI288
aI768
aI384
asVprob
p566
I89
sstp567
a(I1
V2017:09:24 12:56:29
p568
(dp569
V1
p570
(dp571
Vcoords
p572
(lp573
I720
aI288
aI768
aI384
asVprob
p574
I84
sstp575
a(I1
V2017:09:24 12:56:37
p576
(dp577
V1
p578
(dp579
Vcoords
p580
(lp581
I720
aI288
aI768
aI384
asVprob
p582
I82
sstp583
a(I1
V2017:09:24 12:56:41
p584
(dp585
V1
p586
(dp587
Vcoords
p588
(lp589
I720
aI288
aI768
aI384
asVprob
p590
I83
sstp591
a(I1
V2017:09:24 12:56:47
p592
(dp593
V1
p594
(dp595
Vcoords
p596
(lp597
I720
aI288
aI768
aI384
asVprob
p598
I84
sstp599
a(I1
V2017:09:24 12:56:53
p600
(dp601
V1
p602
(dp603
Vcoords
p604
(lp605
I64
aI240
aI160
aI480
asVprob
p606
I88
sstp607
a(I2
V2017:09:24 12:57:53
p608
(dp609
V1
p610
(dp611
Vcoords
p612
(lp613
I592
aI272
aI640
aI432
asVprob
p614
I94
ssV2
p615
(dp616
Vcoords
p617
(lp618
I608
aI272
aI656
aI432
asVprob
p619
I86
sstp620
a(I2
V2017:09:24 12:58:35
p621
(dp622
V1
p623
(dp624
Vcoords
p625
(lp626
I624
aI272
aI672
aI432
asVprob
p627
I97
ssV2
p628
(dp629
Vcoords
p630
(lp631
I640
aI256
aI688
aI432
asVprob
p632
I81
sstp633
a(I1
V2017:09:24 12:58:43
p634
(dp635
V1
p636
(dp637
Vcoords
p638
(lp639
I656
aI256
aI720
aI448
asVprob
p640
I96
sstp641
a(I1
V2017:09:24 12:58:59
p642
(dp643
V1
p644
(dp645
Vcoords
p646
(lp647
I640
aI256
aI704
aI448
asVprob
p648
I94
sstp649
a(I1
V2017:09:24 13:01:01
p650
(dp651
V1
p652
(dp653
Vcoords
p654
(lp655
I256
aI272
aI304
aI416
asVprob
p656
I97
sstp657
a(I2
V2017:09:24 13:03:03
p658
(dp659
V1
p660
(dp661
Vcoords
p662
(lp663
I96
aI144
aI240
aI576
asVprob
p664
I97
ssV2
p665
(dp666
Vcoords
p667
(lp668
I240
aI208
aI336
aI496
asVprob
p669
I92
sstp670
a(I1
V2017:09:24 13:03:11
p671
(dp672
V1
p673
(dp674
Vcoords
p675
(lp676
I432
aI288
aI480
aI400
asVprob
p677
I94
sstp678
a.