(lp0
(I1
V2017:07:25 11:28:18
p1
(dp2
V2
p3
(dp4
Vcoords
p5
(lp6
I448
aI0
aI800
aI592
asVprob
p7
I98
sstp8
a(I1
V2017:07:25 11:28:22
p9
(dp10
V1
p11
(dp12
Vcoords
p13
(lp14
I608
aI16
aI816
aI592
asVprob
p15
I94
sstp16
a(I1
V2017:07:25 11:28:30
p17
(dp18
V1
p19
(dp20
Vcoords
p21
(lp22
I416
aI0
aI672
aI544
asVprob
p23
I97
sstp24
a(I1
V2017:07:25 11:28:35
p25
(dp26
V1
p27
(dp28
Vcoords
p29
(lp30
I608
aI80
aI672
aI272
asVprob
p31
I92
sstp32
a(I1
V2017:07:25 11:28:44
p33
(dp34
V1
p35
(dp36
Vcoords
p37
(lp38
I560
aI80
aI640
aI272
asVprob
p39
I99
sstp40
a(I2
V2017:07:25 11:28:56
p41
(dp42
V1
p43
(dp44
Vcoords
p45
(lp46
I592
aI80
aI672
aI272
asVprob
p47
I98
ssV2
p48
(dp49
Vcoords
p50
(lp51
I512
aI80
aI576
aI288
asVprob
p52
I96
sstp53
a(I1
V2017:07:25 11:29:18
p54
(dp55
V1
p56
(dp57
Vcoords
p58
(lp59
I256
aI-32
aI432
aI432
asVprob
p60
I97
sstp61
a(I1
V2017:07:25 11:29:33
p62
(dp63
V1
p64
(dp65
Vcoords
p66
(lp67
I464
aI160
aI528
aI304
asVprob
p68
I90
sstp69
a(I1
V2017:07:25 11:30:04
p70
(dp71
V1
p72
(dp73
Vcoords
p74
(lp75
I448
aI0
aI576
aI368
asVprob
p76
I98
sstp77
a(I2
V2017:07:25 11:30:46
p78
(dp79
V1
p80
(dp81
Vcoords
p82
(lp83
I160
aI144
aI256
aI368
asVprob
p84
I99
ssV2
p85
(dp86
Vcoords
p87
(lp88
I0
aI128
aI128
aI496
asVprob
p89
I97
sstp90
a(I1
V2017:07:25 11:30:59
p91
(dp92
V1
p93
(dp94
Vcoords
p95
(lp96
I0
aI96
aI112
aI496
asVprob
p97
I99
sstp98
a(I1
V2017:07:25 11:31:06
p99
(dp100
V1
p101
(dp102
Vcoords
p103
(lp104
I432
aI160
aI496
aI336
asVprob
p105
I95
sstp106
a(I2
V2017:07:25 11:31:56
p107
(dp108
V1
p109
(dp110
Vcoords
p111
(lp112
I112
aI-16
aI320
aI576
asVprob
p113
I99
ssV2
p114
(dp115
Vcoords
p116
(lp117
I480
aI-48
aI816
aI544
asVprob
p118
I98
sstp119
a(I1
V2017:07:25 11:32:30
p120
(dp121
V2
p122
(dp123
Vcoords
p124
(lp125
I16
aI192
aI80
aI320
asVprob
p126
I92
sstp127
a(I1
V2017:07:25 11:33:12
p128
(dp129
V1
p130
(dp131
Vcoords
p132
(lp133
I528
aI112
aI608
aI320
asVprob
p134
I98
sstp135
a(I1
V2017:07:25 11:33:23
p136
(dp137
V1
p138
(dp139
Vcoords
p140
(lp141
I560
aI64
aI672
aI368
asVprob
p142
I98
sstp143
a(I1
V2017:07:25 11:34:10
p144
(dp145
V1
p146
(dp147
Vcoords
p148
(lp149
I0
aI160
aI64
aI288
asVprob
p150
I91
sstp151
a(I1
V2017:07:25 11:34:22
p152
(dp153
V1
p154
(dp155
Vcoords
p156
(lp157
I240
aI160
aI304
aI288
asVprob
p158
I96
sstp159
a(I1
V2017:07:25 11:34:43
p160
(dp161
V1
p162
(dp163
Vcoords
p164
(lp165
I368
aI16
aI624
aI560
asVprob
p166
I93
sstp167
a(I1
V2017:07:25 11:34:56
p168
(dp169
V1
p170
(dp171
Vcoords
p172
(lp173
I32
aI32
aI192
aI432
asVprob
p174
I99
sstp175
a(I1
V2017:07:25 11:35:17
p176
(dp177
V1
p178
(dp179
Vcoords
p180
(lp181
I336
aI32
aI480
aI480
asVprob
p182
I96
sstp183
a(I1
V2017:07:25 11:35:45
p184
(dp185
V2
p186
(dp187
Vcoords
p188
(lp189
I224
aI0
aI592
aI592
asVprob
p190
I90
sstp191
a(I1
V2017:07:25 11:35:50
p192
(dp193
V2
p194
(dp195
Vcoords
p196
(lp197
I288
aI-16
aI704
aI640
asVprob
p198
I89
sstp199
a(I4
V2017:07:25 11:36:12
p200
(dp201
V1
p202
(dp203
Vcoords
p204
(lp205
I272
aI128
aI336
aI352
asVprob
p206
I99
ssV3
p207
(dp208
Vcoords
p209
(lp210
I0
aI96
aI112
aI416
asVprob
p211
I98
ssV2
p212
(dp213
Vcoords
p214
(lp215
I352
aI112
aI432
aI336
asVprob
p216
I98
ssV4
p217
(dp218
Vcoords
p219
(lp220
I96
aI96
aI208
aI416
asVprob
p221
I98
sstp222
a(I2
V2017:07:25 11:36:35
p223
(dp224
V1
p225
(dp226
Vcoords
p227
(lp228
I176
aI64
aI288
aI400
asVprob
p229
I98
ssV2
p230
(dp231
Vcoords
p232
(lp233
I256
aI112
aI368
aI400
asVprob
p234
I96
sstp235
a(I1
V2017:07:25 11:37:21
p236
(dp237
V1
p238
(dp239
Vcoords
p240
(lp241
I272
aI224
aI336
aI368
asVprob
p242
I86
sstp243
a(I1
V2017:07:25 11:37:52
p244
(dp245
V1
p246
(dp247
Vcoords
p248
(lp249
I512
aI0
aI816
aI624
asVprob
p250
I86
sstp251
a(I1
V2017:07:25 11:37:57
p252
(dp253
V1
p254
(dp255
Vcoords
p256
(lp257
I640
aI80
aI800
aI624
asVprob
p258
I87
sstp259
a(I1
V2017:07:25 11:38:00
p260
(dp261
V1
p262
(dp263
Vcoords
p264
(lp265
I592
aI0
aI816
aI656
asVprob
p266
I83
sstp267
a(I1
V2017:07:25 11:39:14
p268
(dp269
V1
p270
(dp271
Vcoords
p272
(lp273
I192
aI128
aI288
aI368
asVprob
p274
I99
sstp275
a(I1
V2017:07:25 11:39:52
p276
(dp277
V1
p278
(dp279
Vcoords
p280
(lp281
I0
aI96
aI112
aI416
asVprob
p282
I98
sstp283
a(I1
V2017:07:25 11:42:51
p284
(dp285
V1
p286
(dp287
Vcoords
p288
(lp289
I80
aI144
aI176
aI368
asVprob
p290
I99
sstp291
a(I1
V2017:07:25 11:43:24
p292
(dp293
V1
p294
(dp295
Vcoords
p296
(lp297
I112
aI112
aI240
aI384
asVprob
p298
I99
sstp299
a(I1
V2017:07:25 11:43:40
p300
(dp301
V1
p302
(dp303
Vcoords
p304
(lp305
I128
aI112
aI272
aI448
asVprob
p306
I99
sstp307
a(I1
V2017:07:25 11:44:02
p308
(dp309
V1
p310
(dp311
Vcoords
p312
(lp313
I112
aI112
aI208
aI384
asVprob
p314
I99
sstp315
a(I3
V2017:07:25 11:46:40
p316
(dp317
V1
p318
(dp319
Vcoords
p320
(lp321
I208
aI96
aI352
aI528
asVprob
p322
I97
ssV2
p323
(dp324
Vcoords
p325
(lp326
I32
aI80
aI160
aI416
asVprob
p327
I97
ssV4
p328
(dp329
Vcoords
p330
(lp331
I128
aI96
aI224
aI448
asVprob
p332
I87
sstp333
a(I1
V2017:07:25 11:47:00
p334
(dp335
V1
p336
(dp337
Vcoords
p338
(lp339
I48
aI128
aI176
aI416
asVprob
p340
I99
sstp341
a(I1
V2017:07:25 11:47:09
p342
(dp343
V1
p344
(dp345
Vcoords
p346
(lp347
I128
aI96
aI240
aI448
asVprob
p348
I94
sstp349
a(I1
V2017:07:25 11:48:44
p350
(dp351
V1
p352
(dp353
Vcoords
p354
(lp355
I224
aI160
aI288
aI304
asVprob
p356
I93
sstp357
a(I1
V2017:07:25 11:49:49
p358
(dp359
V1
p360
(dp361
Vcoords
p362
(lp363
I288
aI64
aI384
aI368
asVprob
p364
I99
sstp365
a(I1
V2017:07:25 11:51:50
p366
(dp367
V1
p368
(dp369
Vcoords
p370
(lp371
I480
aI160
aI544
aI304
asVprob
p372
I95
sstp373
a(I1
V2017:07:25 11:52:18
p374
(dp375
V1
p376
(dp377
Vcoords
p378
(lp379
I0
aI-16
aI192
aI576
asVprob
p380
I98
sstp381
a(I3
V2017:07:25 11:52:32
p382
(dp383
V1
p384
(dp385
Vcoords
p386
(lp387
I160
aI128
aI240
aI336
asVprob
p388
I99
ssV3
p389
(dp390
Vcoords
p391
(lp392
I496
aI128
aI576
aI336
asVprob
p393
I97
ssV2
p394
(dp395
Vcoords
p396
(lp397
I240
aI128
aI352
aI352
asVprob
p398
I98
sstp399
a(I1
V2017:07:25 11:52:48
p400
(dp401
V1
p402
(dp403
Vcoords
p404
(lp405
I416
aI48
aI560
aI416
asVprob
p406
I99
sstp407
a(I2
V2017:07:25 11:55:13
p408
(dp409
V1
p410
(dp411
Vcoords
p412
(lp413
I64
aI128
aI176
aI384
asVprob
p414
I99
ssV2
p415
(dp416
Vcoords
p417
(lp418
I176
aI80
aI320
aI448
asVprob
p419
I98
sstp420
a(I1
V2017:07:25 11:55:47
p421
(dp422
V1
p423
(dp424
Vcoords
p425
(lp426
I112
aI112
aI224
aI400
asVprob
p427
I98
sstp428
a(I2
V2017:07:25 11:55:57
p429
(dp430
V1
p431
(dp432
Vcoords
p433
(lp434
I208
aI64
aI336
aI432
asVprob
p435
I96
ssV2
p436
(dp437
Vcoords
p438
(lp439
I160
aI160
aI224
aI336
asVprob
p440
I84
sstp441
a(I1
V2017:07:25 11:58:42
p442
(dp443
V1
p444
(dp445
Vcoords
p446
(lp447
I0
aI0
aI144
aI512
asVprob
p448
I92
sstp449
a(I1
V2017:07:25 11:59:14
p450
(dp451
V1
p452
(dp453
Vcoords
p454
(lp455
I128
aI144
aI192
aI352
asVprob
p456
I91
sstp457
a(I2
V2017:07:25 11:59:41
p458
(dp459
V1
p460
(dp461
Vcoords
p462
(lp463
I304
aI96
aI432
aI368
asVprob
p464
I99
ssV2
p465
(dp466
Vcoords
p467
(lp468
I192
aI96
aI288
aI352
asVprob
p469
I99
sstp470
a(I1
V2017:07:25 12:01:59
p471
(dp472
V1
p473
(dp474
Vcoords
p475
(lp476
I0
aI48
aI128
aI448
asVprob
p477
I99
sstp478
a(I1
V2017:07:25 12:02:31
p479
(dp480
V1
p481
(dp482
Vcoords
p483
(lp484
I96
aI80
aI288
aI496
asVprob
p485
I99
sstp486
a(I1
V2017:07:25 12:02:56
p487
(dp488
V1
p489
(dp490
Vcoords
p491
(lp492
I32
aI128
aI128
aI416
asVprob
p493
I98
sstp494
a(I1
V2017:07:25 12:05:26
p495
(dp496
V1
p497
(dp498
Vcoords
p499
(lp500
I144
aI80
aI256
aI400
asVprob
p501
I98
sstp502
a(I2
V2017:07:25 12:05:53
p503
(dp504
V1
p505
(dp506
Vcoords
p507
(lp508
I304
aI144
aI368
aI336
asVprob
p509
I97
ssV2
p510
(dp511
Vcoords
p512
(lp513
I240
aI160
aI304
aI320
asVprob
p514
I93
sstp515
a(I1
V2017:07:25 12:06:09
p516
(dp517
V2
p518
(dp519
Vcoords
p520
(lp521
I-16
aI-32
aI304
aI608
asVprob
p522
I80
sstp523
a(I1
V2017:07:25 12:06:18
p524
(dp525
V2
p526
(dp527
Vcoords
p528
(lp529
I320
aI128
aI384
aI336
asVprob
p530
I81
sstp531
a(I1
V2017:07:25 12:06:43
p532
(dp533
V1
p534
(dp535
Vcoords
p536
(lp537
I-16
aI32
aI224
aI608
asVprob
p538
I93
sstp539
a(I1
V2017:07:25 12:06:58
p540
(dp541
V2
p542
(dp543
Vcoords
p544
(lp545
I0
aI0
aI176
aI608
asVprob
p546
I81
sstp547
a(I2
V2017:07:25 12:07:06
p548
(dp549
V1
p550
(dp551
Vcoords
p552
(lp553
I176
aI16
aI336
aI480
asVprob
p554
I98
ssV2
p555
(dp556
Vcoords
p557
(lp558
I0
aI0
aI176
aI624
asVprob
p559
I85
sstp560
a(I1
V2017:07:25 12:07:48
p561
(dp562
V1
p563
(dp564
Vcoords
p565
(lp566
I272
aI128
aI352
aI336
asVprob
p567
I99
sstp568
a(I1
V2017:07:25 12:07:54
p569
(dp570
V1
p571
(dp572
Vcoords
p573
(lp574
I208
aI-16
aI496
aI544
asVprob
p575
I99
sstp576
a(I1
V2017:07:25 12:07:58
p577
(dp578
V1
p579
(dp580
Vcoords
p581
(lp582
I0
aI0
aI176
aI592
asVprob
p583
I89
sstp584
a(I3
V2017:07:25 12:08:20
p585
(dp586
V1
p587
(dp588
Vcoords
p589
(lp590
I224
aI64
aI368
aI480
asVprob
p591
I95
ssV3
p592
(dp593
Vcoords
p594
(lp595
I144
aI16
aI272
aI480
asVprob
p596
I94
ssV2
p597
(dp598
Vcoords
p599
(lp600
I0
aI112
aI112
aI480
asVprob
p601
I95
sstp602
a(I4
V2017:07:25 12:08:39
p603
(dp604
V1
p605
(dp606
Vcoords
p607
(lp608
I144
aI-32
aI320
aI544
asVprob
p609
I98
ssV3
p610
(dp611
Vcoords
p612
(lp613
I400
aI16
aI528
aI464
asVprob
p614
I92
ssV2
p615
(dp616
Vcoords
p617
(lp618
I448
aI0
aI736
aI592
asVprob
p619
I95
ssV4
p620
(dp621
Vcoords
p622
(lp623
I0
aI16
aI80
aI496
asVprob
p624
I85
sstp625
a(I2
V2017:07:25 12:09:32
p626
(dp627
V1
p628
(dp629
Vcoords
p630
(lp631
I192
aI160
aI256
aI320
asVprob
p632
I95
ssV2
p633
(dp634
Vcoords
p635
(lp636
I256
aI160
aI336
aI320
asVprob
p637
I94
sstp638
a(I2
V2017:07:25 12:11:38
p639
(dp640
V1
p641
(dp642
Vcoords
p643
(lp644
I288
aI112
aI384
aI352
asVprob
p645
I99
ssV2
p646
(dp647
Vcoords
p648
(lp649
I208
aI160
aI272
aI304
asVprob
p650
I96
sstp651
a(I2
V2017:07:25 12:11:52
p652
(dp653
V1
p654
(dp655
Vcoords
p656
(lp657
I208
aI144
aI272
aI304
asVprob
p658
I97
ssV2
p659
(dp660
Vcoords
p661
(lp662
I288
aI128
aI368
aI336
asVprob
p663
I93
sstp664
a(I2
V2017:07:25 12:12:06
p665
(dp666
V2
p667
(dp668
Vcoords
p669
(lp670
I208
aI144
aI272
aI288
asVprob
p671
I93
ssV4
p672
(dp673
Vcoords
p674
(lp675
I272
aI144
aI336
aI288
asVprob
p676
I85
sstp677
a(I2
V2017:07:25 12:12:15
p678
(dp679
V1
p680
(dp681
Vcoords
p682
(lp683
I208
aI144
aI272
aI288
asVprob
p684
I94
ssV2
p685
(dp686
Vcoords
p687
(lp688
I272
aI144
aI336
aI288
asVprob
p689
I92
sstp690
a(I2
V2017:07:25 12:12:31
p691
(dp692
V1
p693
(dp694
Vcoords
p695
(lp696
I208
aI144
aI272
aI304
asVprob
p697
I97
ssV2
p698
(dp699
Vcoords
p700
(lp701
I272
aI144
aI336
aI288
asVprob
p702
I94
sstp703
a(I3
V2017:07:25 12:12:46
p704
(dp705
V1
p706
(dp707
Vcoords
p708
(lp709
I208
aI144
aI272
aI304
asVprob
p710
I97
ssV3
p711
(dp712
Vcoords
p713
(lp714
I400
aI144
aI464
aI272
asVprob
p715
I96
ssV4
p716
(dp717
Vcoords
p718
(lp719
I288
aI144
aI352
aI288
asVprob
p720
I92
sstp721
a(I1
V2017:07:25 12:13:11
p722
(dp723
V2
p724
(dp725
Vcoords
p726
(lp727
I304
aI144
aI368
aI288
asVprob
p728
I95
sstp729
a(I1
V2017:07:25 12:13:26
p730
(dp731
V1
p732
(dp733
Vcoords
p734
(lp735
I224
aI144
aI288
aI288
asVprob
p736
I97
sstp737
a(I1
V2017:07:25 12:14:46
p738
(dp739
V1
p740
(dp741
Vcoords
p742
(lp743
I0
aI48
aI112
aI448
asVprob
p744
I99
sstp745
a(I1
V2017:07:25 12:15:00
p746
(dp747
V3
p748
(dp749
Vcoords
p750
(lp751
I272
aI176
aI336
aI272
asVprob
p752
I90
sstp753
a(I2
V2017:07:25 12:15:36
p754
(dp755
V3
p756
(dp757
Vcoords
p758
(lp759
I304
aI160
aI368
aI288
asVprob
p760
I83
ssV4
p761
(dp762
Vcoords
p763
(lp764
I288
aI144
aI352
aI272
asVprob
p765
I82
sstp766
a(I1
V2017:07:25 12:17:02
p767
(dp768
V1
p769
(dp770
Vcoords
p771
(lp772
I208
aI128
aI272
aI320
asVprob
p773
I95
sstp774
a(I1
V2017:07:25 12:17:14
p775
(dp776
V2
p777
(dp778
Vcoords
p779
(lp780
I240
aI128
aI304
aI336
asVprob
p781
I94
sstp782
a(I1
V2017:07:25 12:17:28
p783
(dp784
V2
p785
(dp786
Vcoords
p787
(lp788
I592
aI160
aI656
aI272
asVprob
p789
I91
sstp790
a(I1
V2017:07:25 12:17:35
p791
(dp792
V1
p793
(dp794
Vcoords
p795
(lp796
I224
aI64
aI352
aI368
asVprob
p797
I99
sstp798
a(I1
V2017:07:25 12:17:58
p799
(dp800
V1
p801
(dp802
Vcoords
p803
(lp804
I240
aI112
aI352
aI352
asVprob
p805
I98
sstp806
a(I1
V2017:07:25 12:18:30
p807
(dp808
V1
p809
(dp810
Vcoords
p811
(lp812
I432
aI32
aI544
aI400
asVprob
p813
I98
sstp814
a(I1
V2017:07:25 12:18:55
p815
(dp816
V1
p817
(dp818
Vcoords
p819
(lp820
I96
aI80
aI224
aI368
asVprob
p821
I99
sstp822
a(I1
V2017:07:25 12:21:00
p823
(dp824
V1
p825
(dp826
Vcoords
p827
(lp828
I16
aI16
aI176
aI416
asVprob
p829
I99
sstp830
a(I1
V2017:07:25 12:22:00
p831
(dp832
V1
p833
(dp834
Vcoords
p835
(lp836
I224
aI144
aI304
aI320
asVprob
p837
I98
sstp838
a(I2
V2017:07:25 12:22:15
p839
(dp840
V1
p841
(dp842
Vcoords
p843
(lp844
I288
aI112
aI384
aI336
asVprob
p845
I99
ssV2
p846
(dp847
Vcoords
p848
(lp849
I192
aI128
aI256
aI336
asVprob
p850
I97
sstp851
a(I2
V2017:07:25 12:22:38
p852
(dp853
V1
p854
(dp855
Vcoords
p856
(lp857
I304
aI128
aI368
aI304
asVprob
p858
I98
ssV2
p859
(dp860
Vcoords
p861
(lp862
I96
aI128
aI176
aI336
asVprob
p863
I98
sstp864
a(I1
V2017:07:25 12:22:56
p865
(dp866
V1
p867
(dp868
Vcoords
p869
(lp870
I240
aI144
aI304
aI288
asVprob
p871
I91
sstp872
a(I1
V2017:07:25 12:23:34
p873
(dp874
V1
p875
(dp876
Vcoords
p877
(lp878
I208
aI128
aI288
aI336
asVprob
p879
I98
sstp880
a(I2
V2017:07:25 12:25:25
p881
(dp882
V1
p883
(dp884
Vcoords
p885
(lp886
I224
aI128
aI304
aI320
asVprob
p887
I98
ssV2
p888
(dp889
Vcoords
p890
(lp891
I160
aI128
aI240
aI320
asVprob
p892
I97
sstp893
a(I1
V2017:07:25 12:25:33
p894
(dp895
V1
p896
(dp897
Vcoords
p898
(lp899
I304
aI128
aI384
aI320
asVprob
p900
I96
sstp901
a(I1
V2017:07:25 12:26:12
p902
(dp903
V1
p904
(dp905
Vcoords
p906
(lp907
I256
aI96
aI336
aI336
asVprob
p908
I98
sstp909
a(I1
V2017:07:25 12:27:48
p910
(dp911
V1
p912
(dp913
Vcoords
p914
(lp915
I272
aI144
aI336
aI304
asVprob
p916
I97
sstp917
a(I3
V2017:07:25 12:28:00
p918
(dp919
V1
p920
(dp921
Vcoords
p922
(lp923
I432
aI0
aI768
aI592
asVprob
p924
I97
ssV3
p925
(dp926
Vcoords
p927
(lp928
I384
aI0
aI528
aI432
asVprob
p929
I94
ssV2
p930
(dp931
Vcoords
p932
(lp933
I240
aI48
aI352
aI416
asVprob
p934
I96
sstp935
a(I1
V2017:07:25 12:28:09
p936
(dp937
V2
p938
(dp939
Vcoords
p940
(lp941
I272
aI144
aI336
aI304
asVprob
p942
I96
sstp943
a(I1
V2017:07:25 12:28:24
p944
(dp945
V1
p946
(dp947
Vcoords
p948
(lp949
I160
aI48
aI272
aI384
asVprob
p950
I99
sstp951
a(I2
V2017:07:25 12:29:02
p952
(dp953
V1
p954
(dp955
Vcoords
p956
(lp957
I0
aI64
aI144
aI448
asVprob
p958
I98
ssV2
p959
(dp960
Vcoords
p961
(lp962
I160
aI0
aI304
aI448
asVprob
p963
I98
sstp964
a(I3
V2017:07:25 12:29:20
p965
(dp966
V1
p967
(dp968
Vcoords
p969
(lp970
I16
aI64
aI176
aI416
asVprob
p971
I99
ssV3
p972
(dp973
Vcoords
p974
(lp975
I288
aI96
aI352
aI368
asVprob
p976
I94
ssV2
p977
(dp978
Vcoords
p979
(lp980
I176
aI16
aI320
aI448
asVprob
p981
I96
sstp982
a(I2
V2017:07:25 12:29:44
p983
(dp984
V1
p985
(dp986
Vcoords
p987
(lp988
I304
aI144
aI368
aI272
asVprob
p989
I96
ssV2
p990
(dp991
Vcoords
p992
(lp993
I0
aI96
aI96
aI416
asVprob
p994
I96
sstp995
a(I2
V2017:07:25 12:30:06
p996
(dp997
V1
p998
(dp999
Vcoords
p1000
(lp1001
I288
aI128
aI352
aI304
asVprob
p1002
I98
ssV2
p1003
(dp1004
Vcoords
p1005
(lp1006
I192
aI144
aI256
aI304
asVprob
p1007
I94
sstp1008
a(I2
V2017:07:25 12:30:17
p1009
(dp1010
V1
p1011
(dp1012
Vcoords
p1013
(lp1014
I304
aI112
aI384
aI320
asVprob
p1015
I99
ssV3
p1016
(dp1017
Vcoords
p1018
(lp1019
I224
aI144
aI288
aI320
asVprob
p1020
I93
sstp1021
a(I1
V2017:07:25 12:31:23
p1022
(dp1023
V1
p1024
(dp1025
Vcoords
p1026
(lp1027
I240
aI144
aI304
aI304
asVprob
p1028
I98
sstp1029
a(I1
V2017:07:25 12:31:34
p1030
(dp1031
V1
p1032
(dp1033
Vcoords
p1034
(lp1035
I240
aI128
aI336
aI352
asVprob
p1036
I92
sstp1037
a(I1
V2017:07:25 12:32:54
p1038
(dp1039
V1
p1040
(dp1041
Vcoords
p1042
(lp1043
I16
aI80
aI128
aI400
asVprob
p1044
I98
sstp1045
a(I1
V2017:07:25 12:34:12
p1046
(dp1047
V1
p1048
(dp1049
Vcoords
p1050
(lp1051
I240
aI128
aI320
aI336
asVprob
p1052
I96
sstp1053
a(I1
V2017:07:25 12:34:46
p1054
(dp1055
V1
p1056
(dp1057
Vcoords
p1058
(lp1059
I240
aI176
aI304
aI304
asVprob
p1060
I92
sstp1061
a(I1
V2017:07:25 12:35:11
p1062
(dp1063
V1
p1064
(dp1065
Vcoords
p1066
(lp1067
I240
aI144
aI304
aI304
asVprob
p1068
I95
sstp1069
a(I2
V2017:07:25 12:36:02
p1070
(dp1071
V1
p1072
(dp1073
Vcoords
p1074
(lp1075
I256
aI112
aI336
aI320
asVprob
p1076
I98
ssV2
p1077
(dp1078
Vcoords
p1079
(lp1080
I160
aI144
aI240
aI320
asVprob
p1081
I93
sstp1082
a(I2
V2017:07:25 12:36:12
p1083
(dp1084
V1
p1085
(dp1086
Vcoords
p1087
(lp1088
I256
aI128
aI320
aI320
asVprob
p1089
I99
ssV2
p1090
(dp1091
Vcoords
p1092
(lp1093
I160
aI128
aI240
aI336
asVprob
p1094
I95
sstp1095
a(I1
V2017:07:25 12:36:23
p1096
(dp1097
V1
p1098
(dp1099
Vcoords
p1100
(lp1101
I288
aI144
aI352
aI288
asVprob
p1102
I96
sstp1103
a(I1
V2017:07:25 12:36:32
p1104
(dp1105
V1
p1106
(dp1107
Vcoords
p1108
(lp1109
I672
aI144
aI736
aI240
asVprob
p1110
I93
sstp1111
a(I2
V2017:07:25 12:36:39
p1112
(dp1113
V1
p1114
(dp1115
Vcoords
p1116
(lp1117
I176
aI128
aI240
aI320
asVprob
p1118
I97
ssV3
p1119
(dp1120
Vcoords
p1121
(lp1122
I672
aI144
aI736
aI240
asVprob
p1123
I81
sstp1124
a(I1
V2017:07:25 12:36:56
p1125
(dp1126
V1
p1127
(dp1128
Vcoords
p1129
(lp1130
I320
aI144
aI384
aI288
asVprob
p1131
I95
sstp1132
a(I1
V2017:07:25 12:37:21
p1133
(dp1134
V2
p1135
(dp1136
Vcoords
p1137
(lp1138
I192
aI144
aI272
aI320
asVprob
p1139
I94
sstp1140
a(I1
V2017:07:25 12:38:28
p1141
(dp1142
V1
p1143
(dp1144
Vcoords
p1145
(lp1146
I64
aI32
aI256
aI448
asVprob
p1147
I96
sstp1148
a(I2
V2017:07:25 12:38:50
p1149
(dp1150
V1
p1151
(dp1152
Vcoords
p1153
(lp1154
I176
aI96
aI304
aI432
asVprob
p1155
I99
ssV2
p1156
(dp1157
Vcoords
p1158
(lp1159
I32
aI112
aI144
aI400
asVprob
p1160
I99
sstp1161
a(I2
V2017:07:25 12:39:20
p1162
(dp1163
V1
p1164
(dp1165
Vcoords
p1166
(lp1167
I192
aI80
aI336
aI368
asVprob
p1168
I95
ssV3
p1169
(dp1170
Vcoords
p1171
(lp1172
I160
aI96
aI256
aI352
asVprob
p1173
I87
sstp1174
a(I1
V2017:07:25 12:39:28
p1175
(dp1176
V3
p1177
(dp1178
Vcoords
p1179
(lp1180
I256
aI160
aI320
aI272
asVprob
p1181
I92
sstp1182
a(I1
V2017:07:25 12:40:56
p1183
(dp1184
V3
p1185
(dp1186
Vcoords
p1187
(lp1188
I176
aI128
aI256
aI352
asVprob
p1189
I85
sstp1190
a(I2
V2017:07:25 12:42:00
p1191
(dp1192
V1
p1193
(dp1194
Vcoords
p1195
(lp1196
I16
aI112
aI128
aI368
asVprob
p1197
I98
ssV2
p1198
(dp1199
Vcoords
p1200
(lp1201
I160
aI96
aI288
aI384
asVprob
p1202
I94
sstp1203
a(I2
V2017:07:25 12:42:36
p1204
(dp1205
V1
p1206
(dp1207
Vcoords
p1208
(lp1209
I176
aI80
aI272
aI352
asVprob
p1210
I98
ssV2
p1211
(dp1212
Vcoords
p1213
(lp1214
I288
aI96
aI368
aI336
asVprob
p1215
I97
sstp1216
a(I1
V2017:07:25 12:43:24
p1217
(dp1218
V3
p1219
(dp1220
Vcoords
p1221
(lp1222
I272
aI160
aI336
aI272
asVprob
p1223
I90
sstp1224
a(I1
V2017:07:25 12:44:21
p1225
(dp1226
V1
p1227
(dp1228
Vcoords
p1229
(lp1230
I416
aI144
aI480
aI272
asVprob
p1231
I87
sstp1232
a(I1
V2017:07:25 12:44:34
p1233
(dp1234
V3
p1235
(dp1236
Vcoords
p1237
(lp1238
I592
aI144
aI656
aI288
asVprob
p1239
I91
sstp1240
a(I2
V2017:07:25 12:44:49
p1241
(dp1242
V2
p1243
(dp1244
Vcoords
p1245
(lp1246
I368
aI80
aI480
aI352
asVprob
p1247
I98
ssV4
p1248
(dp1249
Vcoords
p1250
(lp1251
I176
aI144
aI256
aI320
asVprob
p1252
I95
sstp1253
a(I1
V2017:07:25 12:45:15
p1254
(dp1255
V1
p1256
(dp1257
Vcoords
p1258
(lp1259
I112
aI128
aI192
aI336
asVprob
p1260
I98
sstp1261
a(I1
V2017:07:25 12:45:19
p1262
(dp1263
V1
p1264
(dp1265
Vcoords
p1266
(lp1267
I0
aI16
aI96
aI480
asVprob
p1268
I98
sstp1269
a(I1
V2017:07:25 12:45:42
p1270
(dp1271
V1
p1272
(dp1273
Vcoords
p1274
(lp1275
I144
aI128
aI240
aI352
asVprob
p1276
I97
sstp1277
a(I1
V2017:07:25 12:45:51
p1278
(dp1279
V1
p1280
(dp1281
Vcoords
p1282
(lp1283
I176
aI160
aI240
aI288
asVprob
p1284
I93
sstp1285
a(I1
V2017:07:25 12:45:56
p1286
(dp1287
V1
p1288
(dp1289
Vcoords
p1290
(lp1291
I272
aI160
aI336
aI288
asVprob
p1292
I95
sstp1293
a(I1
V2017:07:25 12:46:22
p1294
(dp1295
V2
p1296
(dp1297
Vcoords
p1298
(lp1299
I288
aI160
aI352
aI272
asVprob
p1300
I93
sstp1301
a(I2
V2017:07:25 12:46:32
p1302
(dp1303
V1
p1304
(dp1305
Vcoords
p1306
(lp1307
I688
aI128
aI768
aI304
asVprob
p1308
I97
ssV2
p1309
(dp1310
Vcoords
p1311
(lp1312
I288
aI160
aI352
aI272
asVprob
p1313
I95
sstp1314
a(I1
V2017:07:25 12:46:47
p1315
(dp1316
V1
p1317
(dp1318
Vcoords
p1319
(lp1320
I272
aI160
aI336
aI272
asVprob
p1321
I97
sstp1322
a(I1
V2017:07:25 12:47:10
p1323
(dp1324
V1
p1325
(dp1326
Vcoords
p1327
(lp1328
I0
aI16
aI208
aI560
asVprob
p1329
I96
sstp1330
a(I1
V2017:07:25 12:48:14
p1331
(dp1332
V1
p1333
(dp1334
Vcoords
p1335
(lp1336
I80
aI112
aI176
aI368
asVprob
p1337
I98
sstp1338
a(I1
V2017:07:25 12:48:20
p1339
(dp1340
V1
p1341
(dp1342
Vcoords
p1343
(lp1344
I32
aI96
aI160
aI368
asVprob
p1345
I99
sstp1346
a(I1
V2017:07:25 12:48:38
p1347
(dp1348
V1
p1349
(dp1350
Vcoords
p1351
(lp1352
I304
aI160
aI368
aI272
asVprob
p1353
I92
sstp1354
a(I3
V2017:07:25 12:48:48
p1355
(dp1356
V1
p1357
(dp1358
Vcoords
p1359
(lp1360
I320
aI112
aI400
aI336
asVprob
p1361
I98
ssV3
p1362
(dp1363
Vcoords
p1364
(lp1365
I192
aI128
aI256
aI352
asVprob
p1366
I97
ssV2
p1367
(dp1368
Vcoords
p1369
(lp1370
I80
aI112
aI176
aI368
asVprob
p1371
I98
sstp1372
a(I1
V2017:07:25 12:49:47
p1373
(dp1374
V2
p1375
(dp1376
Vcoords
p1377
(lp1378
I208
aI128
aI272
aI320
asVprob
p1379
I89
sstp1380
a(I1
V2017:07:25 12:50:08
p1381
(dp1382
V1
p1383
(dp1384
Vcoords
p1385
(lp1386
I288
aI160
aI352
aI288
asVprob
p1387
I96
sstp1388
a(I2
V2017:07:25 12:51:30
p1389
(dp1390
V1
p1391
(dp1392
Vcoords
p1393
(lp1394
I208
aI128
aI304
aI352
asVprob
p1395
I95
ssV2
p1396
(dp1397
Vcoords
p1398
(lp1399
I160
aI128
aI240
aI336
asVprob
p1400
I87
sstp1401
a(I1
V2017:07:25 12:52:17
p1402
(dp1403
V1
p1404
(dp1405
Vcoords
p1406
(lp1407
I144
aI80
aI240
aI368
asVprob
p1408
I97
sstp1409
a(I1
V2017:07:25 12:53:19
p1410
(dp1411
V1
p1412
(dp1413
Vcoords
p1414
(lp1415
I144
aI128
aI224
aI336
asVprob
p1416
I98
sstp1417
a(I2
V2017:07:25 12:54:35
p1418
(dp1419
V3
p1420
(dp1421
Vcoords
p1422
(lp1423
I304
aI160
aI368
aI288
asVprob
p1424
I84
ssV2
p1425
(dp1426
Vcoords
p1427
(lp1428
I320
aI144
aI384
aI272
asVprob
p1429
I95
sstp1430
a(I2
V2017:07:25 12:54:58
p1431
(dp1432
V1
p1433
(dp1434
Vcoords
p1435
(lp1436
I160
aI144
aI224
aI336
asVprob
p1437
I97
ssV2
p1438
(dp1439
Vcoords
p1440
(lp1441
I224
aI144
aI304
aI320
asVprob
p1442
I95
sstp1443
a(I2
V2017:07:25 12:55:12
p1444
(dp1445
V1
p1446
(dp1447
Vcoords
p1448
(lp1449
I560
aI144
aI624
aI272
asVprob
p1450
I94
ssV2
p1451
(dp1452
Vcoords
p1453
(lp1454
I0
aI0
aI176
aI576
asVprob
p1455
I93
sstp1456
a(I1
V2017:07:25 12:55:18
p1457
(dp1458
V2
p1459
(dp1460
Vcoords
p1461
(lp1462
I704
aI160
aI784
aI288
asVprob
p1463
I82
sstp1464
a(I1
V2017:07:25 12:55:31
p1465
(dp1466
V3
p1467
(dp1468
Vcoords
p1469
(lp1470
I368
aI160
aI432
aI288
asVprob
p1471
I90
sstp1472
a(I2
V2017:07:25 12:55:37
p1473
(dp1474
V1
p1475
(dp1476
Vcoords
p1477
(lp1478
I480
aI144
aI544
aI288
asVprob
p1479
I95
ssV2
p1480
(dp1481
Vcoords
p1482
(lp1483
I240
aI144
aI304
aI304
asVprob
p1484
I93
sstp1485
a(I1
V2017:07:25 12:55:40
p1486
(dp1487
V1
p1488
(dp1489
Vcoords
p1490
(lp1491
I240
aI128
aI304
aI320
asVprob
p1492
I95
sstp1493
a(I1
V2017:07:25 12:56:00
p1494
(dp1495
V1
p1496
(dp1497
Vcoords
p1498
(lp1499
I272
aI160
aI336
aI272
asVprob
p1500
I92
sstp1501
a(I1
V2017:07:25 12:56:08
p1502
(dp1503
V1
p1504
(dp1505
Vcoords
p1506
(lp1507
I592
aI144
aI656
aI272
asVprob
p1508
I92
sstp1509
a(I2
V2017:07:25 12:56:15
p1510
(dp1511
V1
p1512
(dp1513
Vcoords
p1514
(lp1515
I128
aI64
aI256
aI400
asVprob
p1516
I99
ssV2
p1517
(dp1518
Vcoords
p1519
(lp1520
I720
aI128
aI800
aI288
asVprob
p1521
I93
sstp1522
a(I1
V2017:07:25 12:56:36
p1523
(dp1524
V1
p1525
(dp1526
Vcoords
p1527
(lp1528
I32
aI16
aI224
aI432
asVprob
p1529
I99
sstp1530
a(I2
V2017:07:25 12:57:10
p1531
(dp1532
V1
p1533
(dp1534
Vcoords
p1535
(lp1536
I128
aI96
aI240
aI416
asVprob
p1537
I97
ssV2
p1538
(dp1539
Vcoords
p1540
(lp1541
I704
aI128
aI768
aI272
asVprob
p1542
I90
sstp1543
a(I1
V2017:07:25 12:57:20
p1544
(dp1545
V1
p1546
(dp1547
Vcoords
p1548
(lp1549
I688
aI160
aI752
aI272
asVprob
p1550
I85
sstp1551
a(I1
V2017:07:25 12:57:54
p1552
(dp1553
V2
p1554
(dp1555
Vcoords
p1556
(lp1557
I688
aI160
aI752
aI272
asVprob
p1558
I80
sstp1559
a(I2
V2017:07:25 12:58:06
p1560
(dp1561
V2
p1562
(dp1563
Vcoords
p1564
(lp1565
I432
aI128
aI496
aI304
asVprob
p1566
I96
ssV7
p1567
(dp1568
Vcoords
p1569
(lp1570
I448
aI144
aI512
aI320
asVprob
p1571
I81
sstp1572
a(I1
V2017:07:25 12:58:40
p1573
(dp1574
V1
p1575
(dp1576
Vcoords
p1577
(lp1578
I208
aI96
aI304
aI368
asVprob
p1579
I98
sstp1580
a(I1
V2017:07:25 12:58:50
p1581
(dp1582
V1
p1583
(dp1584
Vcoords
p1585
(lp1586
I80
aI128
aI144
aI304
asVprob
p1587
I96
sstp1588
a(I1
V2017:07:25 12:59:29
p1589
(dp1590
V1
p1591
(dp1592
Vcoords
p1593
(lp1594
I320
aI144
aI384
aI288
asVprob
p1595
I97
sstp1596
a(I3
V2017:07:25 13:00:04
p1597
(dp1598
V1
p1599
(dp1600
Vcoords
p1601
(lp1602
I0
aI0
aI208
aI560
asVprob
p1603
I97
ssV3
p1604
(dp1605
Vcoords
p1606
(lp1607
I176
aI32
aI288
aI416
asVprob
p1608
I96
ssV2
p1609
(dp1610
Vcoords
p1611
(lp1612
I384
aI128
aI464
aI320
asVprob
p1613
I97
sstp1614
a(I2
V2017:07:25 13:00:13
p1615
(dp1616
V1
p1617
(dp1618
Vcoords
p1619
(lp1620
I128
aI112
aI208
aI320
asVprob
p1621
I95
ssV5
p1622
(dp1623
Vcoords
p1624
(lp1625
I736
aI128
aI800
aI272
asVprob
p1626
I80
sstp1627
a(I2
V2017:07:25 13:00:27
p1628
(dp1629
V1
p1630
(dp1631
Vcoords
p1632
(lp1633
I144
aI112
aI224
aI336
asVprob
p1634
I98
ssV2
p1635
(dp1636
Vcoords
p1637
(lp1638
I240
aI112
aI352
aI352
asVprob
p1639
I96
sstp1640
a(I1
V2017:07:25 13:00:42
p1641
(dp1642
V1
p1643
(dp1644
Vcoords
p1645
(lp1646
I528
aI144
aI592
aI272
asVprob
p1647
I95
sstp1648
a(I1
V2017:07:25 13:00:54
p1649
(dp1650
V1
p1651
(dp1652
Vcoords
p1653
(lp1654
I576
aI144
aI640
aI272
asVprob
p1655
I95
sstp1656
a(I1
V2017:07:25 13:01:00
p1657
(dp1658
V1
p1659
(dp1660
Vcoords
p1661
(lp1662
I576
aI144
aI640
aI272
asVprob
p1663
I96
sstp1664
a(I1
V2017:07:25 13:01:11
p1665
(dp1666
V2
p1667
(dp1668
Vcoords
p1669
(lp1670
I576
aI144
aI640
aI272
asVprob
p1671
I92
sstp1672
a(I1
V2017:07:25 13:01:14
p1673
(dp1674
V1
p1675
(dp1676
Vcoords
p1677
(lp1678
I592
aI144
aI656
aI272
asVprob
p1679
I94
sstp1680
a(I2
V2017:07:25 13:01:25
p1681
(dp1682
V1
p1683
(dp1684
Vcoords
p1685
(lp1686
I144
aI112
aI240
aI352
asVprob
p1687
I99
ssV2
p1688
(dp1689
Vcoords
p1690
(lp1691
I592
aI144
aI656
aI272
asVprob
p1692
I92
sstp1693
a(I1
V2017:07:25 13:01:30
p1694
(dp1695
V1
p1696
(dp1697
Vcoords
p1698
(lp1699
I592
aI144
aI656
aI272
asVprob
p1700
I90
sstp1701
a(I1
V2017:07:25 13:01:35
p1702
(dp1703
V1
p1704
(dp1705
Vcoords
p1706
(lp1707
I592
aI144
aI656
aI288
asVprob
p1708
I95
sstp1709
a(I2
V2017:07:25 13:01:54
p1710
(dp1711
V1
p1712
(dp1713
Vcoords
p1714
(lp1715
I80
aI64
aI208
aI400
asVprob
p1716
I97
ssV2
p1717
(dp1718
Vcoords
p1719
(lp1720
I592
aI144
aI656
aI272
asVprob
p1721
I93
sstp1722
a(I1
V2017:07:25 13:01:58
p1723
(dp1724
V3
p1725
(dp1726
Vcoords
p1727
(lp1728
I592
aI144
aI656
aI272
asVprob
p1729
I86
sstp1730
a(I1
V2017:07:25 13:02:08
p1731
(dp1732
V3
p1733
(dp1734
Vcoords
p1735
(lp1736
I592
aI144
aI656
aI272
asVprob
p1737
I85
sstp1738
a(I2
V2017:07:25 13:02:28
p1739
(dp1740
V1
p1741
(dp1742
Vcoords
p1743
(lp1744
I208
aI128
aI272
aI304
asVprob
p1745
I98
ssV3
p1746
(dp1747
Vcoords
p1748
(lp1749
I576
aI144
aI640
aI272
asVprob
p1750
I92
sstp1751
a(I3
V2017:07:25 13:03:08
p1752
(dp1753
V1
p1754
(dp1755
Vcoords
p1756
(lp1757
I224
aI96
aI336
aI400
asVprob
p1758
I98
ssV5
p1759
(dp1760
Vcoords
p1761
(lp1762
I592
aI144
aI656
aI272
asVprob
p1763
I88
ssV7
p1764
(dp1765
Vcoords
p1766
(lp1767
I144
aI96
aI240
aI352
asVprob
p1768
I85
sstp1769
a(I1
V2017:07:25 13:03:20
p1770
(dp1771
V1
p1772
(dp1773
Vcoords
p1774
(lp1775
I576
aI144
aI640
aI272
asVprob
p1776
I96
sstp1777
a(I1
V2017:07:25 13:03:24
p1778
(dp1779
V4
p1780
(dp1781
Vcoords
p1782
(lp1783
I704
aI128
aI768
aI256
asVprob
p1784
I81
sstp1785
a(I2
V2017:07:25 13:03:39
p1786
(dp1787
V1
p1788
(dp1789
Vcoords
p1790
(lp1791
I256
aI144
aI320
aI288
asVprob
p1792
I97
ssV3
p1793
(dp1794
Vcoords
p1795
(lp1796
I704
aI128
aI768
aI240
asVprob
p1797
I92
sstp1798
a(I1
V2017:07:25 13:03:57
p1799
(dp1800
V2
p1801
(dp1802
Vcoords
p1803
(lp1804
I704
aI128
aI768
aI272
asVprob
p1805
I83
sstp1806
a(I2
V2017:07:25 13:04:22
p1807
(dp1808
V1
p1809
(dp1810
Vcoords
p1811
(lp1812
I464
aI144
aI528
aI320
asVprob
p1813
I98
ssV4
p1814
(dp1815
Vcoords
p1816
(lp1817
I704
aI128
aI768
aI256
asVprob
p1818
I83
sstp1819
a(I1
V2017:07:25 13:04:35
p1820
(dp1821
V3
p1822
(dp1823
Vcoords
p1824
(lp1825
I528
aI144
aI592
aI288
asVprob
p1826
I88
sstp1827
a(I1
V2017:07:25 13:04:39
p1828
(dp1829
V1
p1830
(dp1831
Vcoords
p1832
(lp1833
I544
aI144
aI608
aI272
asVprob
p1834
I93
sstp1835
a(I1
V2017:07:25 13:04:43
p1836
(dp1837
V2
p1838
(dp1839
Vcoords
p1840
(lp1841
I544
aI144
aI608
aI272
asVprob
p1842
I86
sstp1843
a(I1
V2017:07:25 13:04:47
p1844
(dp1845
V3
p1846
(dp1847
Vcoords
p1848
(lp1849
I544
aI144
aI608
aI272
asVprob
p1850
I90
sstp1851
a(I2
V2017:07:25 13:04:52
p1852
(dp1853
V1
p1854
(dp1855
Vcoords
p1856
(lp1857
I544
aI144
aI608
aI272
asVprob
p1858
I97
ssV4
p1859
(dp1860
Vcoords
p1861
(lp1862
I704
aI144
aI768
aI256
asVprob
p1863
I87
sstp1864
a(I4
V2017:07:25 13:05:18
p1865
(dp1866
V1
p1867
(dp1868
Vcoords
p1869
(lp1870
I320
aI112
aI400
aI320
asVprob
p1871
I98
ssV3
p1872
(dp1873
Vcoords
p1874
(lp1875
I96
aI128
aI176
aI336
asVprob
p1876
I96
ssV2
p1877
(dp1878
Vcoords
p1879
(lp1880
I192
aI128
aI272
aI304
asVprob
p1881
I98
ssV7
p1882
(dp1883
Vcoords
p1884
(lp1885
I656
aI144
aI720
aI272
asVprob
p1886
I80
sstp1887
a(I2
V2017:07:25 13:05:30
p1888
(dp1889
V1
p1890
(dp1891
Vcoords
p1892
(lp1893
I160
aI96
aI288
aI400
asVprob
p1894
I98
ssV5
p1895
(dp1896
Vcoords
p1897
(lp1898
I592
aI144
aI656
aI272
asVprob
p1899
I87
sstp1900
a(I1
V2017:07:25 13:05:40
p1901
(dp1902
V2
p1903
(dp1904
Vcoords
p1905
(lp1906
I592
aI144
aI656
aI272
asVprob
p1907
I96
sstp1908
a(I1
V2017:07:25 13:05:44
p1909
(dp1910
V1
p1911
(dp1912
Vcoords
p1913
(lp1914
I592
aI144
aI656
aI272
asVprob
p1915
I97
sstp1916
a(I1
V2017:07:25 13:05:56
p1917
(dp1918
V3
p1919
(dp1920
Vcoords
p1921
(lp1922
I688
aI144
aI752
aI240
asVprob
p1923
I85
sstp1924
a(I1
V2017:07:25 13:06:08
p1925
(dp1926
V5
p1927
(dp1928
Vcoords
p1929
(lp1930
I688
aI144
aI752
aI240
asVprob
p1931
I84
sstp1932
a(I1
V2017:07:25 13:06:30
p1933
(dp1934
V1
p1935
(dp1936
Vcoords
p1937
(lp1938
I224
aI128
aI288
aI304
asVprob
p1939
I98
sstp1940
a(I1
V2017:07:25 13:07:11
p1941
(dp1942
V4
p1943
(dp1944
Vcoords
p1945
(lp1946
I576
aI144
aI640
aI272
asVprob
p1947
I83
sstp1948
a(I1
V2017:07:25 13:07:14
p1949
(dp1950
V3
p1951
(dp1952
Vcoords
p1953
(lp1954
I576
aI144
aI640
aI272
asVprob
p1955
I86
sstp1956
a(I1
V2017:07:25 13:07:23
p1957
(dp1958
V4
p1959
(dp1960
Vcoords
p1961
(lp1962
I576
aI144
aI640
aI272
asVprob
p1963
I83
sstp1964
a(I1
V2017:07:25 13:07:46
p1965
(dp1966
V2
p1967
(dp1968
Vcoords
p1969
(lp1970
I560
aI144
aI624
aI272
asVprob
p1971
I90
sstp1972
a(I1
V2017:07:25 13:07:58
p1973
(dp1974
V3
p1975
(dp1976
Vcoords
p1977
(lp1978
I688
aI144
aI752
aI240
asVprob
p1979
I92
sstp1980
a(I1
V2017:07:25 13:08:12
p1981
(dp1982
V3
p1983
(dp1984
Vcoords
p1985
(lp1986
I688
aI144
aI752
aI240
asVprob
p1987
I86
sstp1988
a(I1
V2017:07:25 13:09:00
p1989
(dp1990
V3
p1991
(dp1992
Vcoords
p1993
(lp1994
I320
aI144
aI400
aI320
asVprob
p1995
I93
sstp1996
a(I1
V2017:07:25 13:09:04
p1997
(dp1998
V1
p1999
(dp2000
Vcoords
p2001
(lp2002
I224
aI144
aI288
aI304
asVprob
p2003
I97
sstp2004
a(I1
V2017:07:25 13:09:30
p2005
(dp2006
V1
p2007
(dp2008
Vcoords
p2009
(lp2010
I208
aI0
aI416
aI544
asVprob
p2011
I97
sstp2012
a(I1
V2017:07:25 13:09:46
p2013
(dp2014
V1
p2015
(dp2016
Vcoords
p2017
(lp2018
I0
aI0
aI176
aI528
asVprob
p2019
I99
sstp2020
a(I1
V2017:07:25 13:09:55
p2021
(dp2022
V1
p2023
(dp2024
Vcoords
p2025
(lp2026
I0
aI16
aI144
aI416
asVprob
p2027
I98
sstp2028
a(I1
V2017:07:25 13:10:12
p2029
(dp2030
V1
p2031
(dp2032
Vcoords
p2033
(lp2034
I672
aI144
aI736
aI240
asVprob
p2035
I91
sstp2036
a(I2
V2017:07:25 13:10:18
p2037
(dp2038
V1
p2039
(dp2040
Vcoords
p2041
(lp2042
I288
aI144
aI368
aI336
asVprob
p2043
I98
ssV6
p2044
(dp2045
Vcoords
p2046
(lp2047
I272
aI144
aI336
aI336
asVprob
p2048
I85
sstp2049
a(I1
V2017:07:25 13:11:35
p2050
(dp2051
V2
p2052
(dp2053
Vcoords
p2054
(lp2055
I688
aI128
aI752
aI240
asVprob
p2056
I83
sstp2057
a(I2
V2017:07:25 13:11:41
p2058
(dp2059
V1
p2060
(dp2061
Vcoords
p2062
(lp2063
I32
aI64
aI224
aI480
asVprob
p2064
I98
ssV2
p2065
(dp2066
Vcoords
p2067
(lp2068
I688
aI144
aI752
aI256
asVprob
p2069
I84
sstp2070
a(I2
V2017:07:25 13:11:54
p2071
(dp2072
V1
p2073
(dp2074
Vcoords
p2075
(lp2076
I0
aI16
aI160
aI608
asVprob
p2077
I98
ssV3
p2078
(dp2079
Vcoords
p2080
(lp2081
I688
aI128
aI752
aI240
asVprob
p2082
I89
sstp2083
a(I1
V2017:07:25 13:12:06
p2084
(dp2085
V1
p2086
(dp2087
Vcoords
p2088
(lp2089
I80
aI32
aI256
aI464
asVprob
p2090
I98
sstp2091
a(I1
V2017:07:25 13:12:51
p2092
(dp2093
V1
p2094
(dp2095
Vcoords
p2096
(lp2097
I272
aI128
aI336
aI320
asVprob
p2098
I97
sstp2099
a(I1
V2017:07:25 13:13:20
p2100
(dp2101
V1
p2102
(dp2103
Vcoords
p2104
(lp2105
I576
aI144
aI640
aI288
asVprob
p2106
I98
sstp2107
a(I1
V2017:07:25 13:13:24
p2108
(dp2109
V2
p2110
(dp2111
Vcoords
p2112
(lp2113
I240
aI160
aI304
aI304
asVprob
p2114
I97
sstp2115
a(I3
V2017:07:25 13:13:38
p2116
(dp2117
V1
p2118
(dp2119
Vcoords
p2120
(lp2121
I16
aI0
aI240
aI464
asVprob
p2122
I97
ssV3
p2123
(dp2124
Vcoords
p2125
(lp2126
I592
aI112
aI656
aI272
asVprob
p2127
I85
ssV2
p2128
(dp2129
Vcoords
p2130
(lp2131
I608
aI128
aI672
aI288
asVprob
p2132
I94
sstp2133
a(I1
V2017:07:25 13:13:51
p2134
(dp2135
V2
p2136
(dp2137
Vcoords
p2138
(lp2139
I624
aI160
aI688
aI256
asVprob
p2140
I82
sstp2141
a(I3
V2017:07:25 13:14:19
p2142
(dp2143
V1
p2144
(dp2145
Vcoords
p2146
(lp2147
I400
aI128
aI480
aI320
asVprob
p2148
I97
ssV3
p2149
(dp2150
Vcoords
p2151
(lp2152
I512
aI128
aI576
aI336
asVprob
p2153
I96
ssV2
p2154
(dp2155
Vcoords
p2156
(lp2157
I576
aI112
aI640
aI320
asVprob
p2158
I96
sstp2159
a(I1
V2017:07:25 13:14:27
p2160
(dp2161
V1
p2162
(dp2163
Vcoords
p2164
(lp2165
I-16
aI144
aI192
aI608
asVprob
p2166
I82
sstp2167
a(I1
V2017:07:25 13:16:02
p2168
(dp2169
V1
p2170
(dp2171
Vcoords
p2172
(lp2173
I192
aI112
aI288
aI352
asVprob
p2174
I99
sstp2175
a(I1
V2017:07:25 13:16:06
p2176
(dp2177
V1
p2178
(dp2179
Vcoords
p2180
(lp2181
I240
aI144
aI304
aI288
asVprob
p2182
I98
sstp2183
a(I1
V2017:07:25 13:16:16
p2184
(dp2185
V1
p2186
(dp2187
Vcoords
p2188
(lp2189
I208
aI48
aI304
aI368
asVprob
p2190
I97
sstp2191
a(I2
V2017:07:25 13:17:54
p2192
(dp2193
V1
p2194
(dp2195
Vcoords
p2196
(lp2197
I144
aI112
aI224
aI320
asVprob
p2198
I98
ssV2
p2199
(dp2200
Vcoords
p2201
(lp2202
I272
aI144
aI336
aI320
asVprob
p2203
I90
sstp2204
a(I2
V2017:07:25 13:18:55
p2205
(dp2206
V1
p2207
(dp2208
Vcoords
p2209
(lp2210
I224
aI160
aI288
aI304
asVprob
p2211
I98
ssV2
p2212
(dp2213
Vcoords
p2214
(lp2215
I288
aI144
aI352
aI304
asVprob
p2216
I93
sstp2217
a(I2
V2017:07:25 13:19:30
p2218
(dp2219
V1
p2220
(dp2221
Vcoords
p2222
(lp2223
I304
aI144
aI368
aI320
asVprob
p2224
I96
ssV2
p2225
(dp2226
Vcoords
p2227
(lp2228
I240
aI144
aI304
aI304
asVprob
p2229
I95
sstp2230
a(I1
V2017:07:25 13:19:42
p2231
(dp2232
V1
p2233
(dp2234
Vcoords
p2235
(lp2236
I0
aI0
aI160
aI304
asVprob
p2237
I92
sstp2238
a(I2
V2017:07:25 13:19:52
p2239
(dp2240
V1
p2241
(dp2242
Vcoords
p2243
(lp2244
I192
aI128
aI256
aI320
asVprob
p2245
I98
ssV2
p2246
(dp2247
Vcoords
p2248
(lp2249
I288
aI112
aI384
aI320
asVprob
p2250
I94
sstp2251
a(I1
V2017:07:25 13:20:12
p2252
(dp2253
V1
p2254
(dp2255
Vcoords
p2256
(lp2257
I112
aI0
aI288
aI480
asVprob
p2258
I99
sstp2259
a(I1
V2017:07:25 13:21:38
p2260
(dp2261
V1
p2262
(dp2263
Vcoords
p2264
(lp2265
I192
aI144
aI272
aI320
asVprob
p2266
I98
sstp2267
a(I1
V2017:07:25 13:22:21
p2268
(dp2269
V1
p2270
(dp2271
Vcoords
p2272
(lp2273
I144
aI160
aI224
aI320
asVprob
p2274
I96
sstp2275
a(I1
V2017:07:25 13:22:26
p2276
(dp2277
V1
p2278
(dp2279
Vcoords
p2280
(lp2281
I64
aI128
aI144
aI352
asVprob
p2282
I99
sstp2283
a(I1
V2017:07:25 13:24:22
p2284
(dp2285
V1
p2286
(dp2287
Vcoords
p2288
(lp2289
I192
aI32
aI352
aI448
asVprob
p2290
I95
sstp2291
a(I1
V2017:07:25 13:24:32
p2292
(dp2293
V1
p2294
(dp2295
Vcoords
p2296
(lp2297
I288
aI160
aI352
aI304
asVprob
p2298
I97
sstp2299
a(I1
V2017:07:25 13:25:54
p2300
(dp2301
V1
p2302
(dp2303
Vcoords
p2304
(lp2305
I144
aI96
aI256
aI368
asVprob
p2306
I98
sstp2307
a(I1
V2017:07:25 13:27:31
p2308
(dp2309
V1
p2310
(dp2311
Vcoords
p2312
(lp2313
I224
aI128
aI288
aI288
asVprob
p2314
I95
sstp2315
a(I1
V2017:07:25 13:27:46
p2316
(dp2317
V1
p2318
(dp2319
Vcoords
p2320
(lp2321
I208
aI128
aI288
aI320
asVprob
p2322
I98
sstp2323
a(I3
V2017:07:25 13:28:00
p2324
(dp2325
V1
p2326
(dp2327
Vcoords
p2328
(lp2329
I256
aI144
aI352
aI432
asVprob
p2330
I98
ssV3
p2331
(dp2332
Vcoords
p2333
(lp2334
I48
aI176
aI160
aI432
asVprob
p2335
I97
ssV2
p2336
(dp2337
Vcoords
p2338
(lp2339
I160
aI64
aI256
aI400
asVprob
p2340
I98
sstp2341
a(I2
V2017:07:25 13:28:12
p2342
(dp2343
V1
p2344
(dp2345
Vcoords
p2346
(lp2347
I96
aI-16
aI336
aI496
asVprob
p2348
I99
ssV2
p2349
(dp2350
Vcoords
p2351
(lp2352
I0
aI0
aI96
aI432
asVprob
p2353
I94
sstp2354
a(I1
V2017:07:25 13:28:48
p2355
(dp2356
V1
p2357
(dp2358
Vcoords
p2359
(lp2360
I192
aI144
aI272
aI336
asVprob
p2361
I91
sstp2362
a(I1
V2017:07:25 13:29:13
p2363
(dp2364
V1
p2365
(dp2366
Vcoords
p2367
(lp2368
I192
aI48
aI336
aI416
asVprob
p2369
I97
sstp2370
a(I1
V2017:07:25 13:30:05
p2371
(dp2372
V1
p2373
(dp2374
Vcoords
p2375
(lp2376
I320
aI128
aI384
aI320
asVprob
p2377
I98
sstp2378
a(I1
V2017:07:25 13:30:19
p2379
(dp2380
V1
p2381
(dp2382
Vcoords
p2383
(lp2384
I0
aI128
aI96
aI416
asVprob
p2385
I89
sstp2386
a(I1
V2017:07:25 13:30:48
p2387
(dp2388
V1
p2389
(dp2390
Vcoords
p2391
(lp2392
I0
aI32
aI144
aI496
asVprob
p2393
I98
sstp2394
a(I1
V2017:07:25 13:32:28
p2395
(dp2396
V1
p2397
(dp2398
Vcoords
p2399
(lp2400
I128
aI144
aI192
aI320
asVprob
p2401
I96
sstp2402
a(I1
V2017:07:25 13:34:14
p2403
(dp2404
V1
p2405
(dp2406
Vcoords
p2407
(lp2408
I224
aI128
aI304
aI336
asVprob
p2409
I95
sstp2410
a(I1
V2017:07:25 13:34:25
p2411
(dp2412
V1
p2413
(dp2414
Vcoords
p2415
(lp2416
I208
aI144
aI272
aI288
asVprob
p2417
I97
sstp2418
a(I1
V2017:07:25 13:35:48
p2419
(dp2420
V1
p2421
(dp2422
Vcoords
p2423
(lp2424
I0
aI112
aI80
aI352
asVprob
p2425
I86
sstp2426
a(I1
V2017:07:25 13:36:02
p2427
(dp2428
V1
p2429
(dp2430
Vcoords
p2431
(lp2432
I144
aI128
aI208
aI320
asVprob
p2433
I95
sstp2434
a(I1
V2017:07:25 13:36:30
p2435
(dp2436
V1
p2437
(dp2438
Vcoords
p2439
(lp2440
I736
aI128
aI800
aI272
asVprob
p2441
I88
sstp2442
a(I1
V2017:07:25 13:36:50
p2443
(dp2444
V1
p2445
(dp2446
Vcoords
p2447
(lp2448
I624
aI128
aI688
aI288
asVprob
p2449
I95
sstp2450
a(I1
V2017:07:25 13:36:54
p2451
(dp2452
V1
p2453
(dp2454
Vcoords
p2455
(lp2456
I704
aI128
aI768
aI272
asVprob
p2457
I97
sstp2458
a(I1
V2017:07:25 13:37:36
p2459
(dp2460
V1
p2461
(dp2462
Vcoords
p2463
(lp2464
I304
aI144
aI368
aI288
asVprob
p2465
I97
sstp2466
a(I1
V2017:07:25 13:37:41
p2467
(dp2468
V1
p2469
(dp2470
Vcoords
p2471
(lp2472
I384
aI144
aI448
aI320
asVprob
p2473
I92
sstp2474
a(I1
V2017:07:25 13:38:16
p2475
(dp2476
V1
p2477
(dp2478
Vcoords
p2479
(lp2480
I16
aI-16
aI192
aI464
asVprob
p2481
I99
sstp2482
a(I3
V2017:07:25 13:39:29
p2483
(dp2484
V1
p2485
(dp2486
Vcoords
p2487
(lp2488
I48
aI0
aI272
aI512
asVprob
p2489
I99
ssV3
p2490
(dp2491
Vcoords
p2492
(lp2493
I336
aI128
aI400
aI320
asVprob
p2494
I89
ssV2
p2495
(dp2496
Vcoords
p2497
(lp2498
I272
aI128
aI336
aI352
asVprob
p2499
I98
sstp2500
a(I1
V2017:07:25 13:39:39
p2501
(dp2502
V1
p2503
(dp2504
Vcoords
p2505
(lp2506
I208
aI144
aI288
aI304
asVprob
p2507
I98
sstp2508
a(I1
V2017:07:25 13:40:11
p2509
(dp2510
V1
p2511
(dp2512
Vcoords
p2513
(lp2514
I176
aI128
aI240
aI320
asVprob
p2515
I97
sstp2516
a(I3
V2017:07:25 13:41:24
p2517
(dp2518
V1
p2519
(dp2520
Vcoords
p2521
(lp2522
I0
aI16
aI128
aI480
asVprob
p2523
I99
ssV3
p2524
(dp2525
Vcoords
p2526
(lp2527
I240
aI80
aI336
aI368
asVprob
p2528
I92
ssV2
p2529
(dp2530
Vcoords
p2531
(lp2532
I112
aI0
aI272
aI464
asVprob
p2533
I97
sstp2534
a(I1
V2017:07:25 13:41:53
p2535
(dp2536
V1
p2537
(dp2538
Vcoords
p2539
(lp2540
I272
aI144
aI336
aI304
asVprob
p2541
I98
sstp2542
a(I1
V2017:07:25 13:43:32
p2543
(dp2544
V1
p2545
(dp2546
Vcoords
p2547
(lp2548
I272
aI144
aI336
aI304
asVprob
p2549
I94
sstp2550
a(I2
V2017:07:25 13:45:06
p2551
(dp2552
V1
p2553
(dp2554
Vcoords
p2555
(lp2556
I320
aI112
aI400
aI336
asVprob
p2557
I99
ssV2
p2558
(dp2559
Vcoords
p2560
(lp2561
I240
aI144
aI304
aI288
asVprob
p2562
I96
sstp2563
a(I2
V2017:07:25 13:45:42
p2564
(dp2565
V1
p2566
(dp2567
Vcoords
p2568
(lp2569
I144
aI128
aI240
aI352
asVprob
p2570
I98
ssV2
p2571
(dp2572
Vcoords
p2573
(lp2574
I240
aI96
aI320
aI336
asVprob
p2575
I94
sstp2576
a(I1
V2017:07:25 13:46:00
p2577
(dp2578
V1
p2579
(dp2580
Vcoords
p2581
(lp2582
I224
aI160
aI288
aI288
asVprob
p2583
I88
sstp2584
a(I2
V2017:07:25 13:47:54
p2585
(dp2586
V1
p2587
(dp2588
Vcoords
p2589
(lp2590
I192
aI144
aI256
aI304
asVprob
p2591
I97
ssV2
p2592
(dp2593
Vcoords
p2594
(lp2595
I256
aI144
aI320
aI304
asVprob
p2596
I97
sstp2597
a(I1
V2017:07:25 13:48:47
p2598
(dp2599
V1
p2600
(dp2601
Vcoords
p2602
(lp2603
I528
aI-16
aI768
aI528
asVprob
p2604
I98
sstp2605
a(I1
V2017:07:25 13:49:16
p2606
(dp2607
V1
p2608
(dp2609
Vcoords
p2610
(lp2611
I256
aI144
aI320
aI320
asVprob
p2612
I98
sstp2613
a(I2
V2017:07:25 13:50:38
p2614
(dp2615
V1
p2616
(dp2617
Vcoords
p2618
(lp2619
I160
aI112
aI240
aI368
asVprob
p2620
I99
ssV2
p2621
(dp2622
Vcoords
p2623
(lp2624
I304
aI128
aI368
aI320
asVprob
p2625
I98
sstp2626
a(I1
V2017:07:25 13:51:09
p2627
(dp2628
V1
p2629
(dp2630
Vcoords
p2631
(lp2632
I96
aI128
aI192
aI368
asVprob
p2633
I99
sstp2634
a(I2
V2017:07:25 13:53:44
p2635
(dp2636
V1
p2637
(dp2638
Vcoords
p2639
(lp2640
I16
aI32
aI160
aI432
asVprob
p2641
I98
ssV2
p2642
(dp2643
Vcoords
p2644
(lp2645
I192
aI64
aI368
aI432
asVprob
p2646
I97
sstp2647
a(I1
V2017:07:25 13:55:42
p2648
(dp2649
V1
p2650
(dp2651
Vcoords
p2652
(lp2653
I176
aI48
aI320
aI432
asVprob
p2654
I98
sstp2655
a(I2
V2017:07:25 13:55:48
p2656
(dp2657
V1
p2658
(dp2659
Vcoords
p2660
(lp2661
I192
aI144
aI288
aI336
asVprob
p2662
I97
ssV2
p2663
(dp2664
Vcoords
p2665
(lp2666
I304
aI144
aI368
aI304
asVprob
p2667
I96
sstp2668
a(I1
V2017:07:25 13:56:53
p2669
(dp2670
V1
p2671
(dp2672
Vcoords
p2673
(lp2674
I144
aI96
aI240
aI352
asVprob
p2675
I97
sstp2676
a(I2
V2017:07:25 13:57:22
p2677
(dp2678
V1
p2679
(dp2680
Vcoords
p2681
(lp2682
I0
aI64
aI144
aI416
asVprob
p2683
I98
ssV2
p2684
(dp2685
Vcoords
p2686
(lp2687
I144
aI64
aI256
aI432
asVprob
p2688
I95
sstp2689
a(I1
V2017:07:25 13:57:50
p2690
(dp2691
V1
p2692
(dp2693
Vcoords
p2694
(lp2695
I224
aI112
aI288
aI304
asVprob
p2696
I97
sstp2697
a(I1
V2017:07:25 13:58:26
p2698
(dp2699
V1
p2700
(dp2701
Vcoords
p2702
(lp2703
I272
aI144
aI352
aI320
asVprob
p2704
I98
sstp2705
a(I1
V2017:07:25 13:59:17
p2706
(dp2707
V1
p2708
(dp2709
Vcoords
p2710
(lp2711
I272
aI144
aI336
aI304
asVprob
p2712
I98
sstp2713
a(I1
V2017:07:25 14:00:04
p2714
(dp2715
V1
p2716
(dp2717
Vcoords
p2718
(lp2719
I240
aI128
aI320
aI320
asVprob
p2720
I97
sstp2721
a(I1
V2017:07:25 14:02:56
p2722
(dp2723
V1
p2724
(dp2725
Vcoords
p2726
(lp2727
I0
aI-16
aI224
aI448
asVprob
p2728
I98
sstp2729
a(I1
V2017:07:25 14:03:12
p2730
(dp2731
V1
p2732
(dp2733
Vcoords
p2734
(lp2735
I80
aI16
aI224
aI432
asVprob
p2736
I97
sstp2737
a(I2
V2017:07:25 14:03:21
p2738
(dp2739
V1
p2740
(dp2741
Vcoords
p2742
(lp2743
I352
aI128
aI416
aI304
asVprob
p2744
I97
ssV2
p2745
(dp2746
Vcoords
p2747
(lp2748
I160
aI80
aI256
aI384
asVprob
p2749
I95
sstp2750
a(I1
V2017:07:25 14:04:09
p2751
(dp2752
V1
p2753
(dp2754
Vcoords
p2755
(lp2756
I320
aI160
aI384
aI304
asVprob
p2757
I84
sstp2758
a(I1
V2017:07:25 14:05:02
p2759
(dp2760
V1
p2761
(dp2762
Vcoords
p2763
(lp2764
I640
aI144
aI704
aI288
asVprob
p2765
I87
sstp2766
a(I1
V2017:07:25 14:05:11
p2767
(dp2768
V1
p2769
(dp2770
Vcoords
p2771
(lp2772
I720
aI48
aI800
aI368
asVprob
p2773
I90
sstp2774
a(I2
V2017:07:25 14:05:29
p2775
(dp2776
V1
p2777
(dp2778
Vcoords
p2779
(lp2780
I288
aI128
aI384
aI336
asVprob
p2781
I99
ssV2
p2782
(dp2783
Vcoords
p2784
(lp2785
I176
aI128
aI272
aI352
asVprob
p2786
I98
sstp2787
a(I1
V2017:07:25 14:05:37
p2788
(dp2789
V1
p2790
(dp2791
Vcoords
p2792
(lp2793
I176
aI112
aI256
aI320
asVprob
p2794
I99
sstp2795
a(I1
V2017:07:25 14:05:56
p2796
(dp2797
V1
p2798
(dp2799
Vcoords
p2800
(lp2801
I224
aI160
aI288
aI304
asVprob
p2802
I97
sstp2803
a(I1
V2017:07:25 14:06:07
p2804
(dp2805
V1
p2806
(dp2807
Vcoords
p2808
(lp2809
I224
aI64
aI352
aI384
asVprob
p2810
I99
sstp2811
a(I1
V2017:07:25 14:06:54
p2812
(dp2813
V1
p2814
(dp2815
Vcoords
p2816
(lp2817
I0
aI208
aI64
aI416
asVprob
p2818
I87
sstp2819
a(I1
V2017:07:25 14:07:50
p2820
(dp2821
V1
p2822
(dp2823
Vcoords
p2824
(lp2825
I16
aI0
aI272
aI544
asVprob
p2826
I98
sstp2827
a(I1
V2017:07:25 14:08:21
p2828
(dp2829
V1
p2830
(dp2831
Vcoords
p2832
(lp2833
I272
aI144
aI336
aI288
asVprob
p2834
I94
sstp2835
a(I1
V2017:07:25 14:08:35
p2836
(dp2837
V1
p2838
(dp2839
Vcoords
p2840
(lp2841
I208
aI144
aI272
aI320
asVprob
p2842
I98
sstp2843
a(I1
V2017:07:25 14:08:48
p2844
(dp2845
V1
p2846
(dp2847
Vcoords
p2848
(lp2849
I288
aI128
aI352
aI320
asVprob
p2850
I95
sstp2851
a(I2
V2017:07:25 14:09:20
p2852
(dp2853
V1
p2854
(dp2855
Vcoords
p2856
(lp2857
I288
aI144
aI352
aI288
asVprob
p2858
I98
ssV2
p2859
(dp2860
Vcoords
p2861
(lp2862
I496
aI128
aI560
aI304
asVprob
p2863
I95
sstp2864
a(I2
V2017:07:25 14:09:26
p2865
(dp2866
V1
p2867
(dp2868
Vcoords
p2869
(lp2870
I288
aI128
aI416
aI320
asVprob
p2871
I98
ssV2
p2872
(dp2873
Vcoords
p2874
(lp2875
I432
aI128
aI496
aI304
asVprob
p2876
I97
sstp2877
a(I1
V2017:07:25 14:10:18
p2878
(dp2879
V1
p2880
(dp2881
Vcoords
p2882
(lp2883
I112
aI128
aI192
aI352
asVprob
p2884
I98
sstp2885
a(I1
V2017:07:25 14:10:35
p2886
(dp2887
V1
p2888
(dp2889
Vcoords
p2890
(lp2891
I368
aI144
aI432
aI304
asVprob
p2892
I97
sstp2893
a(I1
V2017:07:25 14:10:38
p2894
(dp2895
V3
p2896
(dp2897
Vcoords
p2898
(lp2899
I560
aI144
aI624
aI304
asVprob
p2900
I90
sstp2901
a(I1
V2017:07:25 14:10:50
p2902
(dp2903
V1
p2904
(dp2905
Vcoords
p2906
(lp2907
I720
aI144
aI784
aI272
asVprob
p2908
I87
sstp2909
a(I1
V2017:07:25 14:11:03
p2910
(dp2911
V2
p2912
(dp2913
Vcoords
p2914
(lp2915
I656
aI144
aI736
aI272
asVprob
p2916
I91
sstp2917
a(I1
V2017:07:25 14:11:08
p2918
(dp2919
V1
p2920
(dp2921
Vcoords
p2922
(lp2923
I-16
aI112
aI144
aI560
asVprob
p2924
I93
sstp2925
a(I1
V2017:07:25 14:11:18
p2926
(dp2927
V1
p2928
(dp2929
Vcoords
p2930
(lp2931
I304
aI112
aI368
aI320
asVprob
p2932
I97
sstp2933
a(I2
V2017:07:25 14:11:40
p2934
(dp2935
V1
p2936
(dp2937
Vcoords
p2938
(lp2939
I208
aI112
aI288
aI320
asVprob
p2940
I98
ssV2
p2941
(dp2942
Vcoords
p2943
(lp2944
I128
aI128
aI224
aI336
asVprob
p2945
I96
sstp2946
a(I2
V2017:07:25 14:11:53
p2947
(dp2948
V1
p2949
(dp2950
Vcoords
p2951
(lp2952
I672
aI128
aI752
aI304
asVprob
p2953
I98
ssV2
p2954
(dp2955
Vcoords
p2956
(lp2957
I512
aI112
aI592
aI320
asVprob
p2958
I96
sstp2959
a(I1
V2017:07:25 14:12:46
p2960
(dp2961
V1
p2962
(dp2963
Vcoords
p2964
(lp2965
I0
aI-16
aI144
aI528
asVprob
p2966
I99
sstp2967
a(I2
V2017:07:25 14:14:44
p2968
(dp2969
V1
p2970
(dp2971
Vcoords
p2972
(lp2973
I0
aI96
aI96
aI400
asVprob
p2974
I95
ssV2
p2975
(dp2976
Vcoords
p2977
(lp2978
I560
aI-16
aI832
aI608
asVprob
p2979
I82
sstp2980
a(I2
V2017:07:25 14:15:10
p2981
(dp2982
V1
p2983
(dp2984
Vcoords
p2985
(lp2986
I464
aI144
aI528
aI336
asVprob
p2987
I96
ssV2
p2988
(dp2989
Vcoords
p2990
(lp2991
I192
aI144
aI256
aI320
asVprob
p2992
I96
sstp2993
a(I1
V2017:07:25 14:15:28
p2994
(dp2995
V2
p2996
(dp2997
Vcoords
p2998
(lp2999
I0
aI16
aI128
aI464
asVprob
p3000
I92
sstp3001
a(I1
V2017:07:25 14:17:17
p3002
(dp3003
V1
p3004
(dp3005
Vcoords
p3006
(lp3007
I432
aI160
aI496
aI288
asVprob
p3008
I95
sstp3009
a(I1
V2017:07:25 14:18:04
p3010
(dp3011
V1
p3012
(dp3013
Vcoords
p3014
(lp3015
I-16
aI0
aI208
aI480
asVprob
p3016
I99
sstp3017
a.