(lp0
(I1
V2017:08:06 10:51:38
p1
tp2
a(I1
V2017:08:06 10:52:26
p3
tp4
a(I1
V2017:08:06 10:52:46
p5
tp6
a(I1
V2017:08:06 10:53:12
p7
tp8
a(I1
V2017:08:06 10:53:28
p9
tp10
a(I2
V2017:08:06 10:53:42
p11
tp12
a(I1
V2017:08:06 10:53:48
p13
tp14
a(I2
V2017:08:06 10:53:58
p15
tp16
a(I3
V2017:08:06 10:56:40
p17
tp18
a(I1
V2017:08:06 10:56:56
p19
tp20
a(I1
V2017:08:06 10:57:40
p21
tp22
a(I1
V2017:08:06 10:57:44
p23
tp24
a(I1
V2017:08:06 10:57:48
p25
tp26
a(I2
V2017:08:06 10:57:58
p27
tp28
a(I1
V2017:08:06 10:58:08
p29
tp30
a(I1
V2017:08:06 11:02:36
p31
tp32
a(I3
V2017:08:06 11:05:16
p33
tp34
a(I2
V2017:08:06 11:07:06
p35
tp36
a(I1
V2017:08:06 11:08:12
p37
tp38
a(I1
V2017:08:06 11:08:30
p39
tp40
a(I1
V2017:08:06 11:10:20
p41
tp42
a(I1
V2017:08:06 11:10:24
p43
tp44
a(I1
V2017:08:06 11:10:30
p45
tp46
a(I1
V2017:08:06 11:10:40
p47
tp48
a(I2
V2017:08:06 11:11:52
p49
tp50
a(I1
V2017:08:06 11:14:42
p51
tp52
a(I1
V2017:08:06 11:14:46
p53
tp54
a(I1
V2017:08:06 11:20:02
p55
tp56
a(I2
V2017:08:06 11:20:58
p57
tp58
a(I2
V2017:08:06 11:22:28
p59
tp60
a(I1
V2017:08:06 11:22:40
p61
tp62
a(I2
V2017:08:06 11:23:20
p63
tp64
a(I1
V2017:08:06 11:23:48
p65
tp66
a(I2
V2017:08:06 11:24:04
p67
tp68
a(I1
V2017:08:06 11:31:16
p69
tp70
a(I1
V2017:08:06 11:32:06
p71
tp72
a(I1
V2017:08:06 11:32:36
p73
tp74
a(I1
V2017:08:06 11:33:06
p75
tp76
a(I1
V2017:08:06 11:35:20
p77
tp78
a(I1
V2017:08:06 11:35:24
p79
tp80
a(I3
V2017:08:06 11:43:42
p81
tp82
a(I1
V2017:08:06 11:49:38
p83
tp84
a(I2
V2017:08:06 11:49:42
p85
tp86
a(I2
V2017:08:06 11:50:10
p87
tp88
a(I1
V2017:08:06 11:52:16
p89
tp90
a(I1
V2017:08:06 11:52:28
p91
tp92
a(I1
V2017:08:06 11:55:00
p93
tp94
a(I1
V2017:08:06 11:55:18
p95
tp96
a(I1
V2017:08:06 11:55:46
p97
tp98
a(I1
V2017:08:06 12:02:46
p99
tp100
a(I1
V2017:08:06 12:07:38
p101
tp102
a(I1
V2017:08:06 12:07:42
p103
tp104
a(I2
V2017:08:06 12:07:50
p105
tp106
a(I1
V2017:08:06 12:09:20
p107
tp108
a(I2
V2017:08:06 12:09:30
p109
tp110
a(I1
V2017:08:06 12:09:36
p111
tp112
a(I2
V2017:08:06 12:11:46
p113
tp114
a(I1
V2017:08:06 12:11:50
p115
tp116
a(I1
V2017:08:06 12:15:48
p117
tp118
a(I1
V2017:08:06 12:17:30
p119
tp120
a(I2
V2017:08:06 12:18:50
p121
tp122
a(I1
V2017:08:06 12:18:54
p123
tp124
a(I2
V2017:08:06 12:22:46
p125
tp126
a(I1
V2017:08:06 12:27:18
p127
tp128
a(I1
V2017:08:06 12:32:02
p129
tp130
a(I1
V2017:08:06 12:32:20
p131
tp132
a(I1
V2017:08:06 12:32:24
p133
tp134
a(I2
V2017:08:06 12:36:04
p135
tp136
a(I1
V2017:08:06 12:39:40
p137
tp138
a(I1
V2017:08:06 12:39:48
p139
tp140
a(I2
V2017:08:06 12:39:58
p141
tp142
a(I1
V2017:08:06 12:40:02
p143
tp144
a(I2
V2017:08:06 12:40:06
p145
tp146
a(I2
V2017:08:06 12:41:58
p147
tp148
a(I2
V2017:08:06 12:44:04
p149
tp150
a(I1
V2017:08:06 12:44:20
p151
tp152
a(I1
V2017:08:06 12:47:54
p153
tp154
a(I2
V2017:08:06 12:48:30
p155
tp156
a(I1
V2017:08:06 12:48:38
p157
tp158
a(I1
V2017:08:06 12:48:58
p159
tp160
a(I1
V2017:08:06 12:56:30
p161
tp162
a(I2
V2017:08:06 12:59:54
p163
tp164
a(I2
V2017:08:06 13:00:08
p165
tp166
a(I2
V2017:08:06 13:00:14
p167
tp168
a(I2
V2017:08:06 13:00:44
p169
tp170
a(I1
V2017:08:06 13:04:02
p171
tp172
a(I2
V2017:08:06 13:05:02
p173
tp174
a(I1
V2017:08:06 13:05:08
p175
tp176
a(I2
V2017:08:06 13:05:38
p177
tp178
a(I2
V2017:08:06 13:05:44
p179
tp180
a(I1
V2017:08:06 13:08:52
p181
tp182
a(I1
V2017:08:06 13:08:58
p183
tp184
a(I1
V2017:08:06 13:12:24
p185
tp186
a(I1
V2017:08:06 13:14:00
p187
tp188
a(I2
V2017:08:06 13:14:08
p189
tp190
a(I1
V2017:08:06 13:19:00
p191
tp192
a(I1
V2017:08:06 13:19:04
p193
tp194
a(I1
V2017:08:06 13:19:20
p195
tp196
a(I1
V2017:08:06 13:19:34
p197
tp198
a(I2
V2017:08:06 13:20:20
p199
tp200
a(I1
V2017:08:06 13:21:12
p201
tp202
a(I1
V2017:08:06 13:24:54
p203
tp204
a(I1
V2017:08:06 13:25:48
p205
tp206
a(I1
V2017:08:06 13:28:02
p207
tp208
a(I1
V2017:08:06 13:28:12
p209
tp210
a(I1
V2017:08:06 13:29:52
p211
tp212
a(I1
V2017:08:06 13:32:28
p213
tp214
a(I1
V2017:08:06 13:33:24
p215
tp216
a(I2
V2017:08:06 13:36:46
p217
tp218
a(I1
V2017:08:06 13:37:30
p219
tp220
a(I1
V2017:08:06 13:38:58
p221
tp222
a(I1
V2017:08:06 13:39:08
p223
tp224
a(I1
V2017:08:06 13:39:14
p225
tp226
a(I1
V2017:08:06 13:39:36
p227
tp228
a(I1
V2017:08:06 13:39:44
p229
tp230
a(I2
V2017:08:06 13:40:32
p231
tp232
a(I2
V2017:08:06 13:41:00
p233
tp234
a(I1
V2017:08:06 13:41:04
p235
tp236
a(I1
V2017:08:06 13:41:08
p237
tp238
a(I3
V2017:08:06 13:41:40
p239
tp240
a(I2
V2017:08:06 13:42:48
p241
tp242
a(I2
V2017:08:06 13:43:02
p243
tp244
a(I3
V2017:08:06 13:43:56
p245
tp246
a(I1
V2017:08:06 13:53:04
p247
tp248
a(I1
V2017:08:06 13:54:14
p249
tp250
a(I1
V2017:08:06 13:54:18
p251
tp252
a(I1
V2017:08:06 13:54:26
p253
tp254
a(I3
V2017:08:06 13:54:32
p255
tp256
a(I1
V2017:08:06 13:54:46
p257
tp258
a(I2
V2017:08:06 13:57:28
p259
tp260
a(I1
V2017:08:06 13:59:48
p261
tp262
a(I1
V2017:08:06 13:59:52
p263
tp264
a(I2
V2017:08:06 14:00:14
p265
tp266
a(I1
V2017:08:06 14:00:26
p267
tp268
a(I1
V2017:08:06 14:03:40
p269
tp270
a(I3
V2017:08:06 14:07:05
p271
tp272
a(I1
V2017:08:06 14:07:16
p273
tp274
a(I1
V2017:08:06 14:07:28
p275
tp276
a(I1
V2017:08:06 14:07:38
p277
tp278
a(I1
V2017:08:06 14:07:44
p279
tp280
a(I2
V2017:08:06 14:07:50
p281
tp282
a(I1
V2017:08:06 14:10:08
p283
tp284
a(I2
V2017:08:06 14:10:12
p285
tp286
a(I2
V2017:08:06 14:10:56
p287
tp288
a(I3
V2017:08:06 14:11:36
p289
tp290
a(I1
V2017:08:06 14:11:52
p291
tp292
a(I1
V2017:08:06 14:16:32
p293
tp294
a(I1
V2017:08:06 14:17:02
p295
tp296
a(I1
V2017:08:06 14:17:06
p297
tp298
a(I1
V2017:08:06 14:17:26
p299
tp300
a(I1
V2017:08:06 14:20:08
p301
tp302
a(I1
V2017:08:06 14:20:40
p303
tp304
a(I1
V2017:08:06 14:20:46
p305
tp306
a(I1
V2017:08:06 14:22:52
p307
tp308
a(I1
V2017:08:06 14:23:14
p309
tp310
a(I1
V2017:08:06 14:23:22
p311
tp312
a(I1
V2017:08:06 14:24:24
p313
tp314
a(I1
V2017:08:06 14:24:32
p315
tp316
a(I1
V2017:08:06 14:25:14
p317
tp318
a(I1
V2017:08:06 14:25:20
p319
tp320
a(I2
V2017:08:06 14:25:28
p321
tp322
a(I1
V2017:08:06 14:25:38
p323
tp324
a(I2
V2017:08:06 14:25:48
p325
tp326
a(I1
V2017:08:06 14:26:40
p327
tp328
a(I1
V2017:08:06 14:26:48
p329
tp330
a(I1
V2017:08:06 14:27:12
p331
tp332
a(I1
V2017:08:06 14:27:30
p333
tp334
a(I2
V2017:08:06 14:27:46
p335
tp336
a(I1
V2017:08:06 14:28:46
p337
tp338
a(I3
V2017:08:06 14:28:52
p339
tp340
a(I1
V2017:08:06 14:29:02
p341
tp342
a(I1
V2017:08:06 14:31:28
p343
tp344
a(I1
V2017:08:06 14:31:34
p345
tp346
a(I2
V2017:08:06 14:32:08
p347
tp348
a(I1
V2017:08:06 14:32:22
p349
tp350
a(I1
V2017:08:06 14:32:34
p351
tp352
a(I1
V2017:08:06 14:32:38
p353
tp354
a(I1
V2017:08:06 14:32:44
p355
tp356
a(I3
V2017:08:06 14:33:12
p357
tp358
a(I3
V2017:08:06 14:44:10
p359
tp360
a(I1
V2017:08:06 14:51:36
p361
tp362
a(I2
V2017:08:06 14:53:00
p363
tp364
a(I1
V2017:08:06 14:53:40
p365
tp366
a(I1
V2017:08:06 14:57:36
p367
tp368
a(I1
V2017:08:06 14:57:58
p369
tp370
a(I3
V2017:08:06 15:01:08
p371
tp372
a(I2
V2017:08:06 15:01:22
p373
tp374
a(I3
V2017:08:06 15:01:34
p375
tp376
a(I2
V2017:08:06 15:01:42
p377
tp378
a(I2
V2017:08:06 15:01:54
p379
tp380
a(I1
V2017:08:06 15:02:12
p381
tp382
a(I1
V2017:08:06 15:02:24
p383
tp384
a(I1
V2017:08:06 15:02:44
p385
tp386
a(I1
V2017:08:06 15:02:54
p387
tp388
a(I1
V2017:08:06 15:03:14
p389
tp390
a(I1
V2017:08:06 15:03:22
p391
tp392
a(I1
V2017:08:06 15:03:46
p393
tp394
a(I1
V2017:08:06 15:03:54
p395
tp396
a(I3
V2017:08:06 15:04:10
p397
tp398
a(I5
V2017:08:06 15:05:18
p399
tp400
a(I1
V2017:08:06 15:05:56
p401
tp402
a(I1
V2017:08:06 15:06:54
p403
tp404
a(I1
V2017:08:06 15:07:00
p405
tp406
a(I3
V2017:08:06 15:14:36
p407
tp408
a(I3
V2017:08:06 15:14:56
p409
tp410
a(I1
V2017:08:06 15:15:20
p411
tp412
a(I1
V2017:08:06 15:17:08
p413
tp414
a(I1
V2017:08:06 15:17:38
p415
tp416
a(I2
V2017:08:06 15:18:44
p417
tp418
a(I1
V2017:08:06 15:19:10
p419
tp420
a(I3
V2017:08:06 15:19:30
p421
tp422
a(I1
V2017:08:06 15:19:36
p423
tp424
a(I1
V2017:08:06 15:19:46
p425
tp426
a(I1
V2017:08:06 15:23:26
p427
tp428
a(I2
V2017:08:06 15:23:36
p429
tp430
a(I1
V2017:08:06 15:29:08
p431
tp432
a(I1
V2017:08:06 15:30:08
p433
tp434
a(I1
V2017:08:06 15:31:58
p435
tp436
a(I2
V2017:08:06 15:33:00
p437
tp438
a(I2
V2017:08:06 15:33:12
p439
tp440
a(I1
V2017:08:06 15:33:20
p441
tp442
a(I1
V2017:08:06 15:34:54
p443
tp444
a(I1
V2017:08:06 15:36:34
p445
tp446
a(I2
V2017:08:06 15:36:46
p447
tp448
a(I1
V2017:08:06 15:37:08
p449
tp450
a(I2
V2017:08:06 15:37:12
p451
tp452
a(I2
V2017:08:06 15:37:20
p453
tp454
a(I3
V2017:08:06 15:37:36
p455
tp456
a(I1
V2017:08:06 15:38:18
p457
tp458
a(I1
V2017:08:06 15:38:28
p459
tp460
a(I1
V2017:08:06 15:39:30
p461
tp462
a(I2
V2017:08:06 15:39:52
p463
tp464
a(I1
V2017:08:06 15:40:44
p465
tp466
a(I2
V2017:08:06 15:41:52
p467
tp468
a(I1
V2017:08:06 15:42:18
p469
tp470
a(I1
V2017:08:06 15:42:36
p471
tp472
a(I1
V2017:08:06 15:42:40
p473
tp474
a(I2
V2017:08:06 15:43:02
p475
tp476
a(I1
V2017:08:06 15:43:50
p477
tp478
a(I1
V2017:08:06 15:44:06
p479
tp480
a(I1
V2017:08:06 15:47:06
p481
tp482
a(I2
V2017:08:06 15:49:32
p483
tp484
a(I1
V2017:08:06 15:49:48
p485
tp486
a(I1
V2017:08:06 15:50:06
p487
tp488
a(I2
V2017:08:06 15:50:20
p489
tp490
a(I1
V2017:08:06 15:54:46
p491
tp492
a(I1
V2017:08:06 15:55:44
p493
tp494
a(I1
V2017:08:06 15:56:02
p495
tp496
a(I1
V2017:08:06 15:56:22
p497
tp498
a(I2
V2017:08:06 16:07:02
p499
tp500
a(I1
V2017:08:06 16:07:08
p501
tp502
a(I1
V2017:08:06 16:09:32
p503
tp504
a(I1
V2017:08:06 16:21:48
p505
tp506
a(I1
V2017:08:06 16:27:56
p507
tp508
a(I2
V2017:08:06 16:35:20
p509
tp510
a(I1
V2017:08:06 16:37:08
p511
tp512
a(I1
V2017:08:06 16:37:34
p513
tp514
a(I1
V2017:08:06 16:37:42
p515
tp516
a(I1
V2017:08:06 16:39:40
p517
tp518
a(I1
V2017:08:06 16:39:48
p519
tp520
a(I1
V2017:08:06 16:40:12
p521
tp522
a(I2
V2017:08:06 16:40:44
p523
tp524
a(I1
V2017:08:06 16:41:36
p525
tp526
a(I1
V2017:08:06 16:41:44
p527
tp528
a(I1
V2017:08:06 16:41:48
p529
tp530
a(I1
V2017:08:06 16:42:38
p531
tp532
a(I1
V2017:08:06 16:43:56
p533
tp534
a(I2
V2017:08:06 16:45:00
p535
tp536
a(I1
V2017:08:06 16:46:04
p537
tp538
a(I3
V2017:08:06 16:46:28
p539
tp540
a(I1
V2017:08:06 16:48:02
p541
tp542
a(I1
V2017:08:06 16:48:06
p543
tp544
a(I3
V2017:08:06 16:48:14
p545
tp546
a(I2
V2017:08:06 16:55:10
p547
tp548
a(I1
V2017:08:06 16:55:14
p549
tp550
a(I3
V2017:08:06 16:56:28
p551
tp552
a(I1
V2017:08:06 16:56:34
p553
tp554
a(I1
V2017:08:06 17:00:10
p555
tp556
a(I2
V2017:08:06 17:03:30
p557
tp558
a(I1
V2017:08:06 17:04:24
p559
tp560
a(I2
V2017:08:06 17:04:44
p561
tp562
a(I4
V2017:08:06 17:05:14
p563
tp564
a(I3
V2017:08:06 17:06:46
p565
tp566
a(I2
V2017:08:06 17:08:56
p567
tp568
a(I1
V2017:08:06 17:09:08
p569
tp570
a(I1
V2017:08:06 17:10:04
p571
tp572
a(I1
V2017:08:06 17:12:58
p573
tp574
a(I1
V2017:08:06 17:13:36
p575
tp576
a(I1
V2017:08:06 17:14:25
p577
tp578
a(I2
V2017:08:06 17:17:16
p579
tp580
a(I2
V2017:08:06 17:18:36
p581
tp582
a(I1
V2017:08:06 17:19:14
p583
tp584
a(I2
V2017:08:06 17:19:20
p585
tp586
a(I1
V2017:08:06 17:19:28
p587
tp588
a(I1
V2017:08:06 17:19:54
p589
tp590
a(I1
V2017:08:06 17:20:16
p591
tp592
a(I1
V2017:08:06 17:21:12
p593
tp594
a(I1
V2017:08:06 17:21:18
p595
tp596
a(I1
V2017:08:06 17:21:26
p597
tp598
a(I1
V2017:08:06 17:21:36
p599
tp600
a(I1
V2017:08:06 17:22:28
p601
tp602
a(I1
V2017:08:06 17:22:54
p603
tp604
a(I1
V2017:08:06 17:23:00
p605
tp606
a(I1
V2017:08:06 17:23:10
p607
tp608
a(I1
V2017:08:06 17:23:14
p609
tp610
a(I2
V2017:08:06 17:25:08
p611
tp612
a(I1
V2017:08:06 17:26:24
p613
tp614
a(I2
V2017:08:06 17:26:38
p615
tp616
a(I2
V2017:08:06 17:33:40
p617
tp618
a(I1
V2017:08:06 17:34:00
p619
tp620
a(I1
V2017:08:06 17:34:56
p621
tp622
a(I2
V2017:08:06 17:35:02
p623
tp624
a(I1
V2017:08:06 17:35:26
p625
tp626
a(I1
V2017:08:06 17:36:18
p627
tp628
a(I1
V2017:08:06 17:36:36
p629
tp630
a(I1
V2017:08:06 17:37:04
p631
tp632
a(I1
V2017:08:06 17:37:44
p633
tp634
a(I1
V2017:08:06 17:37:48
p635
tp636
a(I1
V2017:08:06 17:54:52
p637
tp638
a(I1
V2017:08:06 17:56:16
p639
tp640
a(I2
V2017:08:06 17:56:24
p641
tp642
a(I3
V2017:08:06 17:59:12
p643
tp644
a(I2
V2017:08:06 18:09:06
p645
tp646
a(I1
V2017:08:06 18:10:22
p647
tp648
a(I3
V2017:08:06 18:11:58
p649
tp650
a(I1
V2017:08:06 18:12:46
p651
tp652
a(I1
V2017:08:06 18:18:20
p653
tp654
a(I1
V2017:08:06 18:19:44
p655
tp656
a(I1
V2017:08:06 18:19:50
p657
tp658
a(I1
V2017:08:06 18:20:50
p659
tp660
a(I3
V2017:08:06 18:21:10
p661
tp662
a(I2
V2017:08:06 18:24:02
p663
tp664
a(I2
V2017:08:06 18:24:18
p665
tp666
a(I3
V2017:08:06 18:25:18
p667
tp668
a(I1
V2017:08:06 18:25:30
p669
tp670
a(I1
V2017:08:06 18:26:12
p671
tp672
a(I1
V2017:08:06 18:26:36
p673
tp674
a(I1
V2017:08:06 18:26:40
p675
tp676
a(I1
V2017:08:06 18:26:52
p677
tp678
a(I1
V2017:08:06 18:27:16
p679
tp680
a(I3
V2017:08:06 18:28:24
p681
tp682
a(I2
V2017:08:06 18:28:34
p683
tp684
a(I1
V2017:08:06 18:28:50
p685
tp686
a(I1
V2017:08:06 18:31:38
p687
tp688
a(I1
V2017:08:06 18:31:52
p689
tp690
a(I1
V2017:08:06 18:38:54
p691
tp692
a(I2
V2017:08:06 18:39:36
p693
tp694
a(I1
V2017:08:06 18:40:56
p695
tp696
a(I1
V2017:08:06 18:41:02
p697
tp698
a(I2
V2017:08:06 18:41:06
p699
tp700
a(I3
V2017:08:06 18:54:48
p701
tp702
a(I1
V2017:08:06 18:54:56
p703
tp704
a(I2
V2017:08:06 18:58:06
p705
tp706
a(I1
V2017:08:06 19:01:44
p707
tp708
a(I2
V2017:08:06 19:04:58
p709
tp710
a(I1
V2017:08:06 19:05:20
p711
tp712
a(I1
V2017:08:06 19:05:26
p713
tp714
a(I1
V2017:08:06 19:05:38
p715
tp716
a(I1
V2017:08:06 19:05:42
p717
tp718
a(I1
V2017:08:06 19:09:54
p719
tp720
a(I1
V2017:08:06 19:10:32
p721
tp722
a(I2
V2017:08:06 19:10:42
p723
tp724
a(I1
V2017:08:06 19:10:52
p725
tp726
a(I1
V2017:08:06 19:11:20
p727
tp728
a(I1
V2017:08:06 19:24:02
p729
tp730
a(I1
V2017:08:06 19:24:30
p731
tp732
a(I1
V2017:08:06 19:24:42
p733
tp734
a(I1
V2017:08:06 19:26:58
p735
tp736
a(I1
V2017:08:06 19:27:42
p737
tp738
a(I2
V2017:08:06 19:39:28
p739
tp740
a(I1
V2017:08:06 19:39:39
p741
tp742
a(I1
V2017:08:06 19:39:44
p743
tp744
a(I1
V2017:08:06 19:39:54
p745
tp746
a(I1
V2017:08:06 19:40:06
p747
tp748
a(I2
V2017:08:06 19:40:36
p749
tp750
a(I1
V2017:08:06 19:40:54
p751
tp752
a(I1
V2017:08:06 19:41:16
p753
tp754
a(I1
V2017:08:06 19:48:16
p755
tp756
a(I2
V2017:08:06 19:54:52
p757
tp758
a(I1
V2017:08:06 20:00:28
p759
tp760
a(I1
V2017:08:06 20:03:24
p761
tp762
a(I2
V2017:08:06 20:04:24
p763
tp764
a(I1
V2017:08:06 20:04:30
p765
tp766
a(I1
V2017:08:06 20:04:48
p767
tp768
a(I1
V2017:08:06 20:09:54
p769
tp770
a(I1
V2017:08:06 20:10:00
p771
tp772
a(I2
V2017:08:06 20:10:28
p773
tp774
a(I1
V2017:08:06 20:11:04
p775
tp776
a(I1
V2017:08:06 20:11:08
p777
tp778
a(I1
V2017:08:06 20:11:12
p779
tp780
a(I1
V2017:08:06 20:11:20
p781
tp782
a(I1
V2017:08:06 20:15:48
p783
tp784
a(I1
V2017:08:06 20:16:00
p785
tp786
a(I1
V2017:08:06 20:16:08
p787
tp788
a(I1
V2017:08:06 20:17:00
p789
tp790
a(I1
V2017:08:06 20:17:14
p791
tp792
a(I2
V2017:08:06 20:21:50
p793
tp794
a(I1
V2017:08:06 20:27:56
p795
tp796
a(I1
V2017:08:06 20:28:10
p797
tp798
a(I1
V2017:08:06 20:28:48
p799
tp800
a(I1
V2017:08:06 20:28:56
p801
tp802
a(I1
V2017:08:06 20:29:02
p803
tp804
a(I1
V2017:08:06 20:29:08
p805
tp806
a(I1
V2017:08:06 20:29:50
p807
tp808
a(I1
V2017:08:06 20:29:56
p809
tp810
a(I1
V2017:08:06 20:30:02
p811
tp812
a(I1
V2017:08:06 20:30:10
p813
tp814
a(I1
V2017:08:06 20:30:22
p815
tp816
a(I2
V2017:08:06 20:30:40
p817
tp818
a(I1
V2017:08:06 20:30:46
p819
tp820
a(I1
V2017:08:06 20:30:58
p821
tp822
a(I2
V2017:08:06 20:31:02
p823
tp824
a.